ARM GAS  /tmp/ccU5WO6B.s 			page 1


   1              		.cpu cortex-m3
   2              		.eabi_attribute 20, 1
   3              		.eabi_attribute 21, 1
   4              		.eabi_attribute 23, 3
   5              		.eabi_attribute 24, 1
   6              		.eabi_attribute 25, 1
   7              		.eabi_attribute 26, 1
   8              		.eabi_attribute 30, 6
   9              		.eabi_attribute 34, 1
  10              		.eabi_attribute 18, 4
  11              		.file	"heap_2.c"
  12              		.text
  13              	.Ltext0:
  14              		.cfi_sections	.debug_frame
  15              		.bss
  16              		.align	2
  17              	ucHeap:
  18 0000 00000000 		.space	8192
  18      00000000 
  18      00000000 
  18      00000000 
  18      00000000 
  19              		.size	ucHeap, 8192
  20              		.section	.rodata
  21              		.align	1
  22              		.type	heapSTRUCT_SIZE, %object
  23              		.size	heapSTRUCT_SIZE, 2
  24              	heapSTRUCT_SIZE:
  25 0000 0800     		.short	8
  26              		.bss
  27              		.align	2
  28              	xStart:
  29 2000 00000000 		.space	8
  29      00000000 
  30              		.size	xStart, 8
  31              		.align	2
  32              	xEnd:
  33 2008 00000000 		.space	8
  33      00000000 
  34              		.size	xEnd, 8
  35              		.data
  36              		.align	2
  37              		.type	xFreeBytesRemaining, %object
  38              		.size	xFreeBytesRemaining, 4
  39              	xFreeBytesRemaining:
  40 0000 F81F0000 		.word	8184
  41              		.text
  42              		.align	1
  43              		.global	pvPortMalloc
  44              		.syntax unified
  45              		.thumb
  46              		.thumb_func
  47              		.fpu softvfp
  48              		.type	pvPortMalloc, %function
  49              	pvPortMalloc:
  50              	.LFB5:
  51              		.file 1 "FreeRTOS/Source/portable/MemMang/heap_2.c"
ARM GAS  /tmp/ccU5WO6B.s 			page 2


   1:FreeRTOS/Source/portable/MemMang/heap_2.c **** /*
   2:FreeRTOS/Source/portable/MemMang/heap_2.c ****  * FreeRTOS Kernel V10.3.1
   3:FreeRTOS/Source/portable/MemMang/heap_2.c ****  * Copyright (C) 2020 Amazon.com, Inc. or its affiliates.  All Rights Reserved.
   4:FreeRTOS/Source/portable/MemMang/heap_2.c ****  *
   5:FreeRTOS/Source/portable/MemMang/heap_2.c ****  * Permission is hereby granted, free of charge, to any person obtaining a copy of
   6:FreeRTOS/Source/portable/MemMang/heap_2.c ****  * this software and associated documentation files (the "Software"), to deal in
   7:FreeRTOS/Source/portable/MemMang/heap_2.c ****  * the Software without restriction, including without limitation the rights to
   8:FreeRTOS/Source/portable/MemMang/heap_2.c ****  * use, copy, modify, merge, publish, distribute, sublicense, and/or sell copies of
   9:FreeRTOS/Source/portable/MemMang/heap_2.c ****  * the Software, and to permit persons to whom the Software is furnished to do so,
  10:FreeRTOS/Source/portable/MemMang/heap_2.c ****  * subject to the following conditions:
  11:FreeRTOS/Source/portable/MemMang/heap_2.c ****  *
  12:FreeRTOS/Source/portable/MemMang/heap_2.c ****  * The above copyright notice and this permission notice shall be included in all
  13:FreeRTOS/Source/portable/MemMang/heap_2.c ****  * copies or substantial portions of the Software.
  14:FreeRTOS/Source/portable/MemMang/heap_2.c ****  *
  15:FreeRTOS/Source/portable/MemMang/heap_2.c ****  * THE SOFTWARE IS PROVIDED "AS IS", WITHOUT WARRANTY OF ANY KIND, EXPRESS OR
  16:FreeRTOS/Source/portable/MemMang/heap_2.c ****  * IMPLIED, INCLUDING BUT NOT LIMITED TO THE WARRANTIES OF MERCHANTABILITY, FITNESS
  17:FreeRTOS/Source/portable/MemMang/heap_2.c ****  * FOR A PARTICULAR PURPOSE AND NONINFRINGEMENT. IN NO EVENT SHALL THE AUTHORS OR
  18:FreeRTOS/Source/portable/MemMang/heap_2.c ****  * COPYRIGHT HOLDERS BE LIABLE FOR ANY CLAIM, DAMAGES OR OTHER LIABILITY, WHETHER
  19:FreeRTOS/Source/portable/MemMang/heap_2.c ****  * IN AN ACTION OF CONTRACT, TORT OR OTHERWISE, ARISING FROM, OUT OF OR IN
  20:FreeRTOS/Source/portable/MemMang/heap_2.c ****  * CONNECTION WITH THE SOFTWARE OR THE USE OR OTHER DEALINGS IN THE SOFTWARE.
  21:FreeRTOS/Source/portable/MemMang/heap_2.c ****  *
  22:FreeRTOS/Source/portable/MemMang/heap_2.c ****  * http://www.FreeRTOS.org
  23:FreeRTOS/Source/portable/MemMang/heap_2.c ****  * http://aws.amazon.com/freertos
  24:FreeRTOS/Source/portable/MemMang/heap_2.c ****  *
  25:FreeRTOS/Source/portable/MemMang/heap_2.c ****  * 1 tab == 4 spaces!
  26:FreeRTOS/Source/portable/MemMang/heap_2.c ****  */
  27:FreeRTOS/Source/portable/MemMang/heap_2.c **** 
  28:FreeRTOS/Source/portable/MemMang/heap_2.c **** /*
  29:FreeRTOS/Source/portable/MemMang/heap_2.c ****  * A sample implementation of pvPortMalloc() and vPortFree() that permits
  30:FreeRTOS/Source/portable/MemMang/heap_2.c ****  * allocated blocks to be freed, but does not combine adjacent free blocks
  31:FreeRTOS/Source/portable/MemMang/heap_2.c ****  * into a single larger block (and so will fragment memory).  See heap_4.c for
  32:FreeRTOS/Source/portable/MemMang/heap_2.c ****  * an equivalent that does combine adjacent blocks into single larger blocks.
  33:FreeRTOS/Source/portable/MemMang/heap_2.c ****  *
  34:FreeRTOS/Source/portable/MemMang/heap_2.c ****  * See heap_1.c, heap_3.c and heap_4.c for alternative implementations, and the
  35:FreeRTOS/Source/portable/MemMang/heap_2.c ****  * memory management pages of http://www.FreeRTOS.org for more information.
  36:FreeRTOS/Source/portable/MemMang/heap_2.c ****  */
  37:FreeRTOS/Source/portable/MemMang/heap_2.c **** #include <stdlib.h>
  38:FreeRTOS/Source/portable/MemMang/heap_2.c **** 
  39:FreeRTOS/Source/portable/MemMang/heap_2.c **** /* Defining MPU_WRAPPERS_INCLUDED_FROM_API_FILE prevents task.h from redefining
  40:FreeRTOS/Source/portable/MemMang/heap_2.c **** all the API functions to use the MPU wrappers.  That should only be done when
  41:FreeRTOS/Source/portable/MemMang/heap_2.c **** task.h is included from an application file. */
  42:FreeRTOS/Source/portable/MemMang/heap_2.c **** #define MPU_WRAPPERS_INCLUDED_FROM_API_FILE
  43:FreeRTOS/Source/portable/MemMang/heap_2.c **** 
  44:FreeRTOS/Source/portable/MemMang/heap_2.c **** #include "FreeRTOS.h"
  45:FreeRTOS/Source/portable/MemMang/heap_2.c **** #include "task.h"
  46:FreeRTOS/Source/portable/MemMang/heap_2.c **** 
  47:FreeRTOS/Source/portable/MemMang/heap_2.c **** #undef MPU_WRAPPERS_INCLUDED_FROM_API_FILE
  48:FreeRTOS/Source/portable/MemMang/heap_2.c **** 
  49:FreeRTOS/Source/portable/MemMang/heap_2.c **** #if( configSUPPORT_DYNAMIC_ALLOCATION == 0 )
  50:FreeRTOS/Source/portable/MemMang/heap_2.c **** 	#error This file must not be used if configSUPPORT_DYNAMIC_ALLOCATION is 0
  51:FreeRTOS/Source/portable/MemMang/heap_2.c **** #endif
  52:FreeRTOS/Source/portable/MemMang/heap_2.c **** 
  53:FreeRTOS/Source/portable/MemMang/heap_2.c **** /* A few bytes might be lost to byte aligning the heap start address. */
  54:FreeRTOS/Source/portable/MemMang/heap_2.c **** #define configADJUSTED_HEAP_SIZE	( configTOTAL_HEAP_SIZE - portBYTE_ALIGNMENT )
  55:FreeRTOS/Source/portable/MemMang/heap_2.c **** 
  56:FreeRTOS/Source/portable/MemMang/heap_2.c **** /*
  57:FreeRTOS/Source/portable/MemMang/heap_2.c ****  * Initialises the heap structures before their first use.
ARM GAS  /tmp/ccU5WO6B.s 			page 3


  58:FreeRTOS/Source/portable/MemMang/heap_2.c ****  */
  59:FreeRTOS/Source/portable/MemMang/heap_2.c **** static void prvHeapInit( void );
  60:FreeRTOS/Source/portable/MemMang/heap_2.c **** 
  61:FreeRTOS/Source/portable/MemMang/heap_2.c **** /* Allocate the memory for the heap. */
  62:FreeRTOS/Source/portable/MemMang/heap_2.c **** #if( configAPPLICATION_ALLOCATED_HEAP == 1 )
  63:FreeRTOS/Source/portable/MemMang/heap_2.c **** 	/* The application writer has already defined the array used for the RTOS
  64:FreeRTOS/Source/portable/MemMang/heap_2.c **** 	heap - probably so it can be placed in a special segment or address. */
  65:FreeRTOS/Source/portable/MemMang/heap_2.c **** 	extern uint8_t ucHeap[ configTOTAL_HEAP_SIZE ];
  66:FreeRTOS/Source/portable/MemMang/heap_2.c **** #else
  67:FreeRTOS/Source/portable/MemMang/heap_2.c **** 	static uint8_t ucHeap[ configTOTAL_HEAP_SIZE ];
  68:FreeRTOS/Source/portable/MemMang/heap_2.c **** #endif /* configAPPLICATION_ALLOCATED_HEAP */
  69:FreeRTOS/Source/portable/MemMang/heap_2.c **** 
  70:FreeRTOS/Source/portable/MemMang/heap_2.c **** 
  71:FreeRTOS/Source/portable/MemMang/heap_2.c **** /* Define the linked list structure.  This is used to link free blocks in order
  72:FreeRTOS/Source/portable/MemMang/heap_2.c **** of their size. */
  73:FreeRTOS/Source/portable/MemMang/heap_2.c **** typedef struct A_BLOCK_LINK
  74:FreeRTOS/Source/portable/MemMang/heap_2.c **** {
  75:FreeRTOS/Source/portable/MemMang/heap_2.c **** 	struct A_BLOCK_LINK *pxNextFreeBlock;	/*<< The next free block in the list. */
  76:FreeRTOS/Source/portable/MemMang/heap_2.c **** 	size_t xBlockSize;						/*<< The size of the free block. */
  77:FreeRTOS/Source/portable/MemMang/heap_2.c **** } BlockLink_t;
  78:FreeRTOS/Source/portable/MemMang/heap_2.c **** 
  79:FreeRTOS/Source/portable/MemMang/heap_2.c **** 
  80:FreeRTOS/Source/portable/MemMang/heap_2.c **** static const uint16_t heapSTRUCT_SIZE	= ( ( sizeof ( BlockLink_t ) + ( portBYTE_ALIGNMENT - 1 ) ) &
  81:FreeRTOS/Source/portable/MemMang/heap_2.c **** #define heapMINIMUM_BLOCK_SIZE	( ( size_t ) ( heapSTRUCT_SIZE * 2 ) )
  82:FreeRTOS/Source/portable/MemMang/heap_2.c **** 
  83:FreeRTOS/Source/portable/MemMang/heap_2.c **** /* Create a couple of list links to mark the start and end of the list. */
  84:FreeRTOS/Source/portable/MemMang/heap_2.c **** static BlockLink_t xStart, xEnd;
  85:FreeRTOS/Source/portable/MemMang/heap_2.c **** 
  86:FreeRTOS/Source/portable/MemMang/heap_2.c **** /* Keeps track of the number of free bytes remaining, but says nothing about
  87:FreeRTOS/Source/portable/MemMang/heap_2.c **** fragmentation. */
  88:FreeRTOS/Source/portable/MemMang/heap_2.c **** static size_t xFreeBytesRemaining = configADJUSTED_HEAP_SIZE;
  89:FreeRTOS/Source/portable/MemMang/heap_2.c **** 
  90:FreeRTOS/Source/portable/MemMang/heap_2.c **** /* STATIC FUNCTIONS ARE DEFINED AS MACROS TO MINIMIZE THE FUNCTION CALL DEPTH. */
  91:FreeRTOS/Source/portable/MemMang/heap_2.c **** 
  92:FreeRTOS/Source/portable/MemMang/heap_2.c **** /*
  93:FreeRTOS/Source/portable/MemMang/heap_2.c ****  * Insert a block into the list of free blocks - which is ordered by size of
  94:FreeRTOS/Source/portable/MemMang/heap_2.c ****  * the block.  Small blocks at the start of the list and large blocks at the end
  95:FreeRTOS/Source/portable/MemMang/heap_2.c ****  * of the list.
  96:FreeRTOS/Source/portable/MemMang/heap_2.c ****  */
  97:FreeRTOS/Source/portable/MemMang/heap_2.c **** #define prvInsertBlockIntoFreeList( pxBlockToInsert )								\
  98:FreeRTOS/Source/portable/MemMang/heap_2.c **** {																					\
  99:FreeRTOS/Source/portable/MemMang/heap_2.c **** BlockLink_t *pxIterator;															\
 100:FreeRTOS/Source/portable/MemMang/heap_2.c **** size_t xBlockSize;																	\
 101:FreeRTOS/Source/portable/MemMang/heap_2.c **** 																					\
 102:FreeRTOS/Source/portable/MemMang/heap_2.c **** 	xBlockSize = pxBlockToInsert->xBlockSize;										\
 103:FreeRTOS/Source/portable/MemMang/heap_2.c **** 																					\
 104:FreeRTOS/Source/portable/MemMang/heap_2.c **** 	/* Iterate through the list until a block is found that has a larger size */	\
 105:FreeRTOS/Source/portable/MemMang/heap_2.c **** 	/* than the block we are inserting. */											\
 106:FreeRTOS/Source/portable/MemMang/heap_2.c **** 	for( pxIterator = &xStart; pxIterator->pxNextFreeBlock->xBlockSize < xBlockSize; pxIterator = pxIt
 107:FreeRTOS/Source/portable/MemMang/heap_2.c **** 	{																				\
 108:FreeRTOS/Source/portable/MemMang/heap_2.c **** 		/* There is nothing to do here - just iterate to the correct position. */	\
 109:FreeRTOS/Source/portable/MemMang/heap_2.c **** 	}																				\
 110:FreeRTOS/Source/portable/MemMang/heap_2.c **** 																					\
 111:FreeRTOS/Source/portable/MemMang/heap_2.c **** 	/* Update the list to include the block being inserted in the correct */		\
 112:FreeRTOS/Source/portable/MemMang/heap_2.c **** 	/* position. */																	\
 113:FreeRTOS/Source/portable/MemMang/heap_2.c **** 	pxBlockToInsert->pxNextFreeBlock = pxIterator->pxNextFreeBlock;					\
 114:FreeRTOS/Source/portable/MemMang/heap_2.c **** 	pxIterator->pxNextFreeBlock = pxBlockToInsert;									\
ARM GAS  /tmp/ccU5WO6B.s 			page 4


 115:FreeRTOS/Source/portable/MemMang/heap_2.c **** }
 116:FreeRTOS/Source/portable/MemMang/heap_2.c **** /*-----------------------------------------------------------*/
 117:FreeRTOS/Source/portable/MemMang/heap_2.c **** 
 118:FreeRTOS/Source/portable/MemMang/heap_2.c **** void *pvPortMalloc( size_t xWantedSize )
 119:FreeRTOS/Source/portable/MemMang/heap_2.c **** {
  52              		.loc 1 119 0
  53              		.cfi_startproc
  54              		@ args = 0, pretend = 0, frame = 32
  55              		@ frame_needed = 1, uses_anonymous_args = 0
  56 0000 80B5     		push	{r7, lr}
  57              		.cfi_def_cfa_offset 8
  58              		.cfi_offset 7, -8
  59              		.cfi_offset 14, -4
  60 0002 88B0     		sub	sp, sp, #32
  61              		.cfi_def_cfa_offset 40
  62 0004 00AF     		add	r7, sp, #0
  63              		.cfi_def_cfa_register 7
  64 0006 7860     		str	r0, [r7, #4]
 120:FreeRTOS/Source/portable/MemMang/heap_2.c **** BlockLink_t *pxBlock, *pxPreviousBlock, *pxNewBlockLink;
 121:FreeRTOS/Source/portable/MemMang/heap_2.c **** static BaseType_t xHeapHasBeenInitialised = pdFALSE;
 122:FreeRTOS/Source/portable/MemMang/heap_2.c **** void *pvReturn = NULL;
  65              		.loc 1 122 0
  66 0008 0023     		movs	r3, #0
  67 000a 7B61     		str	r3, [r7, #20]
 123:FreeRTOS/Source/portable/MemMang/heap_2.c **** 
 124:FreeRTOS/Source/portable/MemMang/heap_2.c **** 	vTaskSuspendAll();
  68              		.loc 1 124 0
  69 000c FFF7FEFF 		bl	vTaskSuspendAll
 125:FreeRTOS/Source/portable/MemMang/heap_2.c **** 	{
 126:FreeRTOS/Source/portable/MemMang/heap_2.c **** 		/* If this is the first call to malloc then the heap will require
 127:FreeRTOS/Source/portable/MemMang/heap_2.c **** 		initialisation to setup the list of free blocks. */
 128:FreeRTOS/Source/portable/MemMang/heap_2.c **** 		if( xHeapHasBeenInitialised == pdFALSE )
  70              		.loc 1 128 0
  71 0010 3E4B     		ldr	r3, .L12
  72 0012 1B68     		ldr	r3, [r3]
  73 0014 002B     		cmp	r3, #0
  74 0016 04D1     		bne	.L2
 129:FreeRTOS/Source/portable/MemMang/heap_2.c **** 		{
 130:FreeRTOS/Source/portable/MemMang/heap_2.c **** 			prvHeapInit();
  75              		.loc 1 130 0
  76 0018 00F0CAF8 		bl	prvHeapInit
 131:FreeRTOS/Source/portable/MemMang/heap_2.c **** 			xHeapHasBeenInitialised = pdTRUE;
  77              		.loc 1 131 0
  78 001c 3B4B     		ldr	r3, .L12
  79 001e 0122     		movs	r2, #1
  80 0020 1A60     		str	r2, [r3]
  81              	.L2:
 132:FreeRTOS/Source/portable/MemMang/heap_2.c **** 		}
 133:FreeRTOS/Source/portable/MemMang/heap_2.c **** 
 134:FreeRTOS/Source/portable/MemMang/heap_2.c **** 		/* The wanted size is increased so it can contain a BlockLink_t
 135:FreeRTOS/Source/portable/MemMang/heap_2.c **** 		structure in addition to the requested amount of bytes. */
 136:FreeRTOS/Source/portable/MemMang/heap_2.c **** 		if( xWantedSize > 0 )
  82              		.loc 1 136 0
  83 0022 7B68     		ldr	r3, [r7, #4]
  84 0024 002B     		cmp	r3, #0
  85 0026 0ED0     		beq	.L3
 137:FreeRTOS/Source/portable/MemMang/heap_2.c **** 		{
ARM GAS  /tmp/ccU5WO6B.s 			page 5


 138:FreeRTOS/Source/portable/MemMang/heap_2.c **** 			xWantedSize += heapSTRUCT_SIZE;
  86              		.loc 1 138 0
  87 0028 0823     		movs	r3, #8
  88 002a 1A46     		mov	r2, r3
  89 002c 7B68     		ldr	r3, [r7, #4]
  90 002e 1344     		add	r3, r3, r2
  91 0030 7B60     		str	r3, [r7, #4]
 139:FreeRTOS/Source/portable/MemMang/heap_2.c **** 
 140:FreeRTOS/Source/portable/MemMang/heap_2.c **** 			/* Ensure that blocks are always aligned to the required number of bytes. */
 141:FreeRTOS/Source/portable/MemMang/heap_2.c **** 			if( ( xWantedSize & portBYTE_ALIGNMENT_MASK ) != 0 )
  92              		.loc 1 141 0
  93 0032 7B68     		ldr	r3, [r7, #4]
  94 0034 03F00703 		and	r3, r3, #7
  95 0038 002B     		cmp	r3, #0
  96 003a 04D0     		beq	.L3
 142:FreeRTOS/Source/portable/MemMang/heap_2.c **** 			{
 143:FreeRTOS/Source/portable/MemMang/heap_2.c **** 				/* Byte alignment required. */
 144:FreeRTOS/Source/portable/MemMang/heap_2.c **** 				xWantedSize += ( portBYTE_ALIGNMENT - ( xWantedSize & portBYTE_ALIGNMENT_MASK ) );
  97              		.loc 1 144 0
  98 003c 7B68     		ldr	r3, [r7, #4]
  99 003e 23F00703 		bic	r3, r3, #7
 100 0042 0833     		adds	r3, r3, #8
 101 0044 7B60     		str	r3, [r7, #4]
 102              	.L3:
 145:FreeRTOS/Source/portable/MemMang/heap_2.c **** 			}
 146:FreeRTOS/Source/portable/MemMang/heap_2.c **** 		}
 147:FreeRTOS/Source/portable/MemMang/heap_2.c **** 
 148:FreeRTOS/Source/portable/MemMang/heap_2.c **** 		if( ( xWantedSize > 0 ) && ( xWantedSize < configADJUSTED_HEAP_SIZE ) )
 103              		.loc 1 148 0
 104 0046 7B68     		ldr	r3, [r7, #4]
 105 0048 002B     		cmp	r3, #0
 106 004a 57D0     		beq	.L4
 107              		.loc 1 148 0 is_stmt 0 discriminator 1
 108 004c 7B68     		ldr	r3, [r7, #4]
 109 004e 41F6F772 		movw	r2, #8183
 110 0052 9342     		cmp	r3, r2
 111 0054 52D8     		bhi	.L4
 149:FreeRTOS/Source/portable/MemMang/heap_2.c **** 		{
 150:FreeRTOS/Source/portable/MemMang/heap_2.c **** 			/* Blocks are stored in byte order - traverse the list from the start
 151:FreeRTOS/Source/portable/MemMang/heap_2.c **** 			(smallest) block until one of adequate size is found. */
 152:FreeRTOS/Source/portable/MemMang/heap_2.c **** 			pxPreviousBlock = &xStart;
 112              		.loc 1 152 0 is_stmt 1
 113 0056 2E4B     		ldr	r3, .L12+4
 114 0058 BB61     		str	r3, [r7, #24]
 153:FreeRTOS/Source/portable/MemMang/heap_2.c **** 			pxBlock = xStart.pxNextFreeBlock;
 115              		.loc 1 153 0
 116 005a 2D4B     		ldr	r3, .L12+4
 117 005c 1B68     		ldr	r3, [r3]
 118 005e FB61     		str	r3, [r7, #28]
 154:FreeRTOS/Source/portable/MemMang/heap_2.c **** 			while( ( pxBlock->xBlockSize < xWantedSize ) && ( pxBlock->pxNextFreeBlock != NULL ) )
 119              		.loc 1 154 0
 120 0060 04E0     		b	.L5
 121              	.L7:
 155:FreeRTOS/Source/portable/MemMang/heap_2.c **** 			{
 156:FreeRTOS/Source/portable/MemMang/heap_2.c **** 				pxPreviousBlock = pxBlock;
 122              		.loc 1 156 0
 123 0062 FB69     		ldr	r3, [r7, #28]
ARM GAS  /tmp/ccU5WO6B.s 			page 6


 124 0064 BB61     		str	r3, [r7, #24]
 157:FreeRTOS/Source/portable/MemMang/heap_2.c **** 				pxBlock = pxBlock->pxNextFreeBlock;
 125              		.loc 1 157 0
 126 0066 FB69     		ldr	r3, [r7, #28]
 127 0068 1B68     		ldr	r3, [r3]
 128 006a FB61     		str	r3, [r7, #28]
 129              	.L5:
 154:FreeRTOS/Source/portable/MemMang/heap_2.c **** 			while( ( pxBlock->xBlockSize < xWantedSize ) && ( pxBlock->pxNextFreeBlock != NULL ) )
 130              		.loc 1 154 0
 131 006c FB69     		ldr	r3, [r7, #28]
 132 006e 5A68     		ldr	r2, [r3, #4]
 133 0070 7B68     		ldr	r3, [r7, #4]
 134 0072 9A42     		cmp	r2, r3
 135 0074 03D2     		bcs	.L6
 154:FreeRTOS/Source/portable/MemMang/heap_2.c **** 			while( ( pxBlock->xBlockSize < xWantedSize ) && ( pxBlock->pxNextFreeBlock != NULL ) )
 136              		.loc 1 154 0 is_stmt 0 discriminator 1
 137 0076 FB69     		ldr	r3, [r7, #28]
 138 0078 1B68     		ldr	r3, [r3]
 139 007a 002B     		cmp	r3, #0
 140 007c F1D1     		bne	.L7
 141              	.L6:
 158:FreeRTOS/Source/portable/MemMang/heap_2.c **** 			}
 159:FreeRTOS/Source/portable/MemMang/heap_2.c **** 
 160:FreeRTOS/Source/portable/MemMang/heap_2.c **** 			/* If we found the end marker then a block of adequate size was not found. */
 161:FreeRTOS/Source/portable/MemMang/heap_2.c **** 			if( pxBlock != &xEnd )
 142              		.loc 1 161 0 is_stmt 1
 143 007e FB69     		ldr	r3, [r7, #28]
 144 0080 244A     		ldr	r2, .L12+8
 145 0082 9342     		cmp	r3, r2
 146 0084 3AD0     		beq	.L4
 162:FreeRTOS/Source/portable/MemMang/heap_2.c **** 			{
 163:FreeRTOS/Source/portable/MemMang/heap_2.c **** 				/* Return the memory space - jumping over the BlockLink_t structure
 164:FreeRTOS/Source/portable/MemMang/heap_2.c **** 				at its start. */
 165:FreeRTOS/Source/portable/MemMang/heap_2.c **** 				pvReturn = ( void * ) ( ( ( uint8_t * ) pxPreviousBlock->pxNextFreeBlock ) + heapSTRUCT_SIZE );
 147              		.loc 1 165 0
 148 0086 BB69     		ldr	r3, [r7, #24]
 149 0088 1B68     		ldr	r3, [r3]
 150 008a 0822     		movs	r2, #8
 151 008c 1344     		add	r3, r3, r2
 152 008e 7B61     		str	r3, [r7, #20]
 166:FreeRTOS/Source/portable/MemMang/heap_2.c **** 
 167:FreeRTOS/Source/portable/MemMang/heap_2.c **** 				/* This block is being returned for use so must be taken out of the
 168:FreeRTOS/Source/portable/MemMang/heap_2.c **** 				list of free blocks. */
 169:FreeRTOS/Source/portable/MemMang/heap_2.c **** 				pxPreviousBlock->pxNextFreeBlock = pxBlock->pxNextFreeBlock;
 153              		.loc 1 169 0
 154 0090 FB69     		ldr	r3, [r7, #28]
 155 0092 1A68     		ldr	r2, [r3]
 156 0094 BB69     		ldr	r3, [r7, #24]
 157 0096 1A60     		str	r2, [r3]
 170:FreeRTOS/Source/portable/MemMang/heap_2.c **** 
 171:FreeRTOS/Source/portable/MemMang/heap_2.c **** 				/* If the block is larger than required it can be split into two. */
 172:FreeRTOS/Source/portable/MemMang/heap_2.c **** 				if( ( pxBlock->xBlockSize - xWantedSize ) > heapMINIMUM_BLOCK_SIZE )
 158              		.loc 1 172 0
 159 0098 FB69     		ldr	r3, [r7, #28]
 160 009a 5A68     		ldr	r2, [r3, #4]
 161 009c 7B68     		ldr	r3, [r7, #4]
 162 009e D31A     		subs	r3, r2, r3
ARM GAS  /tmp/ccU5WO6B.s 			page 7


 163 00a0 0822     		movs	r2, #8
 164 00a2 5200     		lsls	r2, r2, #1
 165 00a4 9342     		cmp	r3, r2
 166 00a6 22D9     		bls	.L8
 173:FreeRTOS/Source/portable/MemMang/heap_2.c **** 				{
 174:FreeRTOS/Source/portable/MemMang/heap_2.c **** 					/* This block is to be split into two.  Create a new block
 175:FreeRTOS/Source/portable/MemMang/heap_2.c **** 					following the number of bytes requested. The void cast is
 176:FreeRTOS/Source/portable/MemMang/heap_2.c **** 					used to prevent byte alignment warnings from the compiler. */
 177:FreeRTOS/Source/portable/MemMang/heap_2.c **** 					pxNewBlockLink = ( void * ) ( ( ( uint8_t * ) pxBlock ) + xWantedSize );
 167              		.loc 1 177 0
 168 00a8 FA69     		ldr	r2, [r7, #28]
 169 00aa 7B68     		ldr	r3, [r7, #4]
 170 00ac 1344     		add	r3, r3, r2
 171 00ae FB60     		str	r3, [r7, #12]
 178:FreeRTOS/Source/portable/MemMang/heap_2.c **** 
 179:FreeRTOS/Source/portable/MemMang/heap_2.c **** 					/* Calculate the sizes of two blocks split from the single
 180:FreeRTOS/Source/portable/MemMang/heap_2.c **** 					block. */
 181:FreeRTOS/Source/portable/MemMang/heap_2.c **** 					pxNewBlockLink->xBlockSize = pxBlock->xBlockSize - xWantedSize;
 172              		.loc 1 181 0
 173 00b0 FB69     		ldr	r3, [r7, #28]
 174 00b2 5A68     		ldr	r2, [r3, #4]
 175 00b4 7B68     		ldr	r3, [r7, #4]
 176 00b6 D21A     		subs	r2, r2, r3
 177 00b8 FB68     		ldr	r3, [r7, #12]
 178 00ba 5A60     		str	r2, [r3, #4]
 182:FreeRTOS/Source/portable/MemMang/heap_2.c **** 					pxBlock->xBlockSize = xWantedSize;
 179              		.loc 1 182 0
 180 00bc FB69     		ldr	r3, [r7, #28]
 181 00be 7A68     		ldr	r2, [r7, #4]
 182 00c0 5A60     		str	r2, [r3, #4]
 183              	.LBB2:
 183:FreeRTOS/Source/portable/MemMang/heap_2.c **** 
 184:FreeRTOS/Source/portable/MemMang/heap_2.c **** 					/* Insert the new block into the list of free blocks. */
 185:FreeRTOS/Source/portable/MemMang/heap_2.c **** 					prvInsertBlockIntoFreeList( ( pxNewBlockLink ) );
 184              		.loc 1 185 0
 185 00c2 FB68     		ldr	r3, [r7, #12]
 186 00c4 5B68     		ldr	r3, [r3, #4]
 187 00c6 BB60     		str	r3, [r7, #8]
 188 00c8 114B     		ldr	r3, .L12+4
 189 00ca 3B61     		str	r3, [r7, #16]
 190 00cc 02E0     		b	.L9
 191              	.L10:
 192              		.loc 1 185 0 is_stmt 0 discriminator 3
 193 00ce 3B69     		ldr	r3, [r7, #16]
 194 00d0 1B68     		ldr	r3, [r3]
 195 00d2 3B61     		str	r3, [r7, #16]
 196              	.L9:
 197              		.loc 1 185 0 discriminator 1
 198 00d4 3B69     		ldr	r3, [r7, #16]
 199 00d6 1B68     		ldr	r3, [r3]
 200 00d8 5A68     		ldr	r2, [r3, #4]
 201 00da BB68     		ldr	r3, [r7, #8]
 202 00dc 9A42     		cmp	r2, r3
 203 00de F6D3     		bcc	.L10
 204              		.loc 1 185 0 discriminator 4
 205 00e0 3B69     		ldr	r3, [r7, #16]
 206 00e2 1A68     		ldr	r2, [r3]
ARM GAS  /tmp/ccU5WO6B.s 			page 8


 207 00e4 FB68     		ldr	r3, [r7, #12]
 208 00e6 1A60     		str	r2, [r3]
 209 00e8 3B69     		ldr	r3, [r7, #16]
 210 00ea FA68     		ldr	r2, [r7, #12]
 211 00ec 1A60     		str	r2, [r3]
 212              	.L8:
 213              	.LBE2:
 186:FreeRTOS/Source/portable/MemMang/heap_2.c **** 				}
 187:FreeRTOS/Source/portable/MemMang/heap_2.c **** 
 188:FreeRTOS/Source/portable/MemMang/heap_2.c **** 				xFreeBytesRemaining -= pxBlock->xBlockSize;
 214              		.loc 1 188 0 is_stmt 1
 215 00ee 0A4B     		ldr	r3, .L12+12
 216 00f0 1A68     		ldr	r2, [r3]
 217 00f2 FB69     		ldr	r3, [r7, #28]
 218 00f4 5B68     		ldr	r3, [r3, #4]
 219 00f6 D31A     		subs	r3, r2, r3
 220 00f8 074A     		ldr	r2, .L12+12
 221 00fa 1360     		str	r3, [r2]
 222              	.L4:
 189:FreeRTOS/Source/portable/MemMang/heap_2.c **** 			}
 190:FreeRTOS/Source/portable/MemMang/heap_2.c **** 		}
 191:FreeRTOS/Source/portable/MemMang/heap_2.c **** 
 192:FreeRTOS/Source/portable/MemMang/heap_2.c **** 		traceMALLOC( pvReturn, xWantedSize );
 193:FreeRTOS/Source/portable/MemMang/heap_2.c **** 	}
 194:FreeRTOS/Source/portable/MemMang/heap_2.c **** 	( void ) xTaskResumeAll();
 223              		.loc 1 194 0
 224 00fc FFF7FEFF 		bl	xTaskResumeAll
 195:FreeRTOS/Source/portable/MemMang/heap_2.c **** 
 196:FreeRTOS/Source/portable/MemMang/heap_2.c **** 	#if( configUSE_MALLOC_FAILED_HOOK == 1 )
 197:FreeRTOS/Source/portable/MemMang/heap_2.c **** 	{
 198:FreeRTOS/Source/portable/MemMang/heap_2.c **** 		if( pvReturn == NULL )
 199:FreeRTOS/Source/portable/MemMang/heap_2.c **** 		{
 200:FreeRTOS/Source/portable/MemMang/heap_2.c **** 			extern void vApplicationMallocFailedHook( void );
 201:FreeRTOS/Source/portable/MemMang/heap_2.c **** 			vApplicationMallocFailedHook();
 202:FreeRTOS/Source/portable/MemMang/heap_2.c **** 		}
 203:FreeRTOS/Source/portable/MemMang/heap_2.c **** 	}
 204:FreeRTOS/Source/portable/MemMang/heap_2.c **** 	#endif
 205:FreeRTOS/Source/portable/MemMang/heap_2.c **** 
 206:FreeRTOS/Source/portable/MemMang/heap_2.c **** 	return pvReturn;
 225              		.loc 1 206 0
 226 0100 7B69     		ldr	r3, [r7, #20]
 207:FreeRTOS/Source/portable/MemMang/heap_2.c **** }
 227              		.loc 1 207 0
 228 0102 1846     		mov	r0, r3
 229 0104 2037     		adds	r7, r7, #32
 230              		.cfi_def_cfa_offset 8
 231 0106 BD46     		mov	sp, r7
 232              		.cfi_def_cfa_register 13
 233              		@ sp needed
 234 0108 80BD     		pop	{r7, pc}
 235              	.L13:
 236 010a 00BF     		.align	2
 237              	.L12:
 238 010c 10200000 		.word	xHeapHasBeenInitialised.4857
 239 0110 00200000 		.word	xStart
 240 0114 08200000 		.word	xEnd
 241 0118 00000000 		.word	xFreeBytesRemaining
ARM GAS  /tmp/ccU5WO6B.s 			page 9


 242              		.cfi_endproc
 243              	.LFE5:
 244              		.size	pvPortMalloc, .-pvPortMalloc
 245              		.align	1
 246              		.global	vPortFree
 247              		.syntax unified
 248              		.thumb
 249              		.thumb_func
 250              		.fpu softvfp
 251              		.type	vPortFree, %function
 252              	vPortFree:
 253              	.LFB6:
 208:FreeRTOS/Source/portable/MemMang/heap_2.c **** /*-----------------------------------------------------------*/
 209:FreeRTOS/Source/portable/MemMang/heap_2.c **** 
 210:FreeRTOS/Source/portable/MemMang/heap_2.c **** void vPortFree( void *pv )
 211:FreeRTOS/Source/portable/MemMang/heap_2.c **** {
 254              		.loc 1 211 0
 255              		.cfi_startproc
 256              		@ args = 0, pretend = 0, frame = 24
 257              		@ frame_needed = 1, uses_anonymous_args = 0
 258 011c 80B5     		push	{r7, lr}
 259              		.cfi_def_cfa_offset 8
 260              		.cfi_offset 7, -8
 261              		.cfi_offset 14, -4
 262 011e 86B0     		sub	sp, sp, #24
 263              		.cfi_def_cfa_offset 32
 264 0120 00AF     		add	r7, sp, #0
 265              		.cfi_def_cfa_register 7
 266 0122 7860     		str	r0, [r7, #4]
 212:FreeRTOS/Source/portable/MemMang/heap_2.c **** uint8_t *puc = ( uint8_t * ) pv;
 267              		.loc 1 212 0
 268 0124 7B68     		ldr	r3, [r7, #4]
 269 0126 3B61     		str	r3, [r7, #16]
 213:FreeRTOS/Source/portable/MemMang/heap_2.c **** BlockLink_t *pxLink;
 214:FreeRTOS/Source/portable/MemMang/heap_2.c **** 
 215:FreeRTOS/Source/portable/MemMang/heap_2.c **** 	if( pv != NULL )
 270              		.loc 1 215 0
 271 0128 7B68     		ldr	r3, [r7, #4]
 272 012a 002B     		cmp	r3, #0
 273 012c 27D0     		beq	.L18
 216:FreeRTOS/Source/portable/MemMang/heap_2.c **** 	{
 217:FreeRTOS/Source/portable/MemMang/heap_2.c **** 		/* The memory being freed will have an BlockLink_t structure immediately
 218:FreeRTOS/Source/portable/MemMang/heap_2.c **** 		before it. */
 219:FreeRTOS/Source/portable/MemMang/heap_2.c **** 		puc -= heapSTRUCT_SIZE;
 274              		.loc 1 219 0
 275 012e 0823     		movs	r3, #8
 276 0130 5B42     		negs	r3, r3
 277 0132 3A69     		ldr	r2, [r7, #16]
 278 0134 1344     		add	r3, r3, r2
 279 0136 3B61     		str	r3, [r7, #16]
 220:FreeRTOS/Source/portable/MemMang/heap_2.c **** 
 221:FreeRTOS/Source/portable/MemMang/heap_2.c **** 		/* This unexpected casting is to keep some compilers from issuing
 222:FreeRTOS/Source/portable/MemMang/heap_2.c **** 		byte alignment warnings. */
 223:FreeRTOS/Source/portable/MemMang/heap_2.c **** 		pxLink = ( void * ) puc;
 280              		.loc 1 223 0
 281 0138 3B69     		ldr	r3, [r7, #16]
 282 013a FB60     		str	r3, [r7, #12]
ARM GAS  /tmp/ccU5WO6B.s 			page 10


 224:FreeRTOS/Source/portable/MemMang/heap_2.c **** 
 225:FreeRTOS/Source/portable/MemMang/heap_2.c **** 		vTaskSuspendAll();
 283              		.loc 1 225 0
 284 013c FFF7FEFF 		bl	vTaskSuspendAll
 285              	.LBB3:
 226:FreeRTOS/Source/portable/MemMang/heap_2.c **** 		{
 227:FreeRTOS/Source/portable/MemMang/heap_2.c **** 			/* Add this block to the list of free blocks. */
 228:FreeRTOS/Source/portable/MemMang/heap_2.c **** 			prvInsertBlockIntoFreeList( ( ( BlockLink_t * ) pxLink ) );
 286              		.loc 1 228 0
 287 0140 FB68     		ldr	r3, [r7, #12]
 288 0142 5B68     		ldr	r3, [r3, #4]
 289 0144 BB60     		str	r3, [r7, #8]
 290 0146 104B     		ldr	r3, .L19
 291 0148 7B61     		str	r3, [r7, #20]
 292 014a 02E0     		b	.L16
 293              	.L17:
 294              		.loc 1 228 0 is_stmt 0 discriminator 3
 295 014c 7B69     		ldr	r3, [r7, #20]
 296 014e 1B68     		ldr	r3, [r3]
 297 0150 7B61     		str	r3, [r7, #20]
 298              	.L16:
 299              		.loc 1 228 0 discriminator 1
 300 0152 7B69     		ldr	r3, [r7, #20]
 301 0154 1B68     		ldr	r3, [r3]
 302 0156 5A68     		ldr	r2, [r3, #4]
 303 0158 BB68     		ldr	r3, [r7, #8]
 304 015a 9A42     		cmp	r2, r3
 305 015c F6D3     		bcc	.L17
 306              		.loc 1 228 0 discriminator 4
 307 015e 7B69     		ldr	r3, [r7, #20]
 308 0160 1A68     		ldr	r2, [r3]
 309 0162 FB68     		ldr	r3, [r7, #12]
 310 0164 1A60     		str	r2, [r3]
 311 0166 7B69     		ldr	r3, [r7, #20]
 312 0168 FA68     		ldr	r2, [r7, #12]
 313 016a 1A60     		str	r2, [r3]
 314              	.LBE3:
 229:FreeRTOS/Source/portable/MemMang/heap_2.c **** 			xFreeBytesRemaining += pxLink->xBlockSize;
 315              		.loc 1 229 0 is_stmt 1 discriminator 4
 316 016c FB68     		ldr	r3, [r7, #12]
 317 016e 5A68     		ldr	r2, [r3, #4]
 318 0170 064B     		ldr	r3, .L19+4
 319 0172 1B68     		ldr	r3, [r3]
 320 0174 1344     		add	r3, r3, r2
 321 0176 054A     		ldr	r2, .L19+4
 322 0178 1360     		str	r3, [r2]
 230:FreeRTOS/Source/portable/MemMang/heap_2.c **** 			traceFREE( pv, pxLink->xBlockSize );
 231:FreeRTOS/Source/portable/MemMang/heap_2.c **** 		}
 232:FreeRTOS/Source/portable/MemMang/heap_2.c **** 		( void ) xTaskResumeAll();
 323              		.loc 1 232 0 discriminator 4
 324 017a FFF7FEFF 		bl	xTaskResumeAll
 325              	.L18:
 233:FreeRTOS/Source/portable/MemMang/heap_2.c **** 	}
 234:FreeRTOS/Source/portable/MemMang/heap_2.c **** }
 326              		.loc 1 234 0
 327 017e 00BF     		nop
 328 0180 1837     		adds	r7, r7, #24
ARM GAS  /tmp/ccU5WO6B.s 			page 11


 329              		.cfi_def_cfa_offset 8
 330 0182 BD46     		mov	sp, r7
 331              		.cfi_def_cfa_register 13
 332              		@ sp needed
 333 0184 80BD     		pop	{r7, pc}
 334              	.L20:
 335 0186 00BF     		.align	2
 336              	.L19:
 337 0188 00200000 		.word	xStart
 338 018c 00000000 		.word	xFreeBytesRemaining
 339              		.cfi_endproc
 340              	.LFE6:
 341              		.size	vPortFree, .-vPortFree
 342              		.align	1
 343              		.global	xPortGetFreeHeapSize
 344              		.syntax unified
 345              		.thumb
 346              		.thumb_func
 347              		.fpu softvfp
 348              		.type	xPortGetFreeHeapSize, %function
 349              	xPortGetFreeHeapSize:
 350              	.LFB7:
 235:FreeRTOS/Source/portable/MemMang/heap_2.c **** /*-----------------------------------------------------------*/
 236:FreeRTOS/Source/portable/MemMang/heap_2.c **** 
 237:FreeRTOS/Source/portable/MemMang/heap_2.c **** size_t xPortGetFreeHeapSize( void )
 238:FreeRTOS/Source/portable/MemMang/heap_2.c **** {
 351              		.loc 1 238 0
 352              		.cfi_startproc
 353              		@ args = 0, pretend = 0, frame = 0
 354              		@ frame_needed = 1, uses_anonymous_args = 0
 355              		@ link register save eliminated.
 356 0190 80B4     		push	{r7}
 357              		.cfi_def_cfa_offset 4
 358              		.cfi_offset 7, -4
 359 0192 00AF     		add	r7, sp, #0
 360              		.cfi_def_cfa_register 7
 239:FreeRTOS/Source/portable/MemMang/heap_2.c **** 	return xFreeBytesRemaining;
 361              		.loc 1 239 0
 362 0194 024B     		ldr	r3, .L23
 363 0196 1B68     		ldr	r3, [r3]
 240:FreeRTOS/Source/portable/MemMang/heap_2.c **** }
 364              		.loc 1 240 0
 365 0198 1846     		mov	r0, r3
 366 019a BD46     		mov	sp, r7
 367              		.cfi_def_cfa_register 13
 368              		@ sp needed
 369 019c 80BC     		pop	{r7}
 370              		.cfi_restore 7
 371              		.cfi_def_cfa_offset 0
 372 019e 7047     		bx	lr
 373              	.L24:
 374              		.align	2
 375              	.L23:
 376 01a0 00000000 		.word	xFreeBytesRemaining
 377              		.cfi_endproc
 378              	.LFE7:
 379              		.size	xPortGetFreeHeapSize, .-xPortGetFreeHeapSize
ARM GAS  /tmp/ccU5WO6B.s 			page 12


 380              		.align	1
 381              		.global	vPortInitialiseBlocks
 382              		.syntax unified
 383              		.thumb
 384              		.thumb_func
 385              		.fpu softvfp
 386              		.type	vPortInitialiseBlocks, %function
 387              	vPortInitialiseBlocks:
 388              	.LFB8:
 241:FreeRTOS/Source/portable/MemMang/heap_2.c **** /*-----------------------------------------------------------*/
 242:FreeRTOS/Source/portable/MemMang/heap_2.c **** 
 243:FreeRTOS/Source/portable/MemMang/heap_2.c **** void vPortInitialiseBlocks( void )
 244:FreeRTOS/Source/portable/MemMang/heap_2.c **** {
 389              		.loc 1 244 0
 390              		.cfi_startproc
 391              		@ args = 0, pretend = 0, frame = 0
 392              		@ frame_needed = 1, uses_anonymous_args = 0
 393              		@ link register save eliminated.
 394 01a4 80B4     		push	{r7}
 395              		.cfi_def_cfa_offset 4
 396              		.cfi_offset 7, -4
 397 01a6 00AF     		add	r7, sp, #0
 398              		.cfi_def_cfa_register 7
 245:FreeRTOS/Source/portable/MemMang/heap_2.c **** 	/* This just exists to keep the linker quiet. */
 246:FreeRTOS/Source/portable/MemMang/heap_2.c **** }
 399              		.loc 1 246 0
 400 01a8 00BF     		nop
 401 01aa BD46     		mov	sp, r7
 402              		.cfi_def_cfa_register 13
 403              		@ sp needed
 404 01ac 80BC     		pop	{r7}
 405              		.cfi_restore 7
 406              		.cfi_def_cfa_offset 0
 407 01ae 7047     		bx	lr
 408              		.cfi_endproc
 409              	.LFE8:
 410              		.size	vPortInitialiseBlocks, .-vPortInitialiseBlocks
 411              		.align	1
 412              		.syntax unified
 413              		.thumb
 414              		.thumb_func
 415              		.fpu softvfp
 416              		.type	prvHeapInit, %function
 417              	prvHeapInit:
 418              	.LFB9:
 247:FreeRTOS/Source/portable/MemMang/heap_2.c **** /*-----------------------------------------------------------*/
 248:FreeRTOS/Source/portable/MemMang/heap_2.c **** 
 249:FreeRTOS/Source/portable/MemMang/heap_2.c **** static void prvHeapInit( void )
 250:FreeRTOS/Source/portable/MemMang/heap_2.c **** {
 419              		.loc 1 250 0
 420              		.cfi_startproc
 421              		@ args = 0, pretend = 0, frame = 8
 422              		@ frame_needed = 1, uses_anonymous_args = 0
 423              		@ link register save eliminated.
 424 01b0 80B4     		push	{r7}
 425              		.cfi_def_cfa_offset 4
 426              		.cfi_offset 7, -4
ARM GAS  /tmp/ccU5WO6B.s 			page 13


 427 01b2 83B0     		sub	sp, sp, #12
 428              		.cfi_def_cfa_offset 16
 429 01b4 00AF     		add	r7, sp, #0
 430              		.cfi_def_cfa_register 7
 251:FreeRTOS/Source/portable/MemMang/heap_2.c **** BlockLink_t *pxFirstFreeBlock;
 252:FreeRTOS/Source/portable/MemMang/heap_2.c **** uint8_t *pucAlignedHeap;
 253:FreeRTOS/Source/portable/MemMang/heap_2.c **** 
 254:FreeRTOS/Source/portable/MemMang/heap_2.c **** 	/* Ensure the heap starts on a correctly aligned boundary. */
 255:FreeRTOS/Source/portable/MemMang/heap_2.c **** 	pucAlignedHeap = ( uint8_t * ) ( ( ( portPOINTER_SIZE_TYPE ) &ucHeap[ portBYTE_ALIGNMENT ] ) & ( ~
 431              		.loc 1 255 0
 432 01b6 0F4B     		ldr	r3, .L27
 433 01b8 23F00703 		bic	r3, r3, #7
 434 01bc 7B60     		str	r3, [r7, #4]
 256:FreeRTOS/Source/portable/MemMang/heap_2.c **** 
 257:FreeRTOS/Source/portable/MemMang/heap_2.c **** 	/* xStart is used to hold a pointer to the first item in the list of free
 258:FreeRTOS/Source/portable/MemMang/heap_2.c **** 	blocks.  The void cast is used to prevent compiler warnings. */
 259:FreeRTOS/Source/portable/MemMang/heap_2.c **** 	xStart.pxNextFreeBlock = ( void * ) pucAlignedHeap;
 435              		.loc 1 259 0
 436 01be 0E4A     		ldr	r2, .L27+4
 437 01c0 7B68     		ldr	r3, [r7, #4]
 438 01c2 1360     		str	r3, [r2]
 260:FreeRTOS/Source/portable/MemMang/heap_2.c **** 	xStart.xBlockSize = ( size_t ) 0;
 439              		.loc 1 260 0
 440 01c4 0C4B     		ldr	r3, .L27+4
 441 01c6 0022     		movs	r2, #0
 442 01c8 5A60     		str	r2, [r3, #4]
 261:FreeRTOS/Source/portable/MemMang/heap_2.c **** 
 262:FreeRTOS/Source/portable/MemMang/heap_2.c **** 	/* xEnd is used to mark the end of the list of free blocks. */
 263:FreeRTOS/Source/portable/MemMang/heap_2.c **** 	xEnd.xBlockSize = configADJUSTED_HEAP_SIZE;
 443              		.loc 1 263 0
 444 01ca 0C4B     		ldr	r3, .L27+8
 445 01cc 41F6F872 		movw	r2, #8184
 446 01d0 5A60     		str	r2, [r3, #4]
 264:FreeRTOS/Source/portable/MemMang/heap_2.c **** 	xEnd.pxNextFreeBlock = NULL;
 447              		.loc 1 264 0
 448 01d2 0A4B     		ldr	r3, .L27+8
 449 01d4 0022     		movs	r2, #0
 450 01d6 1A60     		str	r2, [r3]
 265:FreeRTOS/Source/portable/MemMang/heap_2.c **** 
 266:FreeRTOS/Source/portable/MemMang/heap_2.c **** 	/* To start with there is a single free block that is sized to take up the
 267:FreeRTOS/Source/portable/MemMang/heap_2.c **** 	entire heap space. */
 268:FreeRTOS/Source/portable/MemMang/heap_2.c **** 	pxFirstFreeBlock = ( void * ) pucAlignedHeap;
 451              		.loc 1 268 0
 452 01d8 7B68     		ldr	r3, [r7, #4]
 453 01da 3B60     		str	r3, [r7]
 269:FreeRTOS/Source/portable/MemMang/heap_2.c **** 	pxFirstFreeBlock->xBlockSize = configADJUSTED_HEAP_SIZE;
 454              		.loc 1 269 0
 455 01dc 3B68     		ldr	r3, [r7]
 456 01de 41F6F872 		movw	r2, #8184
 457 01e2 5A60     		str	r2, [r3, #4]
 270:FreeRTOS/Source/portable/MemMang/heap_2.c **** 	pxFirstFreeBlock->pxNextFreeBlock = &xEnd;
 458              		.loc 1 270 0
 459 01e4 3B68     		ldr	r3, [r7]
 460 01e6 054A     		ldr	r2, .L27+8
 461 01e8 1A60     		str	r2, [r3]
 271:FreeRTOS/Source/portable/MemMang/heap_2.c **** }
 462              		.loc 1 271 0
ARM GAS  /tmp/ccU5WO6B.s 			page 14


 463 01ea 00BF     		nop
 464 01ec 0C37     		adds	r7, r7, #12
 465              		.cfi_def_cfa_offset 4
 466 01ee BD46     		mov	sp, r7
 467              		.cfi_def_cfa_register 13
 468              		@ sp needed
 469 01f0 80BC     		pop	{r7}
 470              		.cfi_restore 7
 471              		.cfi_def_cfa_offset 0
 472 01f2 7047     		bx	lr
 473              	.L28:
 474              		.align	2
 475              	.L27:
 476 01f4 08000000 		.word	ucHeap+8
 477 01f8 00200000 		.word	xStart
 478 01fc 08200000 		.word	xEnd
 479              		.cfi_endproc
 480              	.LFE9:
 481              		.size	prvHeapInit, .-prvHeapInit
 482              		.bss
 483              		.align	2
 484              	xHeapHasBeenInitialised.4857:
 485 2010 00000000 		.space	4
 486              		.size	xHeapHasBeenInitialised.4857, 4
 487              		.text
 488              	.Letext0:
 489              		.file 2 "/usr/lib/gcc/arm-none-eabi/6.3.1/include/stddef.h"
 490              		.file 3 "/usr/include/newlib/machine/_default_types.h"
 491              		.file 4 "/usr/include/newlib/sys/lock.h"
 492              		.file 5 "/usr/include/newlib/sys/_types.h"
 493              		.file 6 "/usr/include/newlib/sys/reent.h"
 494              		.file 7 "/usr/include/newlib/sys/_stdint.h"
 495              		.file 8 "include/FreeRTOSConfig.h"
 496              		.file 9 "FreeRTOS/Source/portable/GCC/ARM_CM3/portmacro.h"
 497              		.section	.debug_info,"",%progbits
 498              	.Ldebug_info0:
 499 0000 DB0A0000 		.4byte	0xadb
 500 0004 0400     		.2byte	0x4
 501 0006 00000000 		.4byte	.Ldebug_abbrev0
 502 000a 04       		.byte	0x4
 503 000b 01       		.uleb128 0x1
 504 000c 82030000 		.4byte	.LASF149
 505 0010 0C       		.byte	0xc
 506 0011 56050000 		.4byte	.LASF150
 507 0015 10020000 		.4byte	.LASF151
 508 0019 00000000 		.4byte	.Ltext0
 509 001d 00020000 		.4byte	.Letext0-.Ltext0
 510 0021 00000000 		.4byte	.Ldebug_line0
 511 0025 02       		.uleb128 0x2
 512 0026 12000000 		.4byte	.LASF2
 513 002a 02       		.byte	0x2
 514 002b D8       		.byte	0xd8
 515 002c 30000000 		.4byte	0x30
 516 0030 03       		.uleb128 0x3
 517 0031 04       		.byte	0x4
 518 0032 07       		.byte	0x7
 519 0033 45020000 		.4byte	.LASF0
ARM GAS  /tmp/ccU5WO6B.s 			page 15


 520 0037 04       		.uleb128 0x4
 521 0038 04       		.byte	0x4
 522 0039 05       		.byte	0x5
 523 003a 696E7400 		.ascii	"int\000"
 524 003e 03       		.uleb128 0x3
 525 003f 01       		.byte	0x1
 526 0040 06       		.byte	0x6
 527 0041 E2000000 		.4byte	.LASF1
 528 0045 02       		.uleb128 0x2
 529 0046 3C000000 		.4byte	.LASF3
 530 004a 03       		.byte	0x3
 531 004b 1D       		.byte	0x1d
 532 004c 50000000 		.4byte	0x50
 533 0050 03       		.uleb128 0x3
 534 0051 01       		.byte	0x1
 535 0052 08       		.byte	0x8
 536 0053 21040000 		.4byte	.LASF4
 537 0057 03       		.uleb128 0x3
 538 0058 02       		.byte	0x2
 539 0059 05       		.byte	0x5
 540 005a 52040000 		.4byte	.LASF5
 541 005e 02       		.uleb128 0x2
 542 005f 4B050000 		.4byte	.LASF6
 543 0063 03       		.byte	0x3
 544 0064 2B       		.byte	0x2b
 545 0065 69000000 		.4byte	0x69
 546 0069 03       		.uleb128 0x3
 547 006a 02       		.byte	0x2
 548 006b 07       		.byte	0x7
 549 006c A4020000 		.4byte	.LASF7
 550 0070 03       		.uleb128 0x3
 551 0071 04       		.byte	0x4
 552 0072 05       		.byte	0x5
 553 0073 2F010000 		.4byte	.LASF8
 554 0077 02       		.uleb128 0x2
 555 0078 BE010000 		.4byte	.LASF9
 556 007c 03       		.byte	0x3
 557 007d 41       		.byte	0x41
 558 007e 82000000 		.4byte	0x82
 559 0082 03       		.uleb128 0x3
 560 0083 04       		.byte	0x4
 561 0084 07       		.byte	0x7
 562 0085 79020000 		.4byte	.LASF10
 563 0089 03       		.uleb128 0x3
 564 008a 08       		.byte	0x8
 565 008b 05       		.byte	0x5
 566 008c D4000000 		.4byte	.LASF11
 567 0090 03       		.uleb128 0x3
 568 0091 08       		.byte	0x8
 569 0092 07       		.byte	0x7
 570 0093 73000000 		.4byte	.LASF12
 571 0097 02       		.uleb128 0x2
 572 0098 FC030000 		.4byte	.LASF13
 573 009c 04       		.byte	0x4
 574 009d 07       		.byte	0x7
 575 009e 37000000 		.4byte	0x37
 576 00a2 02       		.uleb128 0x2
ARM GAS  /tmp/ccU5WO6B.s 			page 16


 577 00a3 7B030000 		.4byte	.LASF14
 578 00a7 05       		.byte	0x5
 579 00a8 2C       		.byte	0x2c
 580 00a9 70000000 		.4byte	0x70
 581 00ad 02       		.uleb128 0x2
 582 00ae 29050000 		.4byte	.LASF15
 583 00b2 05       		.byte	0x5
 584 00b3 72       		.byte	0x72
 585 00b4 70000000 		.4byte	0x70
 586 00b8 05       		.uleb128 0x5
 587 00b9 E7020000 		.4byte	.LASF16
 588 00bd 02       		.byte	0x2
 589 00be 6501     		.2byte	0x165
 590 00c0 30000000 		.4byte	0x30
 591 00c4 06       		.uleb128 0x6
 592 00c5 04       		.byte	0x4
 593 00c6 05       		.byte	0x5
 594 00c7 A6       		.byte	0xa6
 595 00c8 E3000000 		.4byte	0xe3
 596 00cc 07       		.uleb128 0x7
 597 00cd E1020000 		.4byte	.LASF17
 598 00d1 05       		.byte	0x5
 599 00d2 A8       		.byte	0xa8
 600 00d3 B8000000 		.4byte	0xb8
 601 00d7 07       		.uleb128 0x7
 602 00d8 52020000 		.4byte	.LASF18
 603 00dc 05       		.byte	0x5
 604 00dd A9       		.byte	0xa9
 605 00de E3000000 		.4byte	0xe3
 606 00e2 00       		.byte	0
 607 00e3 08       		.uleb128 0x8
 608 00e4 50000000 		.4byte	0x50
 609 00e8 F3000000 		.4byte	0xf3
 610 00ec 09       		.uleb128 0x9
 611 00ed F3000000 		.4byte	0xf3
 612 00f1 03       		.byte	0x3
 613 00f2 00       		.byte	0
 614 00f3 03       		.uleb128 0x3
 615 00f4 04       		.byte	0x4
 616 00f5 07       		.byte	0x7
 617 00f6 25030000 		.4byte	.LASF19
 618 00fa 0A       		.uleb128 0xa
 619 00fb 08       		.byte	0x8
 620 00fc 05       		.byte	0x5
 621 00fd A3       		.byte	0xa3
 622 00fe 1B010000 		.4byte	0x11b
 623 0102 0B       		.uleb128 0xb
 624 0103 07050000 		.4byte	.LASF20
 625 0107 05       		.byte	0x5
 626 0108 A5       		.byte	0xa5
 627 0109 37000000 		.4byte	0x37
 628 010d 00       		.byte	0
 629 010e 0B       		.uleb128 0xb
 630 010f 0F050000 		.4byte	.LASF21
 631 0113 05       		.byte	0x5
 632 0114 AA       		.byte	0xaa
 633 0115 C4000000 		.4byte	0xc4
ARM GAS  /tmp/ccU5WO6B.s 			page 17


 634 0119 04       		.byte	0x4
 635 011a 00       		.byte	0
 636 011b 02       		.uleb128 0x2
 637 011c 7A040000 		.4byte	.LASF22
 638 0120 05       		.byte	0x5
 639 0121 AB       		.byte	0xab
 640 0122 FA000000 		.4byte	0xfa
 641 0126 02       		.uleb128 0x2
 642 0127 E8010000 		.4byte	.LASF23
 643 012b 05       		.byte	0x5
 644 012c AF       		.byte	0xaf
 645 012d 97000000 		.4byte	0x97
 646 0131 0C       		.uleb128 0xc
 647 0132 04       		.byte	0x4
 648 0133 0D       		.uleb128 0xd
 649 0134 04       		.byte	0x4
 650 0135 39010000 		.4byte	0x139
 651 0139 03       		.uleb128 0x3
 652 013a 01       		.byte	0x1
 653 013b 08       		.byte	0x8
 654 013c 38050000 		.4byte	.LASF24
 655 0140 0E       		.uleb128 0xe
 656 0141 39010000 		.4byte	0x139
 657 0145 02       		.uleb128 0x2
 658 0146 BA050000 		.4byte	.LASF25
 659 014a 06       		.byte	0x6
 660 014b 16       		.byte	0x16
 661 014c 82000000 		.4byte	0x82
 662 0150 0F       		.uleb128 0xf
 663 0151 F9010000 		.4byte	.LASF30
 664 0155 18       		.byte	0x18
 665 0156 06       		.byte	0x6
 666 0157 2D       		.byte	0x2d
 667 0158 A3010000 		.4byte	0x1a3
 668 015c 0B       		.uleb128 0xb
 669 015d 8E050000 		.4byte	.LASF26
 670 0161 06       		.byte	0x6
 671 0162 2F       		.byte	0x2f
 672 0163 A3010000 		.4byte	0x1a3
 673 0167 00       		.byte	0
 674 0168 10       		.uleb128 0x10
 675 0169 5F6B00   		.ascii	"_k\000"
 676 016c 06       		.byte	0x6
 677 016d 30       		.byte	0x30
 678 016e 37000000 		.4byte	0x37
 679 0172 04       		.byte	0x4
 680 0173 0B       		.uleb128 0xb
 681 0174 F2040000 		.4byte	.LASF27
 682 0178 06       		.byte	0x6
 683 0179 30       		.byte	0x30
 684 017a 37000000 		.4byte	0x37
 685 017e 08       		.byte	0x8
 686 017f 0B       		.uleb128 0xb
 687 0180 C9010000 		.4byte	.LASF28
 688 0184 06       		.byte	0x6
 689 0185 30       		.byte	0x30
 690 0186 37000000 		.4byte	0x37
ARM GAS  /tmp/ccU5WO6B.s 			page 18


 691 018a 0C       		.byte	0xc
 692 018b 0B       		.uleb128 0xb
 693 018c 16060000 		.4byte	.LASF29
 694 0190 06       		.byte	0x6
 695 0191 30       		.byte	0x30
 696 0192 37000000 		.4byte	0x37
 697 0196 10       		.byte	0x10
 698 0197 10       		.uleb128 0x10
 699 0198 5F7800   		.ascii	"_x\000"
 700 019b 06       		.byte	0x6
 701 019c 31       		.byte	0x31
 702 019d A9010000 		.4byte	0x1a9
 703 01a1 14       		.byte	0x14
 704 01a2 00       		.byte	0
 705 01a3 0D       		.uleb128 0xd
 706 01a4 04       		.byte	0x4
 707 01a5 50010000 		.4byte	0x150
 708 01a9 08       		.uleb128 0x8
 709 01aa 45010000 		.4byte	0x145
 710 01ae B9010000 		.4byte	0x1b9
 711 01b2 09       		.uleb128 0x9
 712 01b3 F3000000 		.4byte	0xf3
 713 01b7 00       		.byte	0
 714 01b8 00       		.byte	0
 715 01b9 0F       		.uleb128 0xf
 716 01ba 40020000 		.4byte	.LASF31
 717 01be 24       		.byte	0x24
 718 01bf 06       		.byte	0x6
 719 01c0 35       		.byte	0x35
 720 01c1 32020000 		.4byte	0x232
 721 01c5 0B       		.uleb128 0xb
 722 01c6 BB000000 		.4byte	.LASF32
 723 01ca 06       		.byte	0x6
 724 01cb 37       		.byte	0x37
 725 01cc 37000000 		.4byte	0x37
 726 01d0 00       		.byte	0
 727 01d1 0B       		.uleb128 0xb
 728 01d2 42050000 		.4byte	.LASF33
 729 01d6 06       		.byte	0x6
 730 01d7 38       		.byte	0x38
 731 01d8 37000000 		.4byte	0x37
 732 01dc 04       		.byte	0x4
 733 01dd 0B       		.uleb128 0xb
 734 01de 02010000 		.4byte	.LASF34
 735 01e2 06       		.byte	0x6
 736 01e3 39       		.byte	0x39
 737 01e4 37000000 		.4byte	0x37
 738 01e8 08       		.byte	0x8
 739 01e9 0B       		.uleb128 0xb
 740 01ea 8F060000 		.4byte	.LASF35
 741 01ee 06       		.byte	0x6
 742 01ef 3A       		.byte	0x3a
 743 01f0 37000000 		.4byte	0x37
 744 01f4 0C       		.byte	0xc
 745 01f5 0B       		.uleb128 0xb
 746 01f6 58030000 		.4byte	.LASF36
 747 01fa 06       		.byte	0x6
ARM GAS  /tmp/ccU5WO6B.s 			page 19


 748 01fb 3B       		.byte	0x3b
 749 01fc 37000000 		.4byte	0x37
 750 0200 10       		.byte	0x10
 751 0201 0B       		.uleb128 0xb
 752 0202 1B030000 		.4byte	.LASF37
 753 0206 06       		.byte	0x6
 754 0207 3C       		.byte	0x3c
 755 0208 37000000 		.4byte	0x37
 756 020c 14       		.byte	0x14
 757 020d 0B       		.uleb128 0xb
 758 020e 1B060000 		.4byte	.LASF38
 759 0212 06       		.byte	0x6
 760 0213 3D       		.byte	0x3d
 761 0214 37000000 		.4byte	0x37
 762 0218 18       		.byte	0x18
 763 0219 0B       		.uleb128 0xb
 764 021a 5C040000 		.4byte	.LASF39
 765 021e 06       		.byte	0x6
 766 021f 3E       		.byte	0x3e
 767 0220 37000000 		.4byte	0x37
 768 0224 1C       		.byte	0x1c
 769 0225 0B       		.uleb128 0xb
 770 0226 56060000 		.4byte	.LASF40
 771 022a 06       		.byte	0x6
 772 022b 3F       		.byte	0x3f
 773 022c 37000000 		.4byte	0x37
 774 0230 20       		.byte	0x20
 775 0231 00       		.byte	0
 776 0232 11       		.uleb128 0x11
 777 0233 11010000 		.4byte	.LASF41
 778 0237 0801     		.2byte	0x108
 779 0239 06       		.byte	0x6
 780 023a 48       		.byte	0x48
 781 023b 72020000 		.4byte	0x272
 782 023f 0B       		.uleb128 0xb
 783 0240 B1010000 		.4byte	.LASF42
 784 0244 06       		.byte	0x6
 785 0245 49       		.byte	0x49
 786 0246 72020000 		.4byte	0x272
 787 024a 00       		.byte	0
 788 024b 0B       		.uleb128 0xb
 789 024c 00000000 		.4byte	.LASF43
 790 0250 06       		.byte	0x6
 791 0251 4A       		.byte	0x4a
 792 0252 72020000 		.4byte	0x272
 793 0256 80       		.byte	0x80
 794 0257 12       		.uleb128 0x12
 795 0258 A1050000 		.4byte	.LASF44
 796 025c 06       		.byte	0x6
 797 025d 4C       		.byte	0x4c
 798 025e 45010000 		.4byte	0x145
 799 0262 0001     		.2byte	0x100
 800 0264 12       		.uleb128 0x12
 801 0265 46010000 		.4byte	.LASF45
 802 0269 06       		.byte	0x6
 803 026a 4F       		.byte	0x4f
 804 026b 45010000 		.4byte	0x145
ARM GAS  /tmp/ccU5WO6B.s 			page 20


 805 026f 0401     		.2byte	0x104
 806 0271 00       		.byte	0
 807 0272 08       		.uleb128 0x8
 808 0273 31010000 		.4byte	0x131
 809 0277 82020000 		.4byte	0x282
 810 027b 09       		.uleb128 0x9
 811 027c F3000000 		.4byte	0xf3
 812 0280 1F       		.byte	0x1f
 813 0281 00       		.byte	0
 814 0282 11       		.uleb128 0x11
 815 0283 68030000 		.4byte	.LASF46
 816 0287 9001     		.2byte	0x190
 817 0289 06       		.byte	0x6
 818 028a 5B       		.byte	0x5b
 819 028b C0020000 		.4byte	0x2c0
 820 028f 0B       		.uleb128 0xb
 821 0290 8E050000 		.4byte	.LASF26
 822 0294 06       		.byte	0x6
 823 0295 5C       		.byte	0x5c
 824 0296 C0020000 		.4byte	0x2c0
 825 029a 00       		.byte	0
 826 029b 0B       		.uleb128 0xb
 827 029c C9040000 		.4byte	.LASF47
 828 02a0 06       		.byte	0x6
 829 02a1 5D       		.byte	0x5d
 830 02a2 37000000 		.4byte	0x37
 831 02a6 04       		.byte	0x4
 832 02a7 0B       		.uleb128 0xb
 833 02a8 B9010000 		.4byte	.LASF48
 834 02ac 06       		.byte	0x6
 835 02ad 5F       		.byte	0x5f
 836 02ae C6020000 		.4byte	0x2c6
 837 02b2 08       		.byte	0x8
 838 02b3 0B       		.uleb128 0xb
 839 02b4 11010000 		.4byte	.LASF41
 840 02b8 06       		.byte	0x6
 841 02b9 60       		.byte	0x60
 842 02ba 32020000 		.4byte	0x232
 843 02be 88       		.byte	0x88
 844 02bf 00       		.byte	0
 845 02c0 0D       		.uleb128 0xd
 846 02c1 04       		.byte	0x4
 847 02c2 82020000 		.4byte	0x282
 848 02c6 08       		.uleb128 0x8
 849 02c7 D6020000 		.4byte	0x2d6
 850 02cb D6020000 		.4byte	0x2d6
 851 02cf 09       		.uleb128 0x9
 852 02d0 F3000000 		.4byte	0xf3
 853 02d4 1F       		.byte	0x1f
 854 02d5 00       		.byte	0
 855 02d6 0D       		.uleb128 0xd
 856 02d7 04       		.byte	0x4
 857 02d8 DC020000 		.4byte	0x2dc
 858 02dc 13       		.uleb128 0x13
 859 02dd 0F       		.uleb128 0xf
 860 02de 66040000 		.4byte	.LASF49
 861 02e2 08       		.byte	0x8
ARM GAS  /tmp/ccU5WO6B.s 			page 21


 862 02e3 06       		.byte	0x6
 863 02e4 73       		.byte	0x73
 864 02e5 02030000 		.4byte	0x302
 865 02e9 0B       		.uleb128 0xb
 866 02ea FC000000 		.4byte	.LASF50
 867 02ee 06       		.byte	0x6
 868 02ef 74       		.byte	0x74
 869 02f0 02030000 		.4byte	0x302
 870 02f4 00       		.byte	0
 871 02f5 0B       		.uleb128 0xb
 872 02f6 0C000000 		.4byte	.LASF51
 873 02fa 06       		.byte	0x6
 874 02fb 75       		.byte	0x75
 875 02fc 37000000 		.4byte	0x37
 876 0300 04       		.byte	0x4
 877 0301 00       		.byte	0
 878 0302 0D       		.uleb128 0xd
 879 0303 04       		.byte	0x4
 880 0304 50000000 		.4byte	0x50
 881 0308 0F       		.uleb128 0xf
 882 0309 85040000 		.4byte	.LASF52
 883 030d 68       		.byte	0x68
 884 030e 06       		.byte	0x6
 885 030f B3       		.byte	0xb3
 886 0310 32040000 		.4byte	0x432
 887 0314 10       		.uleb128 0x10
 888 0315 5F7000   		.ascii	"_p\000"
 889 0318 06       		.byte	0x6
 890 0319 B4       		.byte	0xb4
 891 031a 02030000 		.4byte	0x302
 892 031e 00       		.byte	0
 893 031f 10       		.uleb128 0x10
 894 0320 5F7200   		.ascii	"_r\000"
 895 0323 06       		.byte	0x6
 896 0324 B5       		.byte	0xb5
 897 0325 37000000 		.4byte	0x37
 898 0329 04       		.byte	0x4
 899 032a 10       		.uleb128 0x10
 900 032b 5F7700   		.ascii	"_w\000"
 901 032e 06       		.byte	0x6
 902 032f B6       		.byte	0xb6
 903 0330 37000000 		.4byte	0x37
 904 0334 08       		.byte	0x8
 905 0335 0B       		.uleb128 0xb
 906 0336 3F010000 		.4byte	.LASF53
 907 033a 06       		.byte	0x6
 908 033b B7       		.byte	0xb7
 909 033c 57000000 		.4byte	0x57
 910 0340 0C       		.byte	0xc
 911 0341 0B       		.uleb128 0xb
 912 0342 8B020000 		.4byte	.LASF54
 913 0346 06       		.byte	0x6
 914 0347 B8       		.byte	0xb8
 915 0348 57000000 		.4byte	0x57
 916 034c 0E       		.byte	0xe
 917 034d 10       		.uleb128 0x10
 918 034e 5F626600 		.ascii	"_bf\000"
ARM GAS  /tmp/ccU5WO6B.s 			page 22


 919 0352 06       		.byte	0x6
 920 0353 B9       		.byte	0xb9
 921 0354 DD020000 		.4byte	0x2dd
 922 0358 10       		.byte	0x10
 923 0359 0B       		.uleb128 0xb
 924 035a 8A000000 		.4byte	.LASF55
 925 035e 06       		.byte	0x6
 926 035f BA       		.byte	0xba
 927 0360 37000000 		.4byte	0x37
 928 0364 18       		.byte	0x18
 929 0365 0B       		.uleb128 0xb
 930 0366 1F010000 		.4byte	.LASF56
 931 036a 06       		.byte	0x6
 932 036b C1       		.byte	0xc1
 933 036c 31010000 		.4byte	0x131
 934 0370 1C       		.byte	0x1c
 935 0371 0B       		.uleb128 0xb
 936 0372 0E040000 		.4byte	.LASF57
 937 0376 06       		.byte	0x6
 938 0377 C3       		.byte	0xc3
 939 0378 8D050000 		.4byte	0x58d
 940 037c 20       		.byte	0x20
 941 037d 0B       		.uleb128 0xb
 942 037e 14030000 		.4byte	.LASF58
 943 0382 06       		.byte	0x6
 944 0383 C5       		.byte	0xc5
 945 0384 B7050000 		.4byte	0x5b7
 946 0388 24       		.byte	0x24
 947 0389 0B       		.uleb128 0xb
 948 038a 17050000 		.4byte	.LASF59
 949 038e 06       		.byte	0x6
 950 038f C8       		.byte	0xc8
 951 0390 DB050000 		.4byte	0x5db
 952 0394 28       		.byte	0x28
 953 0395 0B       		.uleb128 0xb
 954 0396 70060000 		.4byte	.LASF60
 955 039a 06       		.byte	0x6
 956 039b C9       		.byte	0xc9
 957 039c F5050000 		.4byte	0x5f5
 958 03a0 2C       		.byte	0x2c
 959 03a1 10       		.uleb128 0x10
 960 03a2 5F756200 		.ascii	"_ub\000"
 961 03a6 06       		.byte	0x6
 962 03a7 CC       		.byte	0xcc
 963 03a8 DD020000 		.4byte	0x2dd
 964 03ac 30       		.byte	0x30
 965 03ad 10       		.uleb128 0x10
 966 03ae 5F757000 		.ascii	"_up\000"
 967 03b2 06       		.byte	0x6
 968 03b3 CD       		.byte	0xcd
 969 03b4 02030000 		.4byte	0x302
 970 03b8 38       		.byte	0x38
 971 03b9 10       		.uleb128 0x10
 972 03ba 5F757200 		.ascii	"_ur\000"
 973 03be 06       		.byte	0x6
 974 03bf CE       		.byte	0xce
 975 03c0 37000000 		.4byte	0x37
ARM GAS  /tmp/ccU5WO6B.s 			page 23


 976 03c4 3C       		.byte	0x3c
 977 03c5 0B       		.uleb128 0xb
 978 03c6 F6000000 		.4byte	.LASF61
 979 03ca 06       		.byte	0x6
 980 03cb D1       		.byte	0xd1
 981 03cc FB050000 		.4byte	0x5fb
 982 03d0 40       		.byte	0x40
 983 03d1 0B       		.uleb128 0xb
 984 03d2 48060000 		.4byte	.LASF62
 985 03d6 06       		.byte	0x6
 986 03d7 D2       		.byte	0xd2
 987 03d8 0B060000 		.4byte	0x60b
 988 03dc 43       		.byte	0x43
 989 03dd 10       		.uleb128 0x10
 990 03de 5F6C6200 		.ascii	"_lb\000"
 991 03e2 06       		.byte	0x6
 992 03e3 D5       		.byte	0xd5
 993 03e4 DD020000 		.4byte	0x2dd
 994 03e8 44       		.byte	0x44
 995 03e9 0B       		.uleb128 0xb
 996 03ea 55010000 		.4byte	.LASF63
 997 03ee 06       		.byte	0x6
 998 03ef D8       		.byte	0xd8
 999 03f0 37000000 		.4byte	0x37
 1000 03f4 4C       		.byte	0x4c
 1001 03f5 0B       		.uleb128 0xb
 1002 03f6 8A010000 		.4byte	.LASF64
 1003 03fa 06       		.byte	0x6
 1004 03fb D9       		.byte	0xd9
 1005 03fc A2000000 		.4byte	0xa2
 1006 0400 50       		.byte	0x50
 1007 0401 0B       		.uleb128 0xb
 1008 0402 46000000 		.4byte	.LASF65
 1009 0406 06       		.byte	0x6
 1010 0407 DC       		.byte	0xdc
 1011 0408 50040000 		.4byte	0x450
 1012 040c 54       		.byte	0x54
 1013 040d 0B       		.uleb128 0xb
 1014 040e EE020000 		.4byte	.LASF66
 1015 0412 06       		.byte	0x6
 1016 0413 E0       		.byte	0xe0
 1017 0414 26010000 		.4byte	0x126
 1018 0418 58       		.byte	0x58
 1019 0419 0B       		.uleb128 0xb
 1020 041a 8D040000 		.4byte	.LASF67
 1021 041e 06       		.byte	0x6
 1022 041f E2       		.byte	0xe2
 1023 0420 1B010000 		.4byte	0x11b
 1024 0424 5C       		.byte	0x5c
 1025 0425 0B       		.uleb128 0xb
 1026 0426 F4020000 		.4byte	.LASF68
 1027 042a 06       		.byte	0x6
 1028 042b E3       		.byte	0xe3
 1029 042c 37000000 		.4byte	0x37
 1030 0430 64       		.byte	0x64
 1031 0431 00       		.byte	0
 1032 0432 14       		.uleb128 0x14
ARM GAS  /tmp/ccU5WO6B.s 			page 24


 1033 0433 37000000 		.4byte	0x37
 1034 0437 50040000 		.4byte	0x450
 1035 043b 15       		.uleb128 0x15
 1036 043c 50040000 		.4byte	0x450
 1037 0440 15       		.uleb128 0x15
 1038 0441 31010000 		.4byte	0x131
 1039 0445 15       		.uleb128 0x15
 1040 0446 33010000 		.4byte	0x133
 1041 044a 15       		.uleb128 0x15
 1042 044b 37000000 		.4byte	0x37
 1043 044f 00       		.byte	0
 1044 0450 0D       		.uleb128 0xd
 1045 0451 04       		.byte	0x4
 1046 0452 5B040000 		.4byte	0x45b
 1047 0456 0E       		.uleb128 0xe
 1048 0457 50040000 		.4byte	0x450
 1049 045b 16       		.uleb128 0x16
 1050 045c FA040000 		.4byte	.LASF69
 1051 0460 2804     		.2byte	0x428
 1052 0462 06       		.byte	0x6
 1053 0463 3802     		.2byte	0x238
 1054 0465 8D050000 		.4byte	0x58d
 1055 0469 17       		.uleb128 0x17
 1056 046a 31050000 		.4byte	.LASF70
 1057 046e 06       		.byte	0x6
 1058 046f 3A02     		.2byte	0x23a
 1059 0471 37000000 		.4byte	0x37
 1060 0475 00       		.byte	0
 1061 0476 17       		.uleb128 0x17
 1062 0477 4E010000 		.4byte	.LASF71
 1063 047b 06       		.byte	0x6
 1064 047c 3F02     		.2byte	0x23f
 1065 047e 62060000 		.4byte	0x662
 1066 0482 04       		.byte	0x4
 1067 0483 17       		.uleb128 0x17
 1068 0484 69020000 		.4byte	.LASF72
 1069 0488 06       		.byte	0x6
 1070 0489 3F02     		.2byte	0x23f
 1071 048b 62060000 		.4byte	0x662
 1072 048f 08       		.byte	0x8
 1073 0490 17       		.uleb128 0x17
 1074 0491 F1010000 		.4byte	.LASF73
 1075 0495 06       		.byte	0x6
 1076 0496 3F02     		.2byte	0x23f
 1077 0498 62060000 		.4byte	0x662
 1078 049c 0C       		.byte	0xc
 1079 049d 17       		.uleb128 0x17
 1080 049e C4040000 		.4byte	.LASF74
 1081 04a2 06       		.byte	0x6
 1082 04a3 4102     		.2byte	0x241
 1083 04a5 37000000 		.4byte	0x37
 1084 04a9 10       		.byte	0x10
 1085 04aa 17       		.uleb128 0x17
 1086 04ab 21000000 		.4byte	.LASF75
 1087 04af 06       		.byte	0x6
 1088 04b0 4202     		.2byte	0x242
 1089 04b2 44080000 		.4byte	0x844
ARM GAS  /tmp/ccU5WO6B.s 			page 25


 1090 04b6 14       		.byte	0x14
 1091 04b7 17       		.uleb128 0x17
 1092 04b8 E2050000 		.4byte	.LASF76
 1093 04bc 06       		.byte	0x6
 1094 04bd 4402     		.2byte	0x244
 1095 04bf 37000000 		.4byte	0x37
 1096 04c3 30       		.byte	0x30
 1097 04c4 17       		.uleb128 0x17
 1098 04c5 CE040000 		.4byte	.LASF77
 1099 04c9 06       		.byte	0x6
 1100 04ca 4502     		.2byte	0x245
 1101 04cc B1050000 		.4byte	0x5b1
 1102 04d0 34       		.byte	0x34
 1103 04d1 17       		.uleb128 0x17
 1104 04d2 70030000 		.4byte	.LASF78
 1105 04d6 06       		.byte	0x6
 1106 04d7 4702     		.2byte	0x247
 1107 04d9 37000000 		.4byte	0x37
 1108 04dd 38       		.byte	0x38
 1109 04de 17       		.uleb128 0x17
 1110 04df DE040000 		.4byte	.LASF79
 1111 04e3 06       		.byte	0x6
 1112 04e4 4902     		.2byte	0x249
 1113 04e6 5F080000 		.4byte	0x85f
 1114 04ea 3C       		.byte	0x3c
 1115 04eb 17       		.uleb128 0x17
 1116 04ec D9020000 		.4byte	.LASF80
 1117 04f0 06       		.byte	0x6
 1118 04f1 4C02     		.2byte	0x24c
 1119 04f3 A3010000 		.4byte	0x1a3
 1120 04f7 40       		.byte	0x40
 1121 04f8 17       		.uleb128 0x17
 1122 04f9 36020000 		.4byte	.LASF81
 1123 04fd 06       		.byte	0x6
 1124 04fe 4D02     		.2byte	0x24d
 1125 0500 37000000 		.4byte	0x37
 1126 0504 44       		.byte	0x44
 1127 0505 17       		.uleb128 0x17
 1128 0506 8A060000 		.4byte	.LASF82
 1129 050a 06       		.byte	0x6
 1130 050b 4E02     		.2byte	0x24e
 1131 050d A3010000 		.4byte	0x1a3
 1132 0511 48       		.byte	0x48
 1133 0512 17       		.uleb128 0x17
 1134 0513 E9030000 		.4byte	.LASF83
 1135 0517 06       		.byte	0x6
 1136 0518 4F02     		.2byte	0x24f
 1137 051a 65080000 		.4byte	0x865
 1138 051e 4C       		.byte	0x4c
 1139 051f 17       		.uleb128 0x17
 1140 0520 71020000 		.4byte	.LASF84
 1141 0524 06       		.byte	0x6
 1142 0525 5202     		.2byte	0x252
 1143 0527 37000000 		.4byte	0x37
 1144 052b 50       		.byte	0x50
 1145 052c 17       		.uleb128 0x17
 1146 052d 82010000 		.4byte	.LASF85
ARM GAS  /tmp/ccU5WO6B.s 			page 26


 1147 0531 06       		.byte	0x6
 1148 0532 5302     		.2byte	0x253
 1149 0534 33010000 		.4byte	0x133
 1150 0538 54       		.byte	0x54
 1151 0539 17       		.uleb128 0x17
 1152 053a 44040000 		.4byte	.LASF86
 1153 053e 06       		.byte	0x6
 1154 053f 7602     		.2byte	0x276
 1155 0541 22080000 		.4byte	0x822
 1156 0545 58       		.byte	0x58
 1157 0546 18       		.uleb128 0x18
 1158 0547 68030000 		.4byte	.LASF46
 1159 054b 06       		.byte	0x6
 1160 054c 7A02     		.2byte	0x27a
 1161 054e C0020000 		.4byte	0x2c0
 1162 0552 4801     		.2byte	0x148
 1163 0554 18       		.uleb128 0x18
 1164 0555 B7020000 		.4byte	.LASF87
 1165 0559 06       		.byte	0x6
 1166 055a 7B02     		.2byte	0x27b
 1167 055c 82020000 		.4byte	0x282
 1168 0560 4C01     		.2byte	0x14c
 1169 0562 18       		.uleb128 0x18
 1170 0563 3E060000 		.4byte	.LASF88
 1171 0567 06       		.byte	0x6
 1172 0568 7F02     		.2byte	0x27f
 1173 056a 76080000 		.4byte	0x876
 1174 056e DC02     		.2byte	0x2dc
 1175 0570 18       		.uleb128 0x18
 1176 0571 27010000 		.4byte	.LASF89
 1177 0575 06       		.byte	0x6
 1178 0576 8402     		.2byte	0x284
 1179 0578 27060000 		.4byte	0x627
 1180 057c E002     		.2byte	0x2e0
 1181 057e 18       		.uleb128 0x18
 1182 057f 0C010000 		.4byte	.LASF90
 1183 0583 06       		.byte	0x6
 1184 0584 8502     		.2byte	0x285
 1185 0586 82080000 		.4byte	0x882
 1186 058a EC02     		.2byte	0x2ec
 1187 058c 00       		.byte	0
 1188 058d 0D       		.uleb128 0xd
 1189 058e 04       		.byte	0x4
 1190 058f 32040000 		.4byte	0x432
 1191 0593 14       		.uleb128 0x14
 1192 0594 37000000 		.4byte	0x37
 1193 0598 B1050000 		.4byte	0x5b1
 1194 059c 15       		.uleb128 0x15
 1195 059d 50040000 		.4byte	0x450
 1196 05a1 15       		.uleb128 0x15
 1197 05a2 31010000 		.4byte	0x131
 1198 05a6 15       		.uleb128 0x15
 1199 05a7 B1050000 		.4byte	0x5b1
 1200 05ab 15       		.uleb128 0x15
 1201 05ac 37000000 		.4byte	0x37
 1202 05b0 00       		.byte	0
 1203 05b1 0D       		.uleb128 0xd
ARM GAS  /tmp/ccU5WO6B.s 			page 27


 1204 05b2 04       		.byte	0x4
 1205 05b3 40010000 		.4byte	0x140
 1206 05b7 0D       		.uleb128 0xd
 1207 05b8 04       		.byte	0x4
 1208 05b9 93050000 		.4byte	0x593
 1209 05bd 14       		.uleb128 0x14
 1210 05be AD000000 		.4byte	0xad
 1211 05c2 DB050000 		.4byte	0x5db
 1212 05c6 15       		.uleb128 0x15
 1213 05c7 50040000 		.4byte	0x450
 1214 05cb 15       		.uleb128 0x15
 1215 05cc 31010000 		.4byte	0x131
 1216 05d0 15       		.uleb128 0x15
 1217 05d1 AD000000 		.4byte	0xad
 1218 05d5 15       		.uleb128 0x15
 1219 05d6 37000000 		.4byte	0x37
 1220 05da 00       		.byte	0
 1221 05db 0D       		.uleb128 0xd
 1222 05dc 04       		.byte	0x4
 1223 05dd BD050000 		.4byte	0x5bd
 1224 05e1 14       		.uleb128 0x14
 1225 05e2 37000000 		.4byte	0x37
 1226 05e6 F5050000 		.4byte	0x5f5
 1227 05ea 15       		.uleb128 0x15
 1228 05eb 50040000 		.4byte	0x450
 1229 05ef 15       		.uleb128 0x15
 1230 05f0 31010000 		.4byte	0x131
 1231 05f4 00       		.byte	0
 1232 05f5 0D       		.uleb128 0xd
 1233 05f6 04       		.byte	0x4
 1234 05f7 E1050000 		.4byte	0x5e1
 1235 05fb 08       		.uleb128 0x8
 1236 05fc 50000000 		.4byte	0x50
 1237 0600 0B060000 		.4byte	0x60b
 1238 0604 09       		.uleb128 0x9
 1239 0605 F3000000 		.4byte	0xf3
 1240 0609 02       		.byte	0x2
 1241 060a 00       		.byte	0
 1242 060b 08       		.uleb128 0x8
 1243 060c 50000000 		.4byte	0x50
 1244 0610 1B060000 		.4byte	0x61b
 1245 0614 09       		.uleb128 0x9
 1246 0615 F3000000 		.4byte	0xf3
 1247 0619 00       		.byte	0
 1248 061a 00       		.byte	0
 1249 061b 05       		.uleb128 0x5
 1250 061c 73040000 		.4byte	.LASF91
 1251 0620 06       		.byte	0x6
 1252 0621 1D01     		.2byte	0x11d
 1253 0623 08030000 		.4byte	0x308
 1254 0627 19       		.uleb128 0x19
 1255 0628 25060000 		.4byte	.LASF92
 1256 062c 0C       		.byte	0xc
 1257 062d 06       		.byte	0x6
 1258 062e 2101     		.2byte	0x121
 1259 0630 5C060000 		.4byte	0x65c
 1260 0634 17       		.uleb128 0x17
ARM GAS  /tmp/ccU5WO6B.s 			page 28


 1261 0635 8E050000 		.4byte	.LASF26
 1262 0639 06       		.byte	0x6
 1263 063a 2301     		.2byte	0x123
 1264 063c 5C060000 		.4byte	0x65c
 1265 0640 00       		.byte	0
 1266 0641 17       		.uleb128 0x17
 1267 0642 9D020000 		.4byte	.LASF93
 1268 0646 06       		.byte	0x6
 1269 0647 2401     		.2byte	0x124
 1270 0649 37000000 		.4byte	0x37
 1271 064d 04       		.byte	0x4
 1272 064e 17       		.uleb128 0x17
 1273 064f 6D040000 		.4byte	.LASF94
 1274 0653 06       		.byte	0x6
 1275 0654 2501     		.2byte	0x125
 1276 0656 62060000 		.4byte	0x662
 1277 065a 08       		.byte	0x8
 1278 065b 00       		.byte	0
 1279 065c 0D       		.uleb128 0xd
 1280 065d 04       		.byte	0x4
 1281 065e 27060000 		.4byte	0x627
 1282 0662 0D       		.uleb128 0xd
 1283 0663 04       		.byte	0x4
 1284 0664 1B060000 		.4byte	0x61b
 1285 0668 19       		.uleb128 0x19
 1286 0669 19000000 		.4byte	.LASF95
 1287 066d 0E       		.byte	0xe
 1288 066e 06       		.byte	0x6
 1289 066f 3D01     		.2byte	0x13d
 1290 0671 9D060000 		.4byte	0x69d
 1291 0675 17       		.uleb128 0x17
 1292 0676 01050000 		.4byte	.LASF96
 1293 067a 06       		.byte	0x6
 1294 067b 3E01     		.2byte	0x13e
 1295 067d 9D060000 		.4byte	0x69d
 1296 0681 00       		.byte	0
 1297 0682 17       		.uleb128 0x17
 1298 0683 88050000 		.4byte	.LASF97
 1299 0687 06       		.byte	0x6
 1300 0688 3F01     		.2byte	0x13f
 1301 068a 9D060000 		.4byte	0x69d
 1302 068e 06       		.byte	0x6
 1303 068f 17       		.uleb128 0x17
 1304 0690 AA050000 		.4byte	.LASF98
 1305 0694 06       		.byte	0x6
 1306 0695 4001     		.2byte	0x140
 1307 0697 69000000 		.4byte	0x69
 1308 069b 0C       		.byte	0xc
 1309 069c 00       		.byte	0
 1310 069d 08       		.uleb128 0x8
 1311 069e 69000000 		.4byte	0x69
 1312 06a2 AD060000 		.4byte	0x6ad
 1313 06a6 09       		.uleb128 0x9
 1314 06a7 F3000000 		.4byte	0xf3
 1315 06ab 02       		.byte	0x2
 1316 06ac 00       		.byte	0
 1317 06ad 1A       		.uleb128 0x1a
ARM GAS  /tmp/ccU5WO6B.s 			page 29


 1318 06ae D0       		.byte	0xd0
 1319 06af 06       		.byte	0x6
 1320 06b0 5702     		.2byte	0x257
 1321 06b2 AE070000 		.4byte	0x7ae
 1322 06b6 17       		.uleb128 0x17
 1323 06b7 09060000 		.4byte	.LASF99
 1324 06bb 06       		.byte	0x6
 1325 06bc 5902     		.2byte	0x259
 1326 06be 30000000 		.4byte	0x30
 1327 06c2 00       		.byte	0
 1328 06c3 17       		.uleb128 0x17
 1329 06c4 94050000 		.4byte	.LASF100
 1330 06c8 06       		.byte	0x6
 1331 06c9 5A02     		.2byte	0x25a
 1332 06cb 33010000 		.4byte	0x133
 1333 06cf 04       		.byte	0x4
 1334 06d0 17       		.uleb128 0x17
 1335 06d1 CC020000 		.4byte	.LASF101
 1336 06d5 06       		.byte	0x6
 1337 06d6 5B02     		.2byte	0x25b
 1338 06d8 AE070000 		.4byte	0x7ae
 1339 06dc 08       		.byte	0x8
 1340 06dd 17       		.uleb128 0x17
 1341 06de 61060000 		.4byte	.LASF102
 1342 06e2 06       		.byte	0x6
 1343 06e3 5C02     		.2byte	0x25c
 1344 06e5 B9010000 		.4byte	0x1b9
 1345 06e9 24       		.byte	0x24
 1346 06ea 17       		.uleb128 0x17
 1347 06eb 01020000 		.4byte	.LASF103
 1348 06ef 06       		.byte	0x6
 1349 06f0 5D02     		.2byte	0x25d
 1350 06f2 37000000 		.4byte	0x37
 1351 06f6 48       		.byte	0x48
 1352 06f7 17       		.uleb128 0x17
 1353 06f8 96040000 		.4byte	.LASF104
 1354 06fc 06       		.byte	0x6
 1355 06fd 5E02     		.2byte	0x25e
 1356 06ff 90000000 		.4byte	0x90
 1357 0703 50       		.byte	0x50
 1358 0704 17       		.uleb128 0x17
 1359 0705 77060000 		.4byte	.LASF105
 1360 0709 06       		.byte	0x6
 1361 070a 5F02     		.2byte	0x25f
 1362 070c 68060000 		.4byte	0x668
 1363 0710 58       		.byte	0x58
 1364 0711 17       		.uleb128 0x17
 1365 0712 B7040000 		.4byte	.LASF106
 1366 0716 06       		.byte	0x6
 1367 0717 6002     		.2byte	0x260
 1368 0719 1B010000 		.4byte	0x11b
 1369 071d 68       		.byte	0x68
 1370 071e 17       		.uleb128 0x17
 1371 071f 7C060000 		.4byte	.LASF107
 1372 0723 06       		.byte	0x6
 1373 0724 6102     		.2byte	0x261
 1374 0726 1B010000 		.4byte	0x11b
ARM GAS  /tmp/ccU5WO6B.s 			page 30


 1375 072a 70       		.byte	0x70
 1376 072b 17       		.uleb128 0x17
 1377 072c AD000000 		.4byte	.LASF108
 1378 0730 06       		.byte	0x6
 1379 0731 6202     		.2byte	0x262
 1380 0733 1B010000 		.4byte	0x11b
 1381 0737 78       		.byte	0x78
 1382 0738 17       		.uleb128 0x17
 1383 0739 34060000 		.4byte	.LASF109
 1384 073d 06       		.byte	0x6
 1385 073e 6302     		.2byte	0x263
 1386 0740 BE070000 		.4byte	0x7be
 1387 0744 80       		.byte	0x80
 1388 0745 17       		.uleb128 0x17
 1389 0746 C0020000 		.4byte	.LASF110
 1390 074a 06       		.byte	0x6
 1391 074b 6402     		.2byte	0x264
 1392 074d CE070000 		.4byte	0x7ce
 1393 0751 88       		.byte	0x88
 1394 0752 17       		.uleb128 0x17
 1395 0753 C2050000 		.4byte	.LASF111
 1396 0757 06       		.byte	0x6
 1397 0758 6502     		.2byte	0x265
 1398 075a 37000000 		.4byte	0x37
 1399 075e A0       		.byte	0xa0
 1400 075f 17       		.uleb128 0x17
 1401 0760 A3010000 		.4byte	.LASF112
 1402 0764 06       		.byte	0x6
 1403 0765 6602     		.2byte	0x266
 1404 0767 1B010000 		.4byte	0x11b
 1405 076b A4       		.byte	0xa4
 1406 076c 17       		.uleb128 0x17
 1407 076d 9E000000 		.4byte	.LASF113
 1408 0771 06       		.byte	0x6
 1409 0772 6702     		.2byte	0x267
 1410 0774 1B010000 		.4byte	0x11b
 1411 0778 AC       		.byte	0xac
 1412 0779 17       		.uleb128 0x17
 1413 077a 92010000 		.4byte	.LASF114
 1414 077e 06       		.byte	0x6
 1415 077f 6802     		.2byte	0x268
 1416 0781 1B010000 		.4byte	0x11b
 1417 0785 B4       		.byte	0xb4
 1418 0786 17       		.uleb128 0x17
 1419 0787 4C000000 		.4byte	.LASF115
 1420 078b 06       		.byte	0x6
 1421 078c 6902     		.2byte	0x269
 1422 078e 1B010000 		.4byte	0x11b
 1423 0792 BC       		.byte	0xbc
 1424 0793 17       		.uleb128 0x17
 1425 0794 5B000000 		.4byte	.LASF116
 1426 0798 06       		.byte	0x6
 1427 0799 6A02     		.2byte	0x26a
 1428 079b 1B010000 		.4byte	0x11b
 1429 079f C4       		.byte	0xc4
 1430 07a0 17       		.uleb128 0x17
 1431 07a1 49040000 		.4byte	.LASF117
ARM GAS  /tmp/ccU5WO6B.s 			page 31


 1432 07a5 06       		.byte	0x6
 1433 07a6 6B02     		.2byte	0x26b
 1434 07a8 37000000 		.4byte	0x37
 1435 07ac CC       		.byte	0xcc
 1436 07ad 00       		.byte	0
 1437 07ae 08       		.uleb128 0x8
 1438 07af 39010000 		.4byte	0x139
 1439 07b3 BE070000 		.4byte	0x7be
 1440 07b7 09       		.uleb128 0x9
 1441 07b8 F3000000 		.4byte	0xf3
 1442 07bc 19       		.byte	0x19
 1443 07bd 00       		.byte	0
 1444 07be 08       		.uleb128 0x8
 1445 07bf 39010000 		.4byte	0x139
 1446 07c3 CE070000 		.4byte	0x7ce
 1447 07c7 09       		.uleb128 0x9
 1448 07c8 F3000000 		.4byte	0xf3
 1449 07cc 07       		.byte	0x7
 1450 07cd 00       		.byte	0
 1451 07ce 08       		.uleb128 0x8
 1452 07cf 39010000 		.4byte	0x139
 1453 07d3 DE070000 		.4byte	0x7de
 1454 07d7 09       		.uleb128 0x9
 1455 07d8 F3000000 		.4byte	0xf3
 1456 07dc 17       		.byte	0x17
 1457 07dd 00       		.byte	0
 1458 07de 1A       		.uleb128 0x1a
 1459 07df F0       		.byte	0xf0
 1460 07e0 06       		.byte	0x6
 1461 07e1 7002     		.2byte	0x270
 1462 07e3 02080000 		.4byte	0x802
 1463 07e7 17       		.uleb128 0x17
 1464 07e8 42030000 		.4byte	.LASF118
 1465 07ec 06       		.byte	0x6
 1466 07ed 7302     		.2byte	0x273
 1467 07ef 02080000 		.4byte	0x802
 1468 07f3 00       		.byte	0
 1469 07f4 17       		.uleb128 0x17
 1470 07f5 2B060000 		.4byte	.LASF119
 1471 07f9 06       		.byte	0x6
 1472 07fa 7402     		.2byte	0x274
 1473 07fc 12080000 		.4byte	0x812
 1474 0800 78       		.byte	0x78
 1475 0801 00       		.byte	0
 1476 0802 08       		.uleb128 0x8
 1477 0803 02030000 		.4byte	0x302
 1478 0807 12080000 		.4byte	0x812
 1479 080b 09       		.uleb128 0x9
 1480 080c F3000000 		.4byte	0xf3
 1481 0810 1D       		.byte	0x1d
 1482 0811 00       		.byte	0
 1483 0812 08       		.uleb128 0x8
 1484 0813 30000000 		.4byte	0x30
 1485 0817 22080000 		.4byte	0x822
 1486 081b 09       		.uleb128 0x9
 1487 081c F3000000 		.4byte	0xf3
 1488 0820 1D       		.byte	0x1d
ARM GAS  /tmp/ccU5WO6B.s 			page 32


 1489 0821 00       		.byte	0
 1490 0822 1B       		.uleb128 0x1b
 1491 0823 F0       		.byte	0xf0
 1492 0824 06       		.byte	0x6
 1493 0825 5502     		.2byte	0x255
 1494 0827 44080000 		.4byte	0x844
 1495 082b 1C       		.uleb128 0x1c
 1496 082c FA040000 		.4byte	.LASF69
 1497 0830 06       		.byte	0x6
 1498 0831 6C02     		.2byte	0x26c
 1499 0833 AD060000 		.4byte	0x6ad
 1500 0837 1C       		.uleb128 0x1c
 1501 0838 4E060000 		.4byte	.LASF120
 1502 083c 06       		.byte	0x6
 1503 083d 7502     		.2byte	0x275
 1504 083f DE070000 		.4byte	0x7de
 1505 0843 00       		.byte	0
 1506 0844 08       		.uleb128 0x8
 1507 0845 39010000 		.4byte	0x139
 1508 0849 54080000 		.4byte	0x854
 1509 084d 09       		.uleb128 0x9
 1510 084e F3000000 		.4byte	0xf3
 1511 0852 18       		.byte	0x18
 1512 0853 00       		.byte	0
 1513 0854 1D       		.uleb128 0x1d
 1514 0855 5F080000 		.4byte	0x85f
 1515 0859 15       		.uleb128 0x15
 1516 085a 50040000 		.4byte	0x450
 1517 085e 00       		.byte	0
 1518 085f 0D       		.uleb128 0xd
 1519 0860 04       		.byte	0x4
 1520 0861 54080000 		.4byte	0x854
 1521 0865 0D       		.uleb128 0xd
 1522 0866 04       		.byte	0x4
 1523 0867 A3010000 		.4byte	0x1a3
 1524 086b 1D       		.uleb128 0x1d
 1525 086c 76080000 		.4byte	0x876
 1526 0870 15       		.uleb128 0x15
 1527 0871 37000000 		.4byte	0x37
 1528 0875 00       		.byte	0
 1529 0876 0D       		.uleb128 0xd
 1530 0877 04       		.byte	0x4
 1531 0878 7C080000 		.4byte	0x87c
 1532 087c 0D       		.uleb128 0xd
 1533 087d 04       		.byte	0x4
 1534 087e 6B080000 		.4byte	0x86b
 1535 0882 08       		.uleb128 0x8
 1536 0883 1B060000 		.4byte	0x61b
 1537 0887 92080000 		.4byte	0x892
 1538 088b 09       		.uleb128 0x9
 1539 088c F3000000 		.4byte	0xf3
 1540 0890 02       		.byte	0x2
 1541 0891 00       		.byte	0
 1542 0892 1E       		.uleb128 0x1e
 1543 0893 1D050000 		.4byte	.LASF121
 1544 0897 06       		.byte	0x6
 1545 0898 FD02     		.2byte	0x2fd
ARM GAS  /tmp/ccU5WO6B.s 			page 33


 1546 089a 50040000 		.4byte	0x450
 1547 089e 1E       		.uleb128 0x1e
 1548 089f CF050000 		.4byte	.LASF122
 1549 08a3 06       		.byte	0x6
 1550 08a4 FE02     		.2byte	0x2fe
 1551 08a6 56040000 		.4byte	0x456
 1552 08aa 02       		.uleb128 0x2
 1553 08ab 80050000 		.4byte	.LASF123
 1554 08af 07       		.byte	0x7
 1555 08b0 18       		.byte	0x18
 1556 08b1 45000000 		.4byte	0x45
 1557 08b5 02       		.uleb128 0x2
 1558 08b6 6E010000 		.4byte	.LASF124
 1559 08ba 07       		.byte	0x7
 1560 08bb 24       		.byte	0x24
 1561 08bc 5E000000 		.4byte	0x5e
 1562 08c0 0E       		.uleb128 0xe
 1563 08c1 B5080000 		.4byte	0x8b5
 1564 08c5 02       		.uleb128 0x2
 1565 08c6 F4050000 		.4byte	.LASF125
 1566 08ca 07       		.byte	0x7
 1567 08cb 30       		.byte	0x30
 1568 08cc 77000000 		.4byte	0x77
 1569 08d0 1F       		.uleb128 0x1f
 1570 08d1 59020000 		.4byte	.LASF126
 1571 08d5 08       		.byte	0x8
 1572 08d6 2B       		.byte	0x2b
 1573 08d7 C5080000 		.4byte	0x8c5
 1574 08db 02       		.uleb128 0x2
 1575 08dc 77010000 		.4byte	.LASF127
 1576 08e0 09       		.byte	0x9
 1577 08e1 38       		.byte	0x38
 1578 08e2 70000000 		.4byte	0x70
 1579 08e6 0D       		.uleb128 0xd
 1580 08e7 04       		.byte	0x4
 1581 08e8 AA080000 		.4byte	0x8aa
 1582 08ec 08       		.uleb128 0x8
 1583 08ed AA080000 		.4byte	0x8aa
 1584 08f1 FD080000 		.4byte	0x8fd
 1585 08f5 20       		.uleb128 0x20
 1586 08f6 F3000000 		.4byte	0xf3
 1587 08fa FF1F     		.2byte	0x1fff
 1588 08fc 00       		.byte	0
 1589 08fd 21       		.uleb128 0x21
 1590 08fe 61030000 		.4byte	.LASF132
 1591 0902 01       		.byte	0x1
 1592 0903 43       		.byte	0x43
 1593 0904 EC080000 		.4byte	0x8ec
 1594 0908 05       		.uleb128 0x5
 1595 0909 03       		.byte	0x3
 1596 090a 00000000 		.4byte	ucHeap
 1597 090e 0F       		.uleb128 0xf
 1598 090f 14040000 		.4byte	.LASF128
 1599 0913 08       		.byte	0x8
 1600 0914 01       		.byte	0x1
 1601 0915 49       		.byte	0x49
 1602 0916 33090000 		.4byte	0x933
ARM GAS  /tmp/ccU5WO6B.s 			page 34


 1603 091a 0B       		.uleb128 0xb
 1604 091b C4000000 		.4byte	.LASF129
 1605 091f 01       		.byte	0x1
 1606 0920 4B       		.byte	0x4b
 1607 0921 33090000 		.4byte	0x933
 1608 0925 00       		.byte	0
 1609 0926 0B       		.uleb128 0xb
 1610 0927 93000000 		.4byte	.LASF130
 1611 092b 01       		.byte	0x1
 1612 092c 4C       		.byte	0x4c
 1613 092d 25000000 		.4byte	0x25
 1614 0931 04       		.byte	0x4
 1615 0932 00       		.byte	0
 1616 0933 0D       		.uleb128 0xd
 1617 0934 04       		.byte	0x4
 1618 0935 0E090000 		.4byte	0x90e
 1619 0939 02       		.uleb128 0x2
 1620 093a FD050000 		.4byte	.LASF131
 1621 093e 01       		.byte	0x1
 1622 093f 4D       		.byte	0x4d
 1623 0940 0E090000 		.4byte	0x90e
 1624 0944 21       		.uleb128 0x21
 1625 0945 5E010000 		.4byte	.LASF133
 1626 0949 01       		.byte	0x1
 1627 094a 50       		.byte	0x50
 1628 094b C0080000 		.4byte	0x8c0
 1629 094f 05       		.uleb128 0x5
 1630 0950 03       		.byte	0x3
 1631 0951 00000000 		.4byte	heapSTRUCT_SIZE
 1632 0955 21       		.uleb128 0x21
 1633 0956 38010000 		.4byte	.LASF134
 1634 095a 01       		.byte	0x1
 1635 095b 54       		.byte	0x54
 1636 095c 39090000 		.4byte	0x939
 1637 0960 05       		.uleb128 0x5
 1638 0961 03       		.byte	0x3
 1639 0962 00200000 		.4byte	xStart
 1640 0966 21       		.uleb128 0x21
 1641 0967 3D050000 		.4byte	.LASF135
 1642 096b 01       		.byte	0x1
 1643 096c 54       		.byte	0x54
 1644 096d 39090000 		.4byte	0x939
 1645 0971 05       		.uleb128 0x5
 1646 0972 03       		.byte	0x3
 1647 0973 08200000 		.4byte	xEnd
 1648 0977 21       		.uleb128 0x21
 1649 0978 2E030000 		.4byte	.LASF136
 1650 097c 01       		.byte	0x1
 1651 097d 58       		.byte	0x58
 1652 097e 25000000 		.4byte	0x25
 1653 0982 05       		.uleb128 0x5
 1654 0983 03       		.byte	0x3
 1655 0984 00000000 		.4byte	xFreeBytesRemaining
 1656 0988 22       		.uleb128 0x22
 1657 0989 DC010000 		.4byte	.LASF152
 1658 098d 01       		.byte	0x1
 1659 098e F9       		.byte	0xf9
ARM GAS  /tmp/ccU5WO6B.s 			page 35


 1660 098f B0010000 		.4byte	.LFB9
 1661 0993 50000000 		.4byte	.LFE9-.LFB9
 1662 0997 01       		.uleb128 0x1
 1663 0998 9C       		.byte	0x9c
 1664 0999 BA090000 		.4byte	0x9ba
 1665 099d 21       		.uleb128 0x21
 1666 099e C9030000 		.4byte	.LASF137
 1667 09a2 01       		.byte	0x1
 1668 09a3 FB       		.byte	0xfb
 1669 09a4 BA090000 		.4byte	0x9ba
 1670 09a8 02       		.uleb128 0x2
 1671 09a9 91       		.byte	0x91
 1672 09aa 70       		.sleb128 -16
 1673 09ab 21       		.uleb128 0x21
 1674 09ac 49030000 		.4byte	.LASF138
 1675 09b0 01       		.byte	0x1
 1676 09b1 FC       		.byte	0xfc
 1677 09b2 E6080000 		.4byte	0x8e6
 1678 09b6 02       		.uleb128 0x2
 1679 09b7 91       		.byte	0x91
 1680 09b8 74       		.sleb128 -12
 1681 09b9 00       		.byte	0
 1682 09ba 0D       		.uleb128 0xd
 1683 09bb 04       		.byte	0x4
 1684 09bc 39090000 		.4byte	0x939
 1685 09c0 23       		.uleb128 0x23
 1686 09c1 A1040000 		.4byte	.LASF153
 1687 09c5 01       		.byte	0x1
 1688 09c6 F3       		.byte	0xf3
 1689 09c7 A4010000 		.4byte	.LFB8
 1690 09cb 0C000000 		.4byte	.LFE8-.LFB8
 1691 09cf 01       		.uleb128 0x1
 1692 09d0 9C       		.byte	0x9c
 1693 09d1 24       		.uleb128 0x24
 1694 09d2 2F040000 		.4byte	.LASF154
 1695 09d6 01       		.byte	0x1
 1696 09d7 ED       		.byte	0xed
 1697 09d8 25000000 		.4byte	0x25
 1698 09dc 90010000 		.4byte	.LFB7
 1699 09e0 14000000 		.4byte	.LFE7-.LFB7
 1700 09e4 01       		.uleb128 0x1
 1701 09e5 9C       		.byte	0x9c
 1702 09e6 25       		.uleb128 0x25
 1703 09e7 E8040000 		.4byte	.LASF141
 1704 09eb 01       		.byte	0x1
 1705 09ec D2       		.byte	0xd2
 1706 09ed 1C010000 		.4byte	.LFB6
 1707 09f1 74000000 		.4byte	.LFE6-.LFB6
 1708 09f5 01       		.uleb128 0x1
 1709 09f6 9C       		.byte	0x9c
 1710 09f7 4B0A0000 		.4byte	0xa4b
 1711 09fb 26       		.uleb128 0x26
 1712 09fc 707600   		.ascii	"pv\000"
 1713 09ff 01       		.byte	0x1
 1714 0a00 D2       		.byte	0xd2
 1715 0a01 31010000 		.4byte	0x131
 1716 0a05 02       		.uleb128 0x2
ARM GAS  /tmp/ccU5WO6B.s 			page 36


 1717 0a06 91       		.byte	0x91
 1718 0a07 64       		.sleb128 -28
 1719 0a08 27       		.uleb128 0x27
 1720 0a09 70756300 		.ascii	"puc\000"
 1721 0a0d 01       		.byte	0x1
 1722 0a0e D4       		.byte	0xd4
 1723 0a0f E6080000 		.4byte	0x8e6
 1724 0a13 02       		.uleb128 0x2
 1725 0a14 91       		.byte	0x91
 1726 0a15 70       		.sleb128 -16
 1727 0a16 21       		.uleb128 0x21
 1728 0a17 6C000000 		.4byte	.LASF139
 1729 0a1b 01       		.byte	0x1
 1730 0a1c D5       		.byte	0xd5
 1731 0a1d BA090000 		.4byte	0x9ba
 1732 0a21 02       		.uleb128 0x2
 1733 0a22 91       		.byte	0x91
 1734 0a23 6C       		.sleb128 -20
 1735 0a24 28       		.uleb128 0x28
 1736 0a25 40010000 		.4byte	.LBB3
 1737 0a29 2C000000 		.4byte	.LBE3-.LBB3
 1738 0a2d 21       		.uleb128 0x21
 1739 0a2e AF050000 		.4byte	.LASF140
 1740 0a32 01       		.byte	0x1
 1741 0a33 E4       		.byte	0xe4
 1742 0a34 BA090000 		.4byte	0x9ba
 1743 0a38 02       		.uleb128 0x2
 1744 0a39 91       		.byte	0x91
 1745 0a3a 74       		.sleb128 -12
 1746 0a3b 21       		.uleb128 0x21
 1747 0a3c 93000000 		.4byte	.LASF130
 1748 0a40 01       		.byte	0x1
 1749 0a41 E4       		.byte	0xe4
 1750 0a42 25000000 		.4byte	0x25
 1751 0a46 02       		.uleb128 0x2
 1752 0a47 91       		.byte	0x91
 1753 0a48 68       		.sleb128 -24
 1754 0a49 00       		.byte	0
 1755 0a4a 00       		.byte	0
 1756 0a4b 29       		.uleb128 0x29
 1757 0a4c CF010000 		.4byte	.LASF142
 1758 0a50 01       		.byte	0x1
 1759 0a51 76       		.byte	0x76
 1760 0a52 31010000 		.4byte	0x131
 1761 0a56 00000000 		.4byte	.LFB5
 1762 0a5a 1C010000 		.4byte	.LFE5-.LFB5
 1763 0a5e 01       		.uleb128 0x1
 1764 0a5f 9C       		.byte	0x9c
 1765 0a60 2A       		.uleb128 0x2a
 1766 0a61 91020000 		.4byte	.LASF143
 1767 0a65 01       		.byte	0x1
 1768 0a66 76       		.byte	0x76
 1769 0a67 25000000 		.4byte	0x25
 1770 0a6b 02       		.uleb128 0x2
 1771 0a6c 91       		.byte	0x91
 1772 0a6d 5C       		.sleb128 -36
 1773 0a6e 21       		.uleb128 0x21
ARM GAS  /tmp/ccU5WO6B.s 			page 37


 1774 0a6f EE000000 		.4byte	.LASF144
 1775 0a73 01       		.byte	0x1
 1776 0a74 78       		.byte	0x78
 1777 0a75 BA090000 		.4byte	0x9ba
 1778 0a79 02       		.uleb128 0x2
 1779 0a7a 91       		.byte	0x91
 1780 0a7b 74       		.sleb128 -12
 1781 0a7c 21       		.uleb128 0x21
 1782 0a7d 2C000000 		.4byte	.LASF145
 1783 0a81 01       		.byte	0x1
 1784 0a82 78       		.byte	0x78
 1785 0a83 BA090000 		.4byte	0x9ba
 1786 0a87 02       		.uleb128 0x2
 1787 0a88 91       		.byte	0x91
 1788 0a89 70       		.sleb128 -16
 1789 0a8a 21       		.uleb128 0x21
 1790 0a8b DA030000 		.4byte	.LASF146
 1791 0a8f 01       		.byte	0x1
 1792 0a90 78       		.byte	0x78
 1793 0a91 BA090000 		.4byte	0x9ba
 1794 0a95 02       		.uleb128 0x2
 1795 0a96 91       		.byte	0x91
 1796 0a97 64       		.sleb128 -28
 1797 0a98 21       		.uleb128 0x21
 1798 0a99 FC020000 		.4byte	.LASF147
 1799 0a9d 01       		.byte	0x1
 1800 0a9e 79       		.byte	0x79
 1801 0a9f DB080000 		.4byte	0x8db
 1802 0aa3 05       		.uleb128 0x5
 1803 0aa4 03       		.byte	0x3
 1804 0aa5 10200000 		.4byte	xHeapHasBeenInitialised.4857
 1805 0aa9 21       		.uleb128 0x21
 1806 0aaa F3030000 		.4byte	.LASF148
 1807 0aae 01       		.byte	0x1
 1808 0aaf 7A       		.byte	0x7a
 1809 0ab0 31010000 		.4byte	0x131
 1810 0ab4 02       		.uleb128 0x2
 1811 0ab5 91       		.byte	0x91
 1812 0ab6 6C       		.sleb128 -20
 1813 0ab7 28       		.uleb128 0x28
 1814 0ab8 C2000000 		.4byte	.LBB2
 1815 0abc 2C000000 		.4byte	.LBE2-.LBB2
 1816 0ac0 21       		.uleb128 0x21
 1817 0ac1 AF050000 		.4byte	.LASF140
 1818 0ac5 01       		.byte	0x1
 1819 0ac6 B9       		.byte	0xb9
 1820 0ac7 BA090000 		.4byte	0x9ba
 1821 0acb 02       		.uleb128 0x2
 1822 0acc 91       		.byte	0x91
 1823 0acd 68       		.sleb128 -24
 1824 0ace 21       		.uleb128 0x21
 1825 0acf 93000000 		.4byte	.LASF130
 1826 0ad3 01       		.byte	0x1
 1827 0ad4 B9       		.byte	0xb9
 1828 0ad5 25000000 		.4byte	0x25
 1829 0ad9 02       		.uleb128 0x2
 1830 0ada 91       		.byte	0x91
ARM GAS  /tmp/ccU5WO6B.s 			page 38


 1831 0adb 60       		.sleb128 -32
 1832 0adc 00       		.byte	0
 1833 0add 00       		.byte	0
 1834 0ade 00       		.byte	0
 1835              		.section	.debug_abbrev,"",%progbits
 1836              	.Ldebug_abbrev0:
 1837 0000 01       		.uleb128 0x1
 1838 0001 11       		.uleb128 0x11
 1839 0002 01       		.byte	0x1
 1840 0003 25       		.uleb128 0x25
 1841 0004 0E       		.uleb128 0xe
 1842 0005 13       		.uleb128 0x13
 1843 0006 0B       		.uleb128 0xb
 1844 0007 03       		.uleb128 0x3
 1845 0008 0E       		.uleb128 0xe
 1846 0009 1B       		.uleb128 0x1b
 1847 000a 0E       		.uleb128 0xe
 1848 000b 11       		.uleb128 0x11
 1849 000c 01       		.uleb128 0x1
 1850 000d 12       		.uleb128 0x12
 1851 000e 06       		.uleb128 0x6
 1852 000f 10       		.uleb128 0x10
 1853 0010 17       		.uleb128 0x17
 1854 0011 00       		.byte	0
 1855 0012 00       		.byte	0
 1856 0013 02       		.uleb128 0x2
 1857 0014 16       		.uleb128 0x16
 1858 0015 00       		.byte	0
 1859 0016 03       		.uleb128 0x3
 1860 0017 0E       		.uleb128 0xe
 1861 0018 3A       		.uleb128 0x3a
 1862 0019 0B       		.uleb128 0xb
 1863 001a 3B       		.uleb128 0x3b
 1864 001b 0B       		.uleb128 0xb
 1865 001c 49       		.uleb128 0x49
 1866 001d 13       		.uleb128 0x13
 1867 001e 00       		.byte	0
 1868 001f 00       		.byte	0
 1869 0020 03       		.uleb128 0x3
 1870 0021 24       		.uleb128 0x24
 1871 0022 00       		.byte	0
 1872 0023 0B       		.uleb128 0xb
 1873 0024 0B       		.uleb128 0xb
 1874 0025 3E       		.uleb128 0x3e
 1875 0026 0B       		.uleb128 0xb
 1876 0027 03       		.uleb128 0x3
 1877 0028 0E       		.uleb128 0xe
 1878 0029 00       		.byte	0
 1879 002a 00       		.byte	0
 1880 002b 04       		.uleb128 0x4
 1881 002c 24       		.uleb128 0x24
 1882 002d 00       		.byte	0
 1883 002e 0B       		.uleb128 0xb
 1884 002f 0B       		.uleb128 0xb
 1885 0030 3E       		.uleb128 0x3e
 1886 0031 0B       		.uleb128 0xb
 1887 0032 03       		.uleb128 0x3
ARM GAS  /tmp/ccU5WO6B.s 			page 39


 1888 0033 08       		.uleb128 0x8
 1889 0034 00       		.byte	0
 1890 0035 00       		.byte	0
 1891 0036 05       		.uleb128 0x5
 1892 0037 16       		.uleb128 0x16
 1893 0038 00       		.byte	0
 1894 0039 03       		.uleb128 0x3
 1895 003a 0E       		.uleb128 0xe
 1896 003b 3A       		.uleb128 0x3a
 1897 003c 0B       		.uleb128 0xb
 1898 003d 3B       		.uleb128 0x3b
 1899 003e 05       		.uleb128 0x5
 1900 003f 49       		.uleb128 0x49
 1901 0040 13       		.uleb128 0x13
 1902 0041 00       		.byte	0
 1903 0042 00       		.byte	0
 1904 0043 06       		.uleb128 0x6
 1905 0044 17       		.uleb128 0x17
 1906 0045 01       		.byte	0x1
 1907 0046 0B       		.uleb128 0xb
 1908 0047 0B       		.uleb128 0xb
 1909 0048 3A       		.uleb128 0x3a
 1910 0049 0B       		.uleb128 0xb
 1911 004a 3B       		.uleb128 0x3b
 1912 004b 0B       		.uleb128 0xb
 1913 004c 01       		.uleb128 0x1
 1914 004d 13       		.uleb128 0x13
 1915 004e 00       		.byte	0
 1916 004f 00       		.byte	0
 1917 0050 07       		.uleb128 0x7
 1918 0051 0D       		.uleb128 0xd
 1919 0052 00       		.byte	0
 1920 0053 03       		.uleb128 0x3
 1921 0054 0E       		.uleb128 0xe
 1922 0055 3A       		.uleb128 0x3a
 1923 0056 0B       		.uleb128 0xb
 1924 0057 3B       		.uleb128 0x3b
 1925 0058 0B       		.uleb128 0xb
 1926 0059 49       		.uleb128 0x49
 1927 005a 13       		.uleb128 0x13
 1928 005b 00       		.byte	0
 1929 005c 00       		.byte	0
 1930 005d 08       		.uleb128 0x8
 1931 005e 01       		.uleb128 0x1
 1932 005f 01       		.byte	0x1
 1933 0060 49       		.uleb128 0x49
 1934 0061 13       		.uleb128 0x13
 1935 0062 01       		.uleb128 0x1
 1936 0063 13       		.uleb128 0x13
 1937 0064 00       		.byte	0
 1938 0065 00       		.byte	0
 1939 0066 09       		.uleb128 0x9
 1940 0067 21       		.uleb128 0x21
 1941 0068 00       		.byte	0
 1942 0069 49       		.uleb128 0x49
 1943 006a 13       		.uleb128 0x13
 1944 006b 2F       		.uleb128 0x2f
ARM GAS  /tmp/ccU5WO6B.s 			page 40


 1945 006c 0B       		.uleb128 0xb
 1946 006d 00       		.byte	0
 1947 006e 00       		.byte	0
 1948 006f 0A       		.uleb128 0xa
 1949 0070 13       		.uleb128 0x13
 1950 0071 01       		.byte	0x1
 1951 0072 0B       		.uleb128 0xb
 1952 0073 0B       		.uleb128 0xb
 1953 0074 3A       		.uleb128 0x3a
 1954 0075 0B       		.uleb128 0xb
 1955 0076 3B       		.uleb128 0x3b
 1956 0077 0B       		.uleb128 0xb
 1957 0078 01       		.uleb128 0x1
 1958 0079 13       		.uleb128 0x13
 1959 007a 00       		.byte	0
 1960 007b 00       		.byte	0
 1961 007c 0B       		.uleb128 0xb
 1962 007d 0D       		.uleb128 0xd
 1963 007e 00       		.byte	0
 1964 007f 03       		.uleb128 0x3
 1965 0080 0E       		.uleb128 0xe
 1966 0081 3A       		.uleb128 0x3a
 1967 0082 0B       		.uleb128 0xb
 1968 0083 3B       		.uleb128 0x3b
 1969 0084 0B       		.uleb128 0xb
 1970 0085 49       		.uleb128 0x49
 1971 0086 13       		.uleb128 0x13
 1972 0087 38       		.uleb128 0x38
 1973 0088 0B       		.uleb128 0xb
 1974 0089 00       		.byte	0
 1975 008a 00       		.byte	0
 1976 008b 0C       		.uleb128 0xc
 1977 008c 0F       		.uleb128 0xf
 1978 008d 00       		.byte	0
 1979 008e 0B       		.uleb128 0xb
 1980 008f 0B       		.uleb128 0xb
 1981 0090 00       		.byte	0
 1982 0091 00       		.byte	0
 1983 0092 0D       		.uleb128 0xd
 1984 0093 0F       		.uleb128 0xf
 1985 0094 00       		.byte	0
 1986 0095 0B       		.uleb128 0xb
 1987 0096 0B       		.uleb128 0xb
 1988 0097 49       		.uleb128 0x49
 1989 0098 13       		.uleb128 0x13
 1990 0099 00       		.byte	0
 1991 009a 00       		.byte	0
 1992 009b 0E       		.uleb128 0xe
 1993 009c 26       		.uleb128 0x26
 1994 009d 00       		.byte	0
 1995 009e 49       		.uleb128 0x49
 1996 009f 13       		.uleb128 0x13
 1997 00a0 00       		.byte	0
 1998 00a1 00       		.byte	0
 1999 00a2 0F       		.uleb128 0xf
 2000 00a3 13       		.uleb128 0x13
 2001 00a4 01       		.byte	0x1
ARM GAS  /tmp/ccU5WO6B.s 			page 41


 2002 00a5 03       		.uleb128 0x3
 2003 00a6 0E       		.uleb128 0xe
 2004 00a7 0B       		.uleb128 0xb
 2005 00a8 0B       		.uleb128 0xb
 2006 00a9 3A       		.uleb128 0x3a
 2007 00aa 0B       		.uleb128 0xb
 2008 00ab 3B       		.uleb128 0x3b
 2009 00ac 0B       		.uleb128 0xb
 2010 00ad 01       		.uleb128 0x1
 2011 00ae 13       		.uleb128 0x13
 2012 00af 00       		.byte	0
 2013 00b0 00       		.byte	0
 2014 00b1 10       		.uleb128 0x10
 2015 00b2 0D       		.uleb128 0xd
 2016 00b3 00       		.byte	0
 2017 00b4 03       		.uleb128 0x3
 2018 00b5 08       		.uleb128 0x8
 2019 00b6 3A       		.uleb128 0x3a
 2020 00b7 0B       		.uleb128 0xb
 2021 00b8 3B       		.uleb128 0x3b
 2022 00b9 0B       		.uleb128 0xb
 2023 00ba 49       		.uleb128 0x49
 2024 00bb 13       		.uleb128 0x13
 2025 00bc 38       		.uleb128 0x38
 2026 00bd 0B       		.uleb128 0xb
 2027 00be 00       		.byte	0
 2028 00bf 00       		.byte	0
 2029 00c0 11       		.uleb128 0x11
 2030 00c1 13       		.uleb128 0x13
 2031 00c2 01       		.byte	0x1
 2032 00c3 03       		.uleb128 0x3
 2033 00c4 0E       		.uleb128 0xe
 2034 00c5 0B       		.uleb128 0xb
 2035 00c6 05       		.uleb128 0x5
 2036 00c7 3A       		.uleb128 0x3a
 2037 00c8 0B       		.uleb128 0xb
 2038 00c9 3B       		.uleb128 0x3b
 2039 00ca 0B       		.uleb128 0xb
 2040 00cb 01       		.uleb128 0x1
 2041 00cc 13       		.uleb128 0x13
 2042 00cd 00       		.byte	0
 2043 00ce 00       		.byte	0
 2044 00cf 12       		.uleb128 0x12
 2045 00d0 0D       		.uleb128 0xd
 2046 00d1 00       		.byte	0
 2047 00d2 03       		.uleb128 0x3
 2048 00d3 0E       		.uleb128 0xe
 2049 00d4 3A       		.uleb128 0x3a
 2050 00d5 0B       		.uleb128 0xb
 2051 00d6 3B       		.uleb128 0x3b
 2052 00d7 0B       		.uleb128 0xb
 2053 00d8 49       		.uleb128 0x49
 2054 00d9 13       		.uleb128 0x13
 2055 00da 38       		.uleb128 0x38
 2056 00db 05       		.uleb128 0x5
 2057 00dc 00       		.byte	0
 2058 00dd 00       		.byte	0
ARM GAS  /tmp/ccU5WO6B.s 			page 42


 2059 00de 13       		.uleb128 0x13
 2060 00df 15       		.uleb128 0x15
 2061 00e0 00       		.byte	0
 2062 00e1 27       		.uleb128 0x27
 2063 00e2 19       		.uleb128 0x19
 2064 00e3 00       		.byte	0
 2065 00e4 00       		.byte	0
 2066 00e5 14       		.uleb128 0x14
 2067 00e6 15       		.uleb128 0x15
 2068 00e7 01       		.byte	0x1
 2069 00e8 27       		.uleb128 0x27
 2070 00e9 19       		.uleb128 0x19
 2071 00ea 49       		.uleb128 0x49
 2072 00eb 13       		.uleb128 0x13
 2073 00ec 01       		.uleb128 0x1
 2074 00ed 13       		.uleb128 0x13
 2075 00ee 00       		.byte	0
 2076 00ef 00       		.byte	0
 2077 00f0 15       		.uleb128 0x15
 2078 00f1 05       		.uleb128 0x5
 2079 00f2 00       		.byte	0
 2080 00f3 49       		.uleb128 0x49
 2081 00f4 13       		.uleb128 0x13
 2082 00f5 00       		.byte	0
 2083 00f6 00       		.byte	0
 2084 00f7 16       		.uleb128 0x16
 2085 00f8 13       		.uleb128 0x13
 2086 00f9 01       		.byte	0x1
 2087 00fa 03       		.uleb128 0x3
 2088 00fb 0E       		.uleb128 0xe
 2089 00fc 0B       		.uleb128 0xb
 2090 00fd 05       		.uleb128 0x5
 2091 00fe 3A       		.uleb128 0x3a
 2092 00ff 0B       		.uleb128 0xb
 2093 0100 3B       		.uleb128 0x3b
 2094 0101 05       		.uleb128 0x5
 2095 0102 01       		.uleb128 0x1
 2096 0103 13       		.uleb128 0x13
 2097 0104 00       		.byte	0
 2098 0105 00       		.byte	0
 2099 0106 17       		.uleb128 0x17
 2100 0107 0D       		.uleb128 0xd
 2101 0108 00       		.byte	0
 2102 0109 03       		.uleb128 0x3
 2103 010a 0E       		.uleb128 0xe
 2104 010b 3A       		.uleb128 0x3a
 2105 010c 0B       		.uleb128 0xb
 2106 010d 3B       		.uleb128 0x3b
 2107 010e 05       		.uleb128 0x5
 2108 010f 49       		.uleb128 0x49
 2109 0110 13       		.uleb128 0x13
 2110 0111 38       		.uleb128 0x38
 2111 0112 0B       		.uleb128 0xb
 2112 0113 00       		.byte	0
 2113 0114 00       		.byte	0
 2114 0115 18       		.uleb128 0x18
 2115 0116 0D       		.uleb128 0xd
ARM GAS  /tmp/ccU5WO6B.s 			page 43


 2116 0117 00       		.byte	0
 2117 0118 03       		.uleb128 0x3
 2118 0119 0E       		.uleb128 0xe
 2119 011a 3A       		.uleb128 0x3a
 2120 011b 0B       		.uleb128 0xb
 2121 011c 3B       		.uleb128 0x3b
 2122 011d 05       		.uleb128 0x5
 2123 011e 49       		.uleb128 0x49
 2124 011f 13       		.uleb128 0x13
 2125 0120 38       		.uleb128 0x38
 2126 0121 05       		.uleb128 0x5
 2127 0122 00       		.byte	0
 2128 0123 00       		.byte	0
 2129 0124 19       		.uleb128 0x19
 2130 0125 13       		.uleb128 0x13
 2131 0126 01       		.byte	0x1
 2132 0127 03       		.uleb128 0x3
 2133 0128 0E       		.uleb128 0xe
 2134 0129 0B       		.uleb128 0xb
 2135 012a 0B       		.uleb128 0xb
 2136 012b 3A       		.uleb128 0x3a
 2137 012c 0B       		.uleb128 0xb
 2138 012d 3B       		.uleb128 0x3b
 2139 012e 05       		.uleb128 0x5
 2140 012f 01       		.uleb128 0x1
 2141 0130 13       		.uleb128 0x13
 2142 0131 00       		.byte	0
 2143 0132 00       		.byte	0
 2144 0133 1A       		.uleb128 0x1a
 2145 0134 13       		.uleb128 0x13
 2146 0135 01       		.byte	0x1
 2147 0136 0B       		.uleb128 0xb
 2148 0137 0B       		.uleb128 0xb
 2149 0138 3A       		.uleb128 0x3a
 2150 0139 0B       		.uleb128 0xb
 2151 013a 3B       		.uleb128 0x3b
 2152 013b 05       		.uleb128 0x5
 2153 013c 01       		.uleb128 0x1
 2154 013d 13       		.uleb128 0x13
 2155 013e 00       		.byte	0
 2156 013f 00       		.byte	0
 2157 0140 1B       		.uleb128 0x1b
 2158 0141 17       		.uleb128 0x17
 2159 0142 01       		.byte	0x1
 2160 0143 0B       		.uleb128 0xb
 2161 0144 0B       		.uleb128 0xb
 2162 0145 3A       		.uleb128 0x3a
 2163 0146 0B       		.uleb128 0xb
 2164 0147 3B       		.uleb128 0x3b
 2165 0148 05       		.uleb128 0x5
 2166 0149 01       		.uleb128 0x1
 2167 014a 13       		.uleb128 0x13
 2168 014b 00       		.byte	0
 2169 014c 00       		.byte	0
 2170 014d 1C       		.uleb128 0x1c
 2171 014e 0D       		.uleb128 0xd
 2172 014f 00       		.byte	0
ARM GAS  /tmp/ccU5WO6B.s 			page 44


 2173 0150 03       		.uleb128 0x3
 2174 0151 0E       		.uleb128 0xe
 2175 0152 3A       		.uleb128 0x3a
 2176 0153 0B       		.uleb128 0xb
 2177 0154 3B       		.uleb128 0x3b
 2178 0155 05       		.uleb128 0x5
 2179 0156 49       		.uleb128 0x49
 2180 0157 13       		.uleb128 0x13
 2181 0158 00       		.byte	0
 2182 0159 00       		.byte	0
 2183 015a 1D       		.uleb128 0x1d
 2184 015b 15       		.uleb128 0x15
 2185 015c 01       		.byte	0x1
 2186 015d 27       		.uleb128 0x27
 2187 015e 19       		.uleb128 0x19
 2188 015f 01       		.uleb128 0x1
 2189 0160 13       		.uleb128 0x13
 2190 0161 00       		.byte	0
 2191 0162 00       		.byte	0
 2192 0163 1E       		.uleb128 0x1e
 2193 0164 34       		.uleb128 0x34
 2194 0165 00       		.byte	0
 2195 0166 03       		.uleb128 0x3
 2196 0167 0E       		.uleb128 0xe
 2197 0168 3A       		.uleb128 0x3a
 2198 0169 0B       		.uleb128 0xb
 2199 016a 3B       		.uleb128 0x3b
 2200 016b 05       		.uleb128 0x5
 2201 016c 49       		.uleb128 0x49
 2202 016d 13       		.uleb128 0x13
 2203 016e 3F       		.uleb128 0x3f
 2204 016f 19       		.uleb128 0x19
 2205 0170 3C       		.uleb128 0x3c
 2206 0171 19       		.uleb128 0x19
 2207 0172 00       		.byte	0
 2208 0173 00       		.byte	0
 2209 0174 1F       		.uleb128 0x1f
 2210 0175 34       		.uleb128 0x34
 2211 0176 00       		.byte	0
 2212 0177 03       		.uleb128 0x3
 2213 0178 0E       		.uleb128 0xe
 2214 0179 3A       		.uleb128 0x3a
 2215 017a 0B       		.uleb128 0xb
 2216 017b 3B       		.uleb128 0x3b
 2217 017c 0B       		.uleb128 0xb
 2218 017d 49       		.uleb128 0x49
 2219 017e 13       		.uleb128 0x13
 2220 017f 3F       		.uleb128 0x3f
 2221 0180 19       		.uleb128 0x19
 2222 0181 3C       		.uleb128 0x3c
 2223 0182 19       		.uleb128 0x19
 2224 0183 00       		.byte	0
 2225 0184 00       		.byte	0
 2226 0185 20       		.uleb128 0x20
 2227 0186 21       		.uleb128 0x21
 2228 0187 00       		.byte	0
 2229 0188 49       		.uleb128 0x49
ARM GAS  /tmp/ccU5WO6B.s 			page 45


 2230 0189 13       		.uleb128 0x13
 2231 018a 2F       		.uleb128 0x2f
 2232 018b 05       		.uleb128 0x5
 2233 018c 00       		.byte	0
 2234 018d 00       		.byte	0
 2235 018e 21       		.uleb128 0x21
 2236 018f 34       		.uleb128 0x34
 2237 0190 00       		.byte	0
 2238 0191 03       		.uleb128 0x3
 2239 0192 0E       		.uleb128 0xe
 2240 0193 3A       		.uleb128 0x3a
 2241 0194 0B       		.uleb128 0xb
 2242 0195 3B       		.uleb128 0x3b
 2243 0196 0B       		.uleb128 0xb
 2244 0197 49       		.uleb128 0x49
 2245 0198 13       		.uleb128 0x13
 2246 0199 02       		.uleb128 0x2
 2247 019a 18       		.uleb128 0x18
 2248 019b 00       		.byte	0
 2249 019c 00       		.byte	0
 2250 019d 22       		.uleb128 0x22
 2251 019e 2E       		.uleb128 0x2e
 2252 019f 01       		.byte	0x1
 2253 01a0 03       		.uleb128 0x3
 2254 01a1 0E       		.uleb128 0xe
 2255 01a2 3A       		.uleb128 0x3a
 2256 01a3 0B       		.uleb128 0xb
 2257 01a4 3B       		.uleb128 0x3b
 2258 01a5 0B       		.uleb128 0xb
 2259 01a6 27       		.uleb128 0x27
 2260 01a7 19       		.uleb128 0x19
 2261 01a8 11       		.uleb128 0x11
 2262 01a9 01       		.uleb128 0x1
 2263 01aa 12       		.uleb128 0x12
 2264 01ab 06       		.uleb128 0x6
 2265 01ac 40       		.uleb128 0x40
 2266 01ad 18       		.uleb128 0x18
 2267 01ae 9742     		.uleb128 0x2117
 2268 01b0 19       		.uleb128 0x19
 2269 01b1 01       		.uleb128 0x1
 2270 01b2 13       		.uleb128 0x13
 2271 01b3 00       		.byte	0
 2272 01b4 00       		.byte	0
 2273 01b5 23       		.uleb128 0x23
 2274 01b6 2E       		.uleb128 0x2e
 2275 01b7 00       		.byte	0
 2276 01b8 3F       		.uleb128 0x3f
 2277 01b9 19       		.uleb128 0x19
 2278 01ba 03       		.uleb128 0x3
 2279 01bb 0E       		.uleb128 0xe
 2280 01bc 3A       		.uleb128 0x3a
 2281 01bd 0B       		.uleb128 0xb
 2282 01be 3B       		.uleb128 0x3b
 2283 01bf 0B       		.uleb128 0xb
 2284 01c0 27       		.uleb128 0x27
 2285 01c1 19       		.uleb128 0x19
 2286 01c2 11       		.uleb128 0x11
ARM GAS  /tmp/ccU5WO6B.s 			page 46


 2287 01c3 01       		.uleb128 0x1
 2288 01c4 12       		.uleb128 0x12
 2289 01c5 06       		.uleb128 0x6
 2290 01c6 40       		.uleb128 0x40
 2291 01c7 18       		.uleb128 0x18
 2292 01c8 9742     		.uleb128 0x2117
 2293 01ca 19       		.uleb128 0x19
 2294 01cb 00       		.byte	0
 2295 01cc 00       		.byte	0
 2296 01cd 24       		.uleb128 0x24
 2297 01ce 2E       		.uleb128 0x2e
 2298 01cf 00       		.byte	0
 2299 01d0 3F       		.uleb128 0x3f
 2300 01d1 19       		.uleb128 0x19
 2301 01d2 03       		.uleb128 0x3
 2302 01d3 0E       		.uleb128 0xe
 2303 01d4 3A       		.uleb128 0x3a
 2304 01d5 0B       		.uleb128 0xb
 2305 01d6 3B       		.uleb128 0x3b
 2306 01d7 0B       		.uleb128 0xb
 2307 01d8 27       		.uleb128 0x27
 2308 01d9 19       		.uleb128 0x19
 2309 01da 49       		.uleb128 0x49
 2310 01db 13       		.uleb128 0x13
 2311 01dc 11       		.uleb128 0x11
 2312 01dd 01       		.uleb128 0x1
 2313 01de 12       		.uleb128 0x12
 2314 01df 06       		.uleb128 0x6
 2315 01e0 40       		.uleb128 0x40
 2316 01e1 18       		.uleb128 0x18
 2317 01e2 9742     		.uleb128 0x2117
 2318 01e4 19       		.uleb128 0x19
 2319 01e5 00       		.byte	0
 2320 01e6 00       		.byte	0
 2321 01e7 25       		.uleb128 0x25
 2322 01e8 2E       		.uleb128 0x2e
 2323 01e9 01       		.byte	0x1
 2324 01ea 3F       		.uleb128 0x3f
 2325 01eb 19       		.uleb128 0x19
 2326 01ec 03       		.uleb128 0x3
 2327 01ed 0E       		.uleb128 0xe
 2328 01ee 3A       		.uleb128 0x3a
 2329 01ef 0B       		.uleb128 0xb
 2330 01f0 3B       		.uleb128 0x3b
 2331 01f1 0B       		.uleb128 0xb
 2332 01f2 27       		.uleb128 0x27
 2333 01f3 19       		.uleb128 0x19
 2334 01f4 11       		.uleb128 0x11
 2335 01f5 01       		.uleb128 0x1
 2336 01f6 12       		.uleb128 0x12
 2337 01f7 06       		.uleb128 0x6
 2338 01f8 40       		.uleb128 0x40
 2339 01f9 18       		.uleb128 0x18
 2340 01fa 9642     		.uleb128 0x2116
 2341 01fc 19       		.uleb128 0x19
 2342 01fd 01       		.uleb128 0x1
 2343 01fe 13       		.uleb128 0x13
ARM GAS  /tmp/ccU5WO6B.s 			page 47


 2344 01ff 00       		.byte	0
 2345 0200 00       		.byte	0
 2346 0201 26       		.uleb128 0x26
 2347 0202 05       		.uleb128 0x5
 2348 0203 00       		.byte	0
 2349 0204 03       		.uleb128 0x3
 2350 0205 08       		.uleb128 0x8
 2351 0206 3A       		.uleb128 0x3a
 2352 0207 0B       		.uleb128 0xb
 2353 0208 3B       		.uleb128 0x3b
 2354 0209 0B       		.uleb128 0xb
 2355 020a 49       		.uleb128 0x49
 2356 020b 13       		.uleb128 0x13
 2357 020c 02       		.uleb128 0x2
 2358 020d 18       		.uleb128 0x18
 2359 020e 00       		.byte	0
 2360 020f 00       		.byte	0
 2361 0210 27       		.uleb128 0x27
 2362 0211 34       		.uleb128 0x34
 2363 0212 00       		.byte	0
 2364 0213 03       		.uleb128 0x3
 2365 0214 08       		.uleb128 0x8
 2366 0215 3A       		.uleb128 0x3a
 2367 0216 0B       		.uleb128 0xb
 2368 0217 3B       		.uleb128 0x3b
 2369 0218 0B       		.uleb128 0xb
 2370 0219 49       		.uleb128 0x49
 2371 021a 13       		.uleb128 0x13
 2372 021b 02       		.uleb128 0x2
 2373 021c 18       		.uleb128 0x18
 2374 021d 00       		.byte	0
 2375 021e 00       		.byte	0
 2376 021f 28       		.uleb128 0x28
 2377 0220 0B       		.uleb128 0xb
 2378 0221 01       		.byte	0x1
 2379 0222 11       		.uleb128 0x11
 2380 0223 01       		.uleb128 0x1
 2381 0224 12       		.uleb128 0x12
 2382 0225 06       		.uleb128 0x6
 2383 0226 00       		.byte	0
 2384 0227 00       		.byte	0
 2385 0228 29       		.uleb128 0x29
 2386 0229 2E       		.uleb128 0x2e
 2387 022a 01       		.byte	0x1
 2388 022b 3F       		.uleb128 0x3f
 2389 022c 19       		.uleb128 0x19
 2390 022d 03       		.uleb128 0x3
 2391 022e 0E       		.uleb128 0xe
 2392 022f 3A       		.uleb128 0x3a
 2393 0230 0B       		.uleb128 0xb
 2394 0231 3B       		.uleb128 0x3b
 2395 0232 0B       		.uleb128 0xb
 2396 0233 27       		.uleb128 0x27
 2397 0234 19       		.uleb128 0x19
 2398 0235 49       		.uleb128 0x49
 2399 0236 13       		.uleb128 0x13
 2400 0237 11       		.uleb128 0x11
ARM GAS  /tmp/ccU5WO6B.s 			page 48


 2401 0238 01       		.uleb128 0x1
 2402 0239 12       		.uleb128 0x12
 2403 023a 06       		.uleb128 0x6
 2404 023b 40       		.uleb128 0x40
 2405 023c 18       		.uleb128 0x18
 2406 023d 9642     		.uleb128 0x2116
 2407 023f 19       		.uleb128 0x19
 2408 0240 00       		.byte	0
 2409 0241 00       		.byte	0
 2410 0242 2A       		.uleb128 0x2a
 2411 0243 05       		.uleb128 0x5
 2412 0244 00       		.byte	0
 2413 0245 03       		.uleb128 0x3
 2414 0246 0E       		.uleb128 0xe
 2415 0247 3A       		.uleb128 0x3a
 2416 0248 0B       		.uleb128 0xb
 2417 0249 3B       		.uleb128 0x3b
 2418 024a 0B       		.uleb128 0xb
 2419 024b 49       		.uleb128 0x49
 2420 024c 13       		.uleb128 0x13
 2421 024d 02       		.uleb128 0x2
 2422 024e 18       		.uleb128 0x18
 2423 024f 00       		.byte	0
 2424 0250 00       		.byte	0
 2425 0251 00       		.byte	0
 2426              		.section	.debug_aranges,"",%progbits
 2427 0000 1C000000 		.4byte	0x1c
 2428 0004 0200     		.2byte	0x2
 2429 0006 00000000 		.4byte	.Ldebug_info0
 2430 000a 04       		.byte	0x4
 2431 000b 00       		.byte	0
 2432 000c 0000     		.2byte	0
 2433 000e 0000     		.2byte	0
 2434 0010 00000000 		.4byte	.Ltext0
 2435 0014 00020000 		.4byte	.Letext0-.Ltext0
 2436 0018 00000000 		.4byte	0
 2437 001c 00000000 		.4byte	0
 2438              		.section	.debug_line,"",%progbits
 2439              	.Ldebug_line0:
 2440 0000 C0010000 		.section	.debug_str,"MS",%progbits,1
 2440      02003B01 
 2440      00000201 
 2440      FB0E0D00 
 2440      01010101 
 2441              	.LASF43:
 2442 0000 5F64736F 		.ascii	"_dso_handle\000"
 2442      5F68616E 
 2442      646C6500 
 2443              	.LASF51:
 2444 000c 5F73697A 		.ascii	"_size\000"
 2444      6500
 2445              	.LASF2:
 2446 0012 73697A65 		.ascii	"size_t\000"
 2446      5F7400
 2447              	.LASF95:
 2448 0019 5F72616E 		.ascii	"_rand48\000"
 2448      64343800 
ARM GAS  /tmp/ccU5WO6B.s 			page 49


 2449              	.LASF75:
 2450 0021 5F656D65 		.ascii	"_emergency\000"
 2450      7267656E 
 2450      637900
 2451              	.LASF145:
 2452 002c 70785072 		.ascii	"pxPreviousBlock\000"
 2452      6576696F 
 2452      7573426C 
 2452      6F636B00 
 2453              	.LASF3:
 2454 003c 5F5F7569 		.ascii	"__uint8_t\000"
 2454      6E74385F 
 2454      7400
 2455              	.LASF65:
 2456 0046 5F646174 		.ascii	"_data\000"
 2456      6100
 2457              	.LASF115:
 2458 004c 5F776372 		.ascii	"_wcrtomb_state\000"
 2458      746F6D62 
 2458      5F737461 
 2458      746500
 2459              	.LASF116:
 2460 005b 5F776373 		.ascii	"_wcsrtombs_state\000"
 2460      72746F6D 
 2460      62735F73 
 2460      74617465 
 2460      00
 2461              	.LASF139:
 2462 006c 70784C69 		.ascii	"pxLink\000"
 2462      6E6B00
 2463              	.LASF12:
 2464 0073 6C6F6E67 		.ascii	"long long unsigned int\000"
 2464      206C6F6E 
 2464      6720756E 
 2464      7369676E 
 2464      65642069 
 2465              	.LASF55:
 2466 008a 5F6C6266 		.ascii	"_lbfsize\000"
 2466      73697A65 
 2466      00
 2467              	.LASF130:
 2468 0093 78426C6F 		.ascii	"xBlockSize\000"
 2468      636B5369 
 2468      7A6500
 2469              	.LASF113:
 2470 009e 5F6D6272 		.ascii	"_mbrtowc_state\000"
 2470      746F7763 
 2470      5F737461 
 2470      746500
 2471              	.LASF108:
 2472 00ad 5F776374 		.ascii	"_wctomb_state\000"
 2472      6F6D625F 
 2472      73746174 
 2472      6500
 2473              	.LASF32:
 2474 00bb 5F5F746D 		.ascii	"__tm_sec\000"
 2474      5F736563 
ARM GAS  /tmp/ccU5WO6B.s 			page 50


 2474      00
 2475              	.LASF129:
 2476 00c4 70784E65 		.ascii	"pxNextFreeBlock\000"
 2476      78744672 
 2476      6565426C 
 2476      6F636B00 
 2477              	.LASF11:
 2478 00d4 6C6F6E67 		.ascii	"long long int\000"
 2478      206C6F6E 
 2478      6720696E 
 2478      7400
 2479              	.LASF1:
 2480 00e2 7369676E 		.ascii	"signed char\000"
 2480      65642063 
 2480      68617200 
 2481              	.LASF144:
 2482 00ee 7078426C 		.ascii	"pxBlock\000"
 2482      6F636B00 
 2483              	.LASF61:
 2484 00f6 5F756275 		.ascii	"_ubuf\000"
 2484      6600
 2485              	.LASF50:
 2486 00fc 5F626173 		.ascii	"_base\000"
 2486      6500
 2487              	.LASF34:
 2488 0102 5F5F746D 		.ascii	"__tm_hour\000"
 2488      5F686F75 
 2488      7200
 2489              	.LASF90:
 2490 010c 5F5F7366 		.ascii	"__sf\000"
 2490      00
 2491              	.LASF41:
 2492 0111 5F6F6E5F 		.ascii	"_on_exit_args\000"
 2492      65786974 
 2492      5F617267 
 2492      7300
 2493              	.LASF56:
 2494 011f 5F636F6F 		.ascii	"_cookie\000"
 2494      6B696500 
 2495              	.LASF89:
 2496 0127 5F5F7367 		.ascii	"__sglue\000"
 2496      6C756500 
 2497              	.LASF8:
 2498 012f 6C6F6E67 		.ascii	"long int\000"
 2498      20696E74 
 2498      00
 2499              	.LASF134:
 2500 0138 78537461 		.ascii	"xStart\000"
 2500      727400
 2501              	.LASF53:
 2502 013f 5F666C61 		.ascii	"_flags\000"
 2502      677300
 2503              	.LASF45:
 2504 0146 5F69735F 		.ascii	"_is_cxa\000"
 2504      63786100 
 2505              	.LASF71:
 2506 014e 5F737464 		.ascii	"_stdin\000"
ARM GAS  /tmp/ccU5WO6B.s 			page 51


 2506      696E00
 2507              	.LASF63:
 2508 0155 5F626C6B 		.ascii	"_blksize\000"
 2508      73697A65 
 2508      00
 2509              	.LASF133:
 2510 015e 68656170 		.ascii	"heapSTRUCT_SIZE\000"
 2510      53545255 
 2510      43545F53 
 2510      495A4500 
 2511              	.LASF124:
 2512 016e 75696E74 		.ascii	"uint16_t\000"
 2512      31365F74 
 2512      00
 2513              	.LASF127:
 2514 0177 42617365 		.ascii	"BaseType_t\000"
 2514      54797065 
 2514      5F7400
 2515              	.LASF85:
 2516 0182 5F637674 		.ascii	"_cvtbuf\000"
 2516      62756600 
 2517              	.LASF64:
 2518 018a 5F6F6666 		.ascii	"_offset\000"
 2518      73657400 
 2519              	.LASF114:
 2520 0192 5F6D6273 		.ascii	"_mbsrtowcs_state\000"
 2520      72746F77 
 2520      63735F73 
 2520      74617465 
 2520      00
 2521              	.LASF112:
 2522 01a3 5F6D6272 		.ascii	"_mbrlen_state\000"
 2522      6C656E5F 
 2522      73746174 
 2522      6500
 2523              	.LASF42:
 2524 01b1 5F666E61 		.ascii	"_fnargs\000"
 2524      72677300 
 2525              	.LASF48:
 2526 01b9 5F666E73 		.ascii	"_fns\000"
 2526      00
 2527              	.LASF9:
 2528 01be 5F5F7569 		.ascii	"__uint32_t\000"
 2528      6E743332 
 2528      5F7400
 2529              	.LASF28:
 2530 01c9 5F736967 		.ascii	"_sign\000"
 2530      6E00
 2531              	.LASF142:
 2532 01cf 7076506F 		.ascii	"pvPortMalloc\000"
 2532      72744D61 
 2532      6C6C6F63 
 2532      00
 2533              	.LASF152:
 2534 01dc 70727648 		.ascii	"prvHeapInit\000"
 2534      65617049 
 2534      6E697400 
ARM GAS  /tmp/ccU5WO6B.s 			page 52


 2535              	.LASF23:
 2536 01e8 5F666C6F 		.ascii	"_flock_t\000"
 2536      636B5F74 
 2536      00
 2537              	.LASF73:
 2538 01f1 5F737464 		.ascii	"_stderr\000"
 2538      65727200 
 2539              	.LASF30:
 2540 01f9 5F426967 		.ascii	"_Bigint\000"
 2540      696E7400 
 2541              	.LASF103:
 2542 0201 5F67616D 		.ascii	"_gamma_signgam\000"
 2542      6D615F73 
 2542      69676E67 
 2542      616D00
 2543              	.LASF151:
 2544 0210 2F686F6D 		.ascii	"/home/sls/workspace/stm32f103c8-blink\000"
 2544      652F736C 
 2544      732F776F 
 2544      726B7370 
 2544      6163652F 
 2545              	.LASF81:
 2546 0236 5F726573 		.ascii	"_result_k\000"
 2546      756C745F 
 2546      6B00
 2547              	.LASF31:
 2548 0240 5F5F746D 		.ascii	"__tm\000"
 2548      00
 2549              	.LASF0:
 2550 0245 756E7369 		.ascii	"unsigned int\000"
 2550      676E6564 
 2550      20696E74 
 2550      00
 2551              	.LASF18:
 2552 0252 5F5F7763 		.ascii	"__wchb\000"
 2552      686200
 2553              	.LASF126:
 2554 0259 53797374 		.ascii	"SystemCoreClock\000"
 2554      656D436F 
 2554      7265436C 
 2554      6F636B00 
 2555              	.LASF72:
 2556 0269 5F737464 		.ascii	"_stdout\000"
 2556      6F757400 
 2557              	.LASF84:
 2558 0271 5F637674 		.ascii	"_cvtlen\000"
 2558      6C656E00 
 2559              	.LASF10:
 2560 0279 6C6F6E67 		.ascii	"long unsigned int\000"
 2560      20756E73 
 2560      69676E65 
 2560      6420696E 
 2560      7400
 2561              	.LASF54:
 2562 028b 5F66696C 		.ascii	"_file\000"
 2562      6500
 2563              	.LASF143:
ARM GAS  /tmp/ccU5WO6B.s 			page 53


 2564 0291 7857616E 		.ascii	"xWantedSize\000"
 2564      74656453 
 2564      697A6500 
 2565              	.LASF93:
 2566 029d 5F6E696F 		.ascii	"_niobs\000"
 2566      627300
 2567              	.LASF7:
 2568 02a4 73686F72 		.ascii	"short unsigned int\000"
 2568      7420756E 
 2568      7369676E 
 2568      65642069 
 2568      6E7400
 2569              	.LASF87:
 2570 02b7 5F617465 		.ascii	"_atexit0\000"
 2570      78697430 
 2570      00
 2571              	.LASF110:
 2572 02c0 5F736967 		.ascii	"_signal_buf\000"
 2572      6E616C5F 
 2572      62756600 
 2573              	.LASF101:
 2574 02cc 5F617363 		.ascii	"_asctime_buf\000"
 2574      74696D65 
 2574      5F627566 
 2574      00
 2575              	.LASF80:
 2576 02d9 5F726573 		.ascii	"_result\000"
 2576      756C7400 
 2577              	.LASF17:
 2578 02e1 5F5F7763 		.ascii	"__wch\000"
 2578      6800
 2579              	.LASF16:
 2580 02e7 77696E74 		.ascii	"wint_t\000"
 2580      5F7400
 2581              	.LASF66:
 2582 02ee 5F6C6F63 		.ascii	"_lock\000"
 2582      6B00
 2583              	.LASF68:
 2584 02f4 5F666C61 		.ascii	"_flags2\000"
 2584      67733200 
 2585              	.LASF147:
 2586 02fc 78486561 		.ascii	"xHeapHasBeenInitialised\000"
 2586      70486173 
 2586      4265656E 
 2586      496E6974 
 2586      69616C69 
 2587              	.LASF58:
 2588 0314 5F777269 		.ascii	"_write\000"
 2588      746500
 2589              	.LASF37:
 2590 031b 5F5F746D 		.ascii	"__tm_year\000"
 2590      5F796561 
 2590      7200
 2591              	.LASF19:
 2592 0325 73697A65 		.ascii	"sizetype\000"
 2592      74797065 
 2592      00
ARM GAS  /tmp/ccU5WO6B.s 			page 54


 2593              	.LASF136:
 2594 032e 78467265 		.ascii	"xFreeBytesRemaining\000"
 2594      65427974 
 2594      65735265 
 2594      6D61696E 
 2594      696E6700 
 2595              	.LASF118:
 2596 0342 5F6E6578 		.ascii	"_nextf\000"
 2596      746600
 2597              	.LASF138:
 2598 0349 70756341 		.ascii	"pucAlignedHeap\000"
 2598      6C69676E 
 2598      65644865 
 2598      617000
 2599              	.LASF36:
 2600 0358 5F5F746D 		.ascii	"__tm_mon\000"
 2600      5F6D6F6E 
 2600      00
 2601              	.LASF132:
 2602 0361 75634865 		.ascii	"ucHeap\000"
 2602      617000
 2603              	.LASF46:
 2604 0368 5F617465 		.ascii	"_atexit\000"
 2604      78697400 
 2605              	.LASF78:
 2606 0370 5F5F7364 		.ascii	"__sdidinit\000"
 2606      6964696E 
 2606      697400
 2607              	.LASF14:
 2608 037b 5F6F6666 		.ascii	"_off_t\000"
 2608      5F7400
 2609              	.LASF149:
 2610 0382 474E5520 		.ascii	"GNU C99 6.3.1 20170620 -mthumb -mcpu=cortex-m3 -g -"
 2610      43393920 
 2610      362E332E 
 2610      31203230 
 2610      31373036 
 2611 03b5 7374643D 		.ascii	"std=c99 -fno-common\000"
 2611      63393920 
 2611      2D666E6F 
 2611      2D636F6D 
 2611      6D6F6E00 
 2612              	.LASF137:
 2613 03c9 70784669 		.ascii	"pxFirstFreeBlock\000"
 2613      72737446 
 2613      72656542 
 2613      6C6F636B 
 2613      00
 2614              	.LASF146:
 2615 03da 70784E65 		.ascii	"pxNewBlockLink\000"
 2615      77426C6F 
 2615      636B4C69 
 2615      6E6B00
 2616              	.LASF83:
 2617 03e9 5F667265 		.ascii	"_freelist\000"
 2617      656C6973 
 2617      7400
ARM GAS  /tmp/ccU5WO6B.s 			page 55


 2618              	.LASF148:
 2619 03f3 70765265 		.ascii	"pvReturn\000"
 2619      7475726E 
 2619      00
 2620              	.LASF13:
 2621 03fc 5F4C4F43 		.ascii	"_LOCK_RECURSIVE_T\000"
 2621      4B5F5245 
 2621      43555253 
 2621      4956455F 
 2621      5400
 2622              	.LASF57:
 2623 040e 5F726561 		.ascii	"_read\000"
 2623      6400
 2624              	.LASF128:
 2625 0414 415F424C 		.ascii	"A_BLOCK_LINK\000"
 2625      4F434B5F 
 2625      4C494E4B 
 2625      00
 2626              	.LASF4:
 2627 0421 756E7369 		.ascii	"unsigned char\000"
 2627      676E6564 
 2627      20636861 
 2627      7200
 2628              	.LASF154:
 2629 042f 78506F72 		.ascii	"xPortGetFreeHeapSize\000"
 2629      74476574 
 2629      46726565 
 2629      48656170 
 2629      53697A65 
 2630              	.LASF86:
 2631 0444 5F6E6577 		.ascii	"_new\000"
 2631      00
 2632              	.LASF117:
 2633 0449 5F685F65 		.ascii	"_h_errno\000"
 2633      72726E6F 
 2633      00
 2634              	.LASF5:
 2635 0452 73686F72 		.ascii	"short int\000"
 2635      7420696E 
 2635      7400
 2636              	.LASF39:
 2637 045c 5F5F746D 		.ascii	"__tm_yday\000"
 2637      5F796461 
 2637      7900
 2638              	.LASF49:
 2639 0466 5F5F7362 		.ascii	"__sbuf\000"
 2639      756600
 2640              	.LASF94:
 2641 046d 5F696F62 		.ascii	"_iobs\000"
 2641      7300
 2642              	.LASF91:
 2643 0473 5F5F4649 		.ascii	"__FILE\000"
 2643      4C4500
 2644              	.LASF22:
 2645 047a 5F6D6273 		.ascii	"_mbstate_t\000"
 2645      74617465 
 2645      5F7400
ARM GAS  /tmp/ccU5WO6B.s 			page 56


 2646              	.LASF52:
 2647 0485 5F5F7346 		.ascii	"__sFILE\000"
 2647      494C4500 
 2648              	.LASF67:
 2649 048d 5F6D6273 		.ascii	"_mbstate\000"
 2649      74617465 
 2649      00
 2650              	.LASF104:
 2651 0496 5F72616E 		.ascii	"_rand_next\000"
 2651      645F6E65 
 2651      787400
 2652              	.LASF153:
 2653 04a1 76506F72 		.ascii	"vPortInitialiseBlocks\000"
 2653      74496E69 
 2653      7469616C 
 2653      69736542 
 2653      6C6F636B 
 2654              	.LASF106:
 2655 04b7 5F6D626C 		.ascii	"_mblen_state\000"
 2655      656E5F73 
 2655      74617465 
 2655      00
 2656              	.LASF74:
 2657 04c4 5F696E63 		.ascii	"_inc\000"
 2657      00
 2658              	.LASF47:
 2659 04c9 5F696E64 		.ascii	"_ind\000"
 2659      00
 2660              	.LASF77:
 2661 04ce 5F637572 		.ascii	"_current_locale\000"
 2661      72656E74 
 2661      5F6C6F63 
 2661      616C6500 
 2662              	.LASF79:
 2663 04de 5F5F636C 		.ascii	"__cleanup\000"
 2663      65616E75 
 2663      7000
 2664              	.LASF141:
 2665 04e8 76506F72 		.ascii	"vPortFree\000"
 2665      74467265 
 2665      6500
 2666              	.LASF27:
 2667 04f2 5F6D6178 		.ascii	"_maxwds\000"
 2667      77647300 
 2668              	.LASF69:
 2669 04fa 5F726565 		.ascii	"_reent\000"
 2669      6E7400
 2670              	.LASF96:
 2671 0501 5F736565 		.ascii	"_seed\000"
 2671      6400
 2672              	.LASF20:
 2673 0507 5F5F636F 		.ascii	"__count\000"
 2673      756E7400 
 2674              	.LASF21:
 2675 050f 5F5F7661 		.ascii	"__value\000"
 2675      6C756500 
 2676              	.LASF59:
ARM GAS  /tmp/ccU5WO6B.s 			page 57


 2677 0517 5F736565 		.ascii	"_seek\000"
 2677      6B00
 2678              	.LASF121:
 2679 051d 5F696D70 		.ascii	"_impure_ptr\000"
 2679      7572655F 
 2679      70747200 
 2680              	.LASF15:
 2681 0529 5F66706F 		.ascii	"_fpos_t\000"
 2681      735F7400 
 2682              	.LASF70:
 2683 0531 5F657272 		.ascii	"_errno\000"
 2683      6E6F00
 2684              	.LASF24:
 2685 0538 63686172 		.ascii	"char\000"
 2685      00
 2686              	.LASF135:
 2687 053d 78456E64 		.ascii	"xEnd\000"
 2687      00
 2688              	.LASF33:
 2689 0542 5F5F746D 		.ascii	"__tm_min\000"
 2689      5F6D696E 
 2689      00
 2690              	.LASF6:
 2691 054b 5F5F7569 		.ascii	"__uint16_t\000"
 2691      6E743136 
 2691      5F7400
 2692              	.LASF150:
 2693 0556 46726565 		.ascii	"FreeRTOS/Source/portable/MemMang/heap_2.c\000"
 2693      52544F53 
 2693      2F536F75 
 2693      7263652F 
 2693      706F7274 
 2694              	.LASF123:
 2695 0580 75696E74 		.ascii	"uint8_t\000"
 2695      385F7400 
 2696              	.LASF97:
 2697 0588 5F6D756C 		.ascii	"_mult\000"
 2697      7400
 2698              	.LASF26:
 2699 058e 5F6E6578 		.ascii	"_next\000"
 2699      7400
 2700              	.LASF100:
 2701 0594 5F737472 		.ascii	"_strtok_last\000"
 2701      746F6B5F 
 2701      6C617374 
 2701      00
 2702              	.LASF44:
 2703 05a1 5F666E74 		.ascii	"_fntypes\000"
 2703      79706573 
 2703      00
 2704              	.LASF98:
 2705 05aa 5F616464 		.ascii	"_add\000"
 2705      00
 2706              	.LASF140:
 2707 05af 70784974 		.ascii	"pxIterator\000"
 2707      65726174 
 2707      6F7200
ARM GAS  /tmp/ccU5WO6B.s 			page 58


 2708              	.LASF25:
 2709 05ba 5F5F554C 		.ascii	"__ULong\000"
 2709      6F6E6700 
 2710              	.LASF111:
 2711 05c2 5F676574 		.ascii	"_getdate_err\000"
 2711      64617465 
 2711      5F657272 
 2711      00
 2712              	.LASF122:
 2713 05cf 5F676C6F 		.ascii	"_global_impure_ptr\000"
 2713      62616C5F 
 2713      696D7075 
 2713      72655F70 
 2713      747200
 2714              	.LASF76:
 2715 05e2 5F637572 		.ascii	"_current_category\000"
 2715      72656E74 
 2715      5F636174 
 2715      65676F72 
 2715      7900
 2716              	.LASF125:
 2717 05f4 75696E74 		.ascii	"uint32_t\000"
 2717      33325F74 
 2717      00
 2718              	.LASF131:
 2719 05fd 426C6F63 		.ascii	"BlockLink_t\000"
 2719      6B4C696E 
 2719      6B5F7400 
 2720              	.LASF99:
 2721 0609 5F756E75 		.ascii	"_unused_rand\000"
 2721      7365645F 
 2721      72616E64 
 2721      00
 2722              	.LASF29:
 2723 0616 5F776473 		.ascii	"_wds\000"
 2723      00
 2724              	.LASF38:
 2725 061b 5F5F746D 		.ascii	"__tm_wday\000"
 2725      5F776461 
 2725      7900
 2726              	.LASF92:
 2727 0625 5F676C75 		.ascii	"_glue\000"
 2727      6500
 2728              	.LASF119:
 2729 062b 5F6E6D61 		.ascii	"_nmalloc\000"
 2729      6C6C6F63 
 2729      00
 2730              	.LASF109:
 2731 0634 5F6C3634 		.ascii	"_l64a_buf\000"
 2731      615F6275 
 2731      6600
 2732              	.LASF88:
 2733 063e 5F736967 		.ascii	"_sig_func\000"
 2733      5F66756E 
 2733      6300
 2734              	.LASF62:
 2735 0648 5F6E6275 		.ascii	"_nbuf\000"
ARM GAS  /tmp/ccU5WO6B.s 			page 59


 2735      6600
 2736              	.LASF120:
 2737 064e 5F756E75 		.ascii	"_unused\000"
 2737      73656400 
 2738              	.LASF40:
 2739 0656 5F5F746D 		.ascii	"__tm_isdst\000"
 2739      5F697364 
 2739      737400
 2740              	.LASF102:
 2741 0661 5F6C6F63 		.ascii	"_localtime_buf\000"
 2741      616C7469 
 2741      6D655F62 
 2741      756600
 2742              	.LASF60:
 2743 0670 5F636C6F 		.ascii	"_close\000"
 2743      736500
 2744              	.LASF105:
 2745 0677 5F723438 		.ascii	"_r48\000"
 2745      00
 2746              	.LASF107:
 2747 067c 5F6D6274 		.ascii	"_mbtowc_state\000"
 2747      6F77635F 
 2747      73746174 
 2747      6500
 2748              	.LASF82:
 2749 068a 5F703573 		.ascii	"_p5s\000"
 2749      00
 2750              	.LASF35:
 2751 068f 5F5F746D 		.ascii	"__tm_mday\000"
 2751      5F6D6461 
 2751      7900
 2752              		.ident	"GCC: (15:6.3.1+svn253039-1build1) 6.3.1 20170620"
ARM GAS  /tmp/ccU5WO6B.s 			page 60


DEFINED SYMBOLS
                            *ABS*:0000000000000000 heap_2.c
     /tmp/ccU5WO6B.s:16     .bss:0000000000000000 $d
     /tmp/ccU5WO6B.s:17     .bss:0000000000000000 ucHeap
     /tmp/ccU5WO6B.s:21     .rodata:0000000000000000 $d
     /tmp/ccU5WO6B.s:24     .rodata:0000000000000000 heapSTRUCT_SIZE
     /tmp/ccU5WO6B.s:28     .bss:0000000000002000 xStart
     /tmp/ccU5WO6B.s:32     .bss:0000000000002008 xEnd
     /tmp/ccU5WO6B.s:36     .data:0000000000000000 $d
     /tmp/ccU5WO6B.s:39     .data:0000000000000000 xFreeBytesRemaining
     /tmp/ccU5WO6B.s:42     .text:0000000000000000 $t
     /tmp/ccU5WO6B.s:49     .text:0000000000000000 pvPortMalloc
     /tmp/ccU5WO6B.s:417    .text:00000000000001b0 prvHeapInit
     /tmp/ccU5WO6B.s:238    .text:000000000000010c $d
     /tmp/ccU5WO6B.s:484    .bss:0000000000002010 xHeapHasBeenInitialised.4857
     /tmp/ccU5WO6B.s:245    .text:000000000000011c $t
     /tmp/ccU5WO6B.s:252    .text:000000000000011c vPortFree
     /tmp/ccU5WO6B.s:337    .text:0000000000000188 $d
     /tmp/ccU5WO6B.s:342    .text:0000000000000190 $t
     /tmp/ccU5WO6B.s:349    .text:0000000000000190 xPortGetFreeHeapSize
     /tmp/ccU5WO6B.s:376    .text:00000000000001a0 $d
     /tmp/ccU5WO6B.s:380    .text:00000000000001a4 $t
     /tmp/ccU5WO6B.s:387    .text:00000000000001a4 vPortInitialiseBlocks
     /tmp/ccU5WO6B.s:476    .text:00000000000001f4 $d
                     .debug_frame:0000000000000010 $d

UNDEFINED SYMBOLS
vTaskSuspendAll
xTaskResumeAll
