ARM GAS  /tmp/ccU5WO6B.s 			page 1


   1              		.cpu cortex-m3
   2              		.eabi_attribute 20, 1
   3              		.eabi_attribute 21, 1
   4              		.eabi_attribute 23, 3
   5              		.eabi_attribute 24, 1
   6              		.eabi_attribute 25, 1
   7              		.eabi_attribute 26, 1
   8              		.eabi_attribute 30, 6
   9              		.eabi_attribute 34, 1
  10              		.eabi_attribute 18, 4
  11              		.file	"heap_2.c"
  12              		.text
  13              	.Ltext0:
  14              		.cfi_sections	.debug_frame
  15              		.bss
  16              		.align	2
  17              	ucHeap:
  18 0000 00000000 		.space	8192
  18      00000000 
  18      00000000 
  18      00000000 
  18      00000000 
  19              		.size	ucHeap, 8192
  20              		.section	.rodata
  21              		.align	1
  22              		.type	heapSTRUCT_SIZE, %object
  23              		.size	heapSTRUCT_SIZE, 2
  24              	heapSTRUCT_SIZE:
  25 0000 0800     		.short	8
  26              		.bss
  27              		.align	2
  28              	xStart:
  29 2000 00000000 		.space	8
  29      00000000 
  30              		.size	xStart, 8
  31              		.align	2
  32              	xEnd:
  33 2008 00000000 		.space	8
  33      00000000 
  34              		.size	xEnd, 8
  35              		.data
  36              		.align	2
  37              		.type	xFreeBytesRemaining, %object
  38              		.size	xFreeBytesRemaining, 4
  39              	xFreeBytesRemaining:
  40 0000 F81F0000 		.word	8184
  41              		.text
  42              		.align	1
  43              		.global	pvPortMalloc
  44              		.syntax unified
  45              		.thumb
  46              		.thumb_func
  47              		.fpu softvfp
  48              		.type	pvPortMalloc, %function
  49              	pvPortMalloc:
  50              	.LFB5:
  51              		.file 1 "FreeRTOS/Source/portable/MemMang/heap_2.c"
ARM GAS  /tmp/ccU5WO6B.s 			page 2


   1:FreeRTOS/Source/portable/MemMang/heap_2.c **** /*
   2:FreeRTOS/Source/portable/MemMang/heap_2.c ****  * FreeRTOS Kernel V10.3.1
   3:FreeRTOS/Source/portable/MemMang/heap_2.c ****  * Copyright (C) 2020 Amazon.com, Inc. or its affiliates.  All Rights Reserved.
   4:FreeRTOS/Source/portable/MemMang/heap_2.c ****  *
   5:FreeRTOS/Source/portable/MemMang/heap_2.c ****  * Permission is hereby granted, free of charge, to any person obtaining a copy of
   6:FreeRTOS/Source/portable/MemMang/heap_2.c ****  * this software and associated documentation files (the "Software"), to deal in
   7:FreeRTOS/Source/portable/MemMang/heap_2.c ****  * the Software without restriction, including without limitation the rights to
   8:FreeRTOS/Source/portable/MemMang/heap_2.c ****  * use, copy, modify, merge, publish, distribute, sublicense, and/or sell copies of
   9:FreeRTOS/Source/portable/MemMang/heap_2.c ****  * the Software, and to permit persons to whom the Software is furnished to do so,
  10:FreeRTOS/Source/portable/MemMang/heap_2.c ****  * subject to the following conditions:
  11:FreeRTOS/Source/portable/MemMang/heap_2.c ****  *
  12:FreeRTOS/Source/portable/MemMang/heap_2.c ****  * The above copyright notice and this permission notice shall be included in all
  13:FreeRTOS/Source/portable/MemMang/heap_2.c ****  * copies or substantial portions of the Software.
  14:FreeRTOS/Source/portable/MemMang/heap_2.c ****  *
  15:FreeRTOS/Source/portable/MemMang/heap_2.c ****  * THE SOFTWARE IS PROVIDED "AS IS", WITHOUT WARRANTY OF ANY KIND, EXPRESS OR
  16:FreeRTOS/Source/portable/MemMang/heap_2.c ****  * IMPLIED, INCLUDING BUT NOT LIMITED TO THE WARRANTIES OF MERCHANTABILITY, FITNESS
  17:FreeRTOS/Source/portable/MemMang/heap_2.c ****  * FOR A PARTICULAR PURPOSE AND NONINFRINGEMENT. IN NO EVENT SHALL THE AUTHORS OR
  18:FreeRTOS/Source/portable/MemMang/heap_2.c ****  * COPYRIGHT HOLDERS BE LIABLE FOR ANY CLAIM, DAMAGES OR OTHER LIABILITY, WHETHER
  19:FreeRTOS/Source/portable/MemMang/heap_2.c ****  * IN AN ACTION OF CONTRACT, TORT OR OTHERWISE, ARISING FROM, OUT OF OR IN
  20:FreeRTOS/Source/portable/MemMang/heap_2.c ****  * CONNECTION WITH THE SOFTWARE OR THE USE OR OTHER DEALINGS IN THE SOFTWARE.
  21:FreeRTOS/Source/portable/MemMang/heap_2.c ****  *
  22:FreeRTOS/Source/portable/MemMang/heap_2.c ****  * http://www.FreeRTOS.org
  23:FreeRTOS/Source/portable/MemMang/heap_2.c ****  * http://aws.amazon.com/freertos
  24:FreeRTOS/Source/portable/MemMang/heap_2.c ****  *
  25:FreeRTOS/Source/portable/MemMang/heap_2.c ****  * 1 tab == 4 spaces!
  26:FreeRTOS/Source/portable/MemMang/heap_2.c ****  */
  27:FreeRTOS/Source/portable/MemMang/heap_2.c **** 
  28:FreeRTOS/Source/portable/MemMang/heap_2.c **** /*
  29:FreeRTOS/Source/portable/MemMang/heap_2.c ****  * A sample implementation of pvPortMalloc() and vPortFree() that permits
  30:FreeRTOS/Source/portable/MemMang/heap_2.c ****  * allocated blocks to be freed, but does not combine adjacent free blocks
  31:FreeRTOS/Source/portable/MemMang/heap_2.c ****  * into a single larger block (and so will fragment memory).  See heap_4.c for
  32:FreeRTOS/Source/portable/MemMang/heap_2.c ****  * an equivalent that does combine adjacent blocks into single larger blocks.
  33:FreeRTOS/Source/portable/MemMang/heap_2.c ****  *
  34:FreeRTOS/Source/portable/MemMang/heap_2.c ****  * See heap_1.c, heap_3.c and heap_4.c for alternative implementations, and the
  35:FreeRTOS/Source/portable/MemMang/heap_2.c ****  * memory management pages of http://www.FreeRTOS.org for more information.
  36:FreeRTOS/Source/portable/MemMang/heap_2.c ****  */
  37:FreeRTOS/Source/portable/MemMang/heap_2.c **** #include <stdlib.h>
  38:FreeRTOS/Source/portable/MemMang/heap_2.c **** 
  39:FreeRTOS/Source/portable/MemMang/heap_2.c **** /* Defining MPU_WRAPPERS_INCLUDED_FROM_API_FILE prevents task.h from redefining
  40:FreeRTOS/Source/portable/MemMang/heap_2.c **** all the API functions to use the MPU wrappers.  That should only be done when
  41:FreeRTOS/Source/portable/MemMang/heap_2.c **** task.h is included from an application file. */
  42:FreeRTOS/Source/portable/MemMang/heap_2.c **** #define MPU_WRAPPERS_INCLUDED_FROM_API_FILE
  43:FreeRTOS/Source/portable/MemMang/heap_2.c **** 
  44:FreeRTOS/Source/portable/MemMang/heap_2.c **** #include "FreeRTOS.h"
  45:FreeRTOS/Source/portable/MemMang/heap_2.c **** #include "task.h"
  46:FreeRTOS/Source/portable/MemMang/heap_2.c **** 
  47:FreeRTOS/Source/portable/MemMang/heap_2.c **** #undef MPU_WRAPPERS_INCLUDED_FROM_API_FILE
  48:FreeRTOS/Source/portable/MemMang/heap_2.c **** 
  49:FreeRTOS/Source/portable/MemMang/heap_2.c **** #if( configSUPPORT_DYNAMIC_ALLOCATION == 0 )
  50:FreeRTOS/Source/portable/MemMang/heap_2.c **** 	#error This file must not be used if configSUPPORT_DYNAMIC_ALLOCATION is 0
  51:FreeRTOS/Source/portable/MemMang/heap_2.c **** #endif
  52:FreeRTOS/Source/portable/MemMang/heap_2.c **** 
  53:FreeRTOS/Source/portable/MemMang/heap_2.c **** /* A few bytes might be lost to byte aligning the heap start address. */
  54:FreeRTOS/Source/portable/MemMang/heap_2.c **** #define configADJUSTED_HEAP_SIZE	( configTOTAL_HEAP_SIZE - portBYTE_ALIGNMENT )
  55:FreeRTOS/Source/portable/MemMang/heap_2.c **** 
  56:FreeRTOS/Source/portable/MemMang/heap_2.c **** /*
  57:FreeRTOS/Source/portable/MemMang/heap_2.c ****  * Initialises the heap structures before their first use.
ARM GAS  /tmp/ccU5WO6B.s 			page 3


  58:FreeRTOS/Source/portable/MemMang/heap_2.c ****  */
  59:FreeRTOS/Source/portable/MemMang/heap_2.c **** static void prvHeapInit( void );
  60:FreeRTOS/Source/portable/MemMang/heap_2.c **** 
  61:FreeRTOS/Source/portable/MemMang/heap_2.c **** /* Allocate the memory for the heap. */
  62:FreeRTOS/Source/portable/MemMang/heap_2.c **** #if( configAPPLICATION_ALLOCATED_HEAP == 1 )
  63:FreeRTOS/Source/portable/MemMang/heap_2.c **** 	/* The application writer has already defined the array used for the RTOS
  64:FreeRTOS/Source/portable/MemMang/heap_2.c **** 	heap - probably so it can be placed in a special segment or address. */
  65:FreeRTOS/Source/portable/MemMang/heap_2.c **** 	extern uint8_t ucHeap[ configTOTAL_HEAP_SIZE ];
  66:FreeRTOS/Source/portable/MemMang/heap_2.c **** #else
  67:FreeRTOS/Source/portable/MemMang/heap_2.c **** 	static uint8_t ucHeap[ configTOTAL_HEAP_SIZE ];
  68:FreeRTOS/Source/portable/MemMang/heap_2.c **** #endif /* configAPPLICATION_ALLOCATED_HEAP */
  69:FreeRTOS/Source/portable/MemMang/heap_2.c **** 
  70:FreeRTOS/Source/portable/MemMang/heap_2.c **** 
  71:FreeRTOS/Source/portable/MemMang/heap_2.c **** /* Define the linked list structure.  This is used to link free blocks in order
  72:FreeRTOS/Source/portable/MemMang/heap_2.c **** of their size. */
  73:FreeRTOS/Source/portable/MemMang/heap_2.c **** typedef struct A_BLOCK_LINK
  74:FreeRTOS/Source/portable/MemMang/heap_2.c **** {
  75:FreeRTOS/Source/portable/MemMang/heap_2.c **** 	struct A_BLOCK_LINK *pxNextFreeBlock;	/*<< The next free block in the list. */
  76:FreeRTOS/Source/portable/MemMang/heap_2.c **** 	size_t xBlockSize;						/*<< The size of the free block. */
  77:FreeRTOS/Source/portable/MemMang/heap_2.c **** } BlockLink_t;
  78:FreeRTOS/Source/portable/MemMang/heap_2.c **** 
  79:FreeRTOS/Source/portable/MemMang/heap_2.c **** 
  80:FreeRTOS/Source/portable/MemMang/heap_2.c **** static const uint16_t heapSTRUCT_SIZE	= ( ( sizeof ( BlockLink_t ) + ( portBYTE_ALIGNMENT - 1 ) ) &
  81:FreeRTOS/Source/portable/MemMang/heap_2.c **** #define heapMINIMUM_BLOCK_SIZE	( ( size_t ) ( heapSTRUCT_SIZE * 2 ) )
  82:FreeRTOS/Source/portable/MemMang/heap_2.c **** 
  83:FreeRTOS/Source/portable/MemMang/heap_2.c **** /* Create a couple of list links to mark the start and end of the list. */
  84:FreeRTOS/Source/portable/MemMang/heap_2.c **** static BlockLink_t xStart, xEnd;
  85:FreeRTOS/Source/portable/MemMang/heap_2.c **** 
  86:FreeRTOS/Source/portable/MemMang/heap_2.c **** /* Keeps track of the number of free bytes remaining, but says nothing about
  87:FreeRTOS/Source/portable/MemMang/heap_2.c **** fragmentation. */
  88:FreeRTOS/Source/portable/MemMang/heap_2.c **** static size_t xFreeBytesRemaining = configADJUSTED_HEAP_SIZE;
  89:FreeRTOS/Source/portable/MemMang/heap_2.c **** 
  90:FreeRTOS/Source/portable/MemMang/heap_2.c **** /* STATIC FUNCTIONS ARE DEFINED AS MACROS TO MINIMIZE THE FUNCTION CALL DEPTH. */
  91:FreeRTOS/Source/portable/MemMang/heap_2.c **** 
  92:FreeRTOS/Source/portable/MemMang/heap_2.c **** /*
  93:FreeRTOS/Source/portable/MemMang/heap_2.c ****  * Insert a block into the list of free blocks - which is ordered by size of
  94:FreeRTOS/Source/portable/MemMang/heap_2.c ****  * the block.  Small blocks at the start of the list and large blocks at the end
  95:FreeRTOS/Source/portable/MemMang/heap_2.c ****  * of the list.
  96:FreeRTOS/Source/portable/MemMang/heap_2.c ****  */
  97:FreeRTOS/Source/portable/MemMang/heap_2.c **** #define prvInsertBlockIntoFreeList( pxBlockToInsert )								\
  98:FreeRTOS/Source/portable/MemMang/heap_2.c **** {																					\
  99:FreeRTOS/Source/portable/MemMang/heap_2.c **** BlockLink_t *pxIterator;															\
 100:FreeRTOS/Source/portable/MemMang/heap_2.c **** size_t xBlockSize;																	\
 101:FreeRTOS/Source/portable/MemMang/heap_2.c **** 																					\
 102:FreeRTOS/Source/portable/MemMang/heap_2.c **** 	xBlockSize = pxBlockToInsert->xBlockSize;										\
 103:FreeRTOS/Source/portable/MemMang/heap_2.c **** 																					\
 104:FreeRTOS/Source/portable/MemMang/heap_2.c **** 	/* Iterate through the list until a block is found that has a larger size */	\
 105:FreeRTOS/Source/portable/MemMang/heap_2.c **** 	/* than the block we are inserting. */											\
 106:FreeRTOS/Source/portable/MemMang/heap_2.c **** 	for( pxIterator = &xStart; pxIterator->pxNextFreeBlock->xBlockSize < xBlockSize; pxIterator = pxIt
 107:FreeRTOS/Source/portable/MemMang/heap_2.c **** 	{																				\
 108:FreeRTOS/Source/portable/MemMang/heap_2.c **** 		/* There is nothing to do here - just iterate to the correct position. */	\
 109:FreeRTOS/Source/portable/MemMang/heap_2.c **** 	}																				\
 110:FreeRTOS/Source/portable/MemMang/heap_2.c **** 																					\
 111:FreeRTOS/Source/portable/MemMang/heap_2.c **** 	/* Update the list to include the block being inserted in the correct */		\
 112:FreeRTOS/Source/portable/MemMang/heap_2.c **** 	/* position. */																	\
 113:FreeRTOS/Source/portable/MemMang/heap_2.c **** 	pxBlockToInsert->pxNextFreeBlock = pxIterator->pxNextFreeBlock;					\
 114:FreeRTOS/Source/portable/MemMang/heap_2.c **** 	pxIterator->pxNextFreeBlock = pxBlockToInsert;									\
ARM GAS  /tmp/ccU5WO6B.s 			page 4


 115:FreeRTOS/Source/portable/MemMang/heap_2.c **** }
 116:FreeRTOS/Source/portable/MemMang/heap_2.c **** /*-----------------------------------------------------------*/
 117:FreeRTOS/Source/portable/MemMang/heap_2.c **** 
 118:FreeRTOS/Source/portable/MemMang/heap_2.c **** void *pvPortMalloc( size_t xWantedSize )
 119:FreeRTOS/Source/portable/MemMang/heap_2.c **** {
  52              		.loc 1 119 0
  53              		.cfi_startproc
  54              		@ args = 0, pretend = 0, frame = 32
  55              		@ frame_needed = 1, uses_anonymous_args = 0
  56 0000 80B5     		push	{r7, lr}
  57              		.cfi_def_cfa_offset 8
  58              		.cfi_offset 7, -8
  59              		.cfi_offset 14, -4
  60 0002 88B0     		sub	sp, sp, #32
  61              		.cfi_def_cfa_offset 40
  62 0004 00AF     		add	r7, sp, #0
  63              		.cfi_def_cfa_register 7
  64 0006 7860     		str	r0, [r7, #4]
 120:FreeRTOS/Source/portable/MemMang/heap_2.c **** BlockLink_t *pxBlock, *pxPreviousBlock, *pxNewBlockLink;
 121:FreeRTOS/Source/portable/MemMang/heap_2.c **** static BaseType_t xHeapHasBeenInitialised = pdFALSE;
 122:FreeRTOS/Source/portable/MemMang/heap_2.c **** void *pvReturn = NULL;
  65              		.loc 1 122 0
  66 0008 0023     		movs	r3, #0
  67 000a 7B61     		str	r3, [r7, #20]
 123:FreeRTOS/Source/portable/MemMang/heap_2.c **** 
 124:FreeRTOS/Source/portable/MemMang/heap_2.c **** 	vTaskSuspendAll();
  68              		.loc 1 124 0
  69 000c FFF7FEFF 		bl	vTaskSuspendAll
 125:FreeRTOS/Source/portable/MemMang/heap_2.c **** 	{
 126:FreeRTOS/Source/portable/MemMang/heap_2.c **** 		/* If this is the first call to malloc then the heap will require
 127:FreeRTOS/Source/portable/MemMang/heap_2.c **** 		initialisation to setup the list of free blocks. */
 128:FreeRTOS/Source/portable/MemMang/heap_2.c **** 		if( xHeapHasBeenInitialised == pdFALSE )
  70              		.loc 1 128 0
  71 0010 3E4B     		ldr	r3, .L12
  72 0012 1B68     		ldr	r3, [r3]
  73 0014 002B     		cmp	r3, #0
  74 0016 04D1     		bne	.L2
 129:FreeRTOS/Source/portable/MemMang/heap_2.c **** 		{
 130:FreeRTOS/Source/portable/MemMang/heap_2.c **** 			prvHeapInit();
  75              		.loc 1 130 0
  76 0018 00F0CAF8 		bl	prvHeapInit
 131:FreeRTOS/Source/portable/MemMang/heap_2.c **** 			xHeapHasBeenInitialised = pdTRUE;
  77              		.loc 1 131 0
  78 001c 3B4B     		ldr	r3, .L12
  79 001e 0122     		movs	r2, #1
  80 0020 1A60     		str	r2, [r3]
  81              	.L2:
 132:FreeRTOS/Source/portable/MemMang/heap_2.c **** 		}
 133:FreeRTOS/Source/portable/MemMang/heap_2.c **** 
 134:FreeRTOS/Source/portable/MemMang/heap_2.c **** 		/* The wanted size is increased so it can contain a BlockLink_t
 135:FreeRTOS/Source/portable/MemMang/heap_2.c **** 		structure in addition to the requested amount of bytes. */
 136:FreeRTOS/Source/portable/MemMang/heap_2.c **** 		if( xWantedSize > 0 )
  82              		.loc 1 136 0
  83 0022 7B68     		ldr	r3, [r7, #4]
  84 0024 002B     		cmp	r3, #0
  85 0026 0ED0     		beq	.L3
 137:FreeRTOS/Source/portable/MemMang/heap_2.c **** 		{
ARM GAS  /tmp/ccU5WO6B.s 			page 5


 138:FreeRTOS/Source/portable/MemMang/heap_2.c **** 			xWantedSize += heapSTRUCT_SIZE;
  86              		.loc 1 138 0
  87 0028 0823     		movs	r3, #8
  88 002a 1A46     		mov	r2, r3
  89 002c 7B68     		ldr	r3, [r7, #4]
  90 002e 1344     		add	r3, r3, r2
  91 0030 7B60     		str	r3, [r7, #4]
 139:FreeRTOS/Source/portable/MemMang/heap_2.c **** 
 140:FreeRTOS/Source/portable/MemMang/heap_2.c **** 			/* Ensure that blocks are always aligned to the required number of bytes. */
 141:FreeRTOS/Source/portable/MemMang/heap_2.c **** 			if( ( xWantedSize & portBYTE_ALIGNMENT_MASK ) != 0 )
  92              		.loc 1 141 0
  93 0032 7B68     		ldr	r3, [r7, #4]
  94 0034 03F00703 		and	r3, r3, #7
  95 0038 002B     		cmp	r3, #0
  96 003a 04D0     		beq	.L3
 142:FreeRTOS/Source/portable/MemMang/heap_2.c **** 			{
 143:FreeRTOS/Source/portable/MemMang/heap_2.c **** 				/* Byte alignment required. */
 144:FreeRTOS/Source/portable/MemMang/heap_2.c **** 				xWantedSize += ( portBYTE_ALIGNMENT - ( xWantedSize & portBYTE_ALIGNMENT_MASK ) );
  97              		.loc 1 144 0
  98 003c 7B68     		ldr	r3, [r7, #4]
  99 003e 23F00703 		bic	r3, r3, #7
 100 0042 0833     		adds	r3, r3, #8
 101 0044 7B60     		str	r3, [r7, #4]
 102              	.L3:
 145:FreeRTOS/Source/portable/MemMang/heap_2.c **** 			}
 146:FreeRTOS/Source/portable/MemMang/heap_2.c **** 		}
 147:FreeRTOS/Source/portable/MemMang/heap_2.c **** 
 148:FreeRTOS/Source/portable/MemMang/heap_2.c **** 		if( ( xWantedSize > 0 ) && ( xWantedSize < configADJUSTED_HEAP_SIZE ) )
 103              		.loc 1 148 0
 104 0046 7B68     		ldr	r3, [r7, #4]
 105 0048 002B     		cmp	r3, #0
 106 004a 57D0     		beq	.L4
 107              		.loc 1 148 0 is_stmt 0 discriminator 1
 108 004c 7B68     		ldr	r3, [r7, #4]
 109 004e 41F6F772 		movw	r2, #8183
 110 0052 9342     		cmp	r3, r2
 111 0054 52D8     		bhi	.L4
 149:FreeRTOS/Source/portable/MemMang/heap_2.c **** 		{
 150:FreeRTOS/Source/portable/MemMang/heap_2.c **** 			/* Blocks are stored in byte order - traverse the list from the start
 151:FreeRTOS/Source/portable/MemMang/heap_2.c **** 			(smallest) block until one of adequate size is found. */
 152:FreeRTOS/Source/portable/MemMang/heap_2.c **** 			pxPreviousBlock = &xStart;
 112              		.loc 1 152 0 is_stmt 1
 113 0056 2E4B     		ldr	r3, .L12+4
 114 0058 BB61     		str	r3, [r7, #24]
 153:FreeRTOS/Source/portable/MemMang/heap_2.c **** 			pxBlock = xStart.pxNextFreeBlock;
 115              		.loc 1 153 0
 116 005a 2D4B     		ldr	r3, .L12+4
 117 005c 1B68     		ldr	r3, [r3]
 118 005e FB61     		str	r3, [r7, #28]
 154:FreeRTOS/Source/portable/MemMang/heap_2.c **** 			while( ( pxBlock->xBlockSize < xWantedSize ) && ( pxBlock->pxNextFreeBlock != NULL ) )
 119              		.loc 1 154 0
 120 0060 04E0     		b	.L5
 121              	.L7:
 155:FreeRTOS/Source/portable/MemMang/heap_2.c **** 			{
 156:FreeRTOS/Source/portable/MemMang/heap_2.c **** 				pxPreviousBlock = pxBlock;
 122              		.loc 1 156 0
 123 0062 FB69     		ldr	r3, [r7, #28]
ARM GAS  /tmp/ccU5WO6B.s 			page 6


 124 0064 BB61     		str	r3, [r7, #24]
 157:FreeRTOS/Source/portable/MemMang/heap_2.c **** 				pxBlock = pxBlock->pxNextFreeBlock;
 125              		.loc 1 157 0
 126 0066 FB69     		ldr	r3, [r7, #28]
 127 0068 1B68     		ldr	r3, [r3]
 128 006a FB61     		str	r3, [r7, #28]
 129              	.L5:
 154:FreeRTOS/Source/portable/MemMang/heap_2.c **** 			while( ( pxBlock->xBlockSize < xWantedSize ) && ( pxBlock->pxNextFreeBlock != NULL ) )
 130              		.loc 1 154 0
 131 006c FB69     		ldr	r3, [r7, #28]
 132 006e 5A68     		ldr	r2, [r3, #4]
 133 0070 7B68     		ldr	r3, [r7, #4]
 134 0072 9A42     		cmp	r2, r3
 135 0074 03D2     		bcs	.L6
 154:FreeRTOS/Source/portable/MemMang/heap_2.c **** 			while( ( pxBlock->xBlockSize < xWantedSize ) && ( pxBlock->pxNextFreeBlock != NULL ) )
 136              		.loc 1 154 0 is_stmt 0 discriminator 1
 137 0076 FB69     		ldr	r3, [r7, #28]
 138 0078 1B68     		ldr	r3, [r3]
 139 007a 002B     		cmp	r3, #0
 140 007c F1D1     		bne	.L7
 141              	.L6:
 158:FreeRTOS/Source/portable/MemMang/heap_2.c **** 			}
 159:FreeRTOS/Source/portable/MemMang/heap_2.c **** 
 160:FreeRTOS/Source/portable/MemMang/heap_2.c **** 			/* If we found the end marker then a block of adequate size was not found. */
 161:FreeRTOS/Source/portable/MemMang/heap_2.c **** 			if( pxBlock != &xEnd )
 142              		.loc 1 161 0 is_stmt 1
 143 007e FB69     		ldr	r3, [r7, #28]
 144 0080 244A     		ldr	r2, .L12+8
 145 0082 9342     		cmp	r3, r2
 146 0084 3AD0     		beq	.L4
 162:FreeRTOS/Source/portable/MemMang/heap_2.c **** 			{
 163:FreeRTOS/Source/portable/MemMang/heap_2.c **** 				/* Return the memory space - jumping over the BlockLink_t structure
 164:FreeRTOS/Source/portable/MemMang/heap_2.c **** 				at its start. */
 165:FreeRTOS/Source/portable/MemMang/heap_2.c **** 				pvReturn = ( void * ) ( ( ( uint8_t * ) pxPreviousBlock->pxNextFreeBlock ) + heapSTRUCT_SIZE );
 147              		.loc 1 165 0
 148 0086 BB69     		ldr	r3, [r7, #24]
 149 0088 1B68     		ldr	r3, [r3]
 150 008a 0822     		movs	r2, #8
 151 008c 1344     		add	r3, r3, r2
 152 008e 7B61     		str	r3, [r7, #20]
 166:FreeRTOS/Source/portable/MemMang/heap_2.c **** 
 167:FreeRTOS/Source/portable/MemMang/heap_2.c **** 				/* This block is being returned for use so must be taken out of the
 168:FreeRTOS/Source/portable/MemMang/heap_2.c **** 				list of free blocks. */
 169:FreeRTOS/Source/portable/MemMang/heap_2.c **** 				pxPreviousBlock->pxNextFreeBlock = pxBlock->pxNextFreeBlock;
 153              		.loc 1 169 0
 154 0090 FB69     		ldr	r3, [r7, #28]
 155 0092 1A68     		ldr	r2, [r3]
 156 0094 BB69     		ldr	r3, [r7, #24]
 157 0096 1A60     		str	r2, [r3]
 170:FreeRTOS/Source/portable/MemMang/heap_2.c **** 
 171:FreeRTOS/Source/portable/MemMang/heap_2.c **** 				/* If the block is larger than required it can be split into two. */
 172:FreeRTOS/Source/portable/MemMang/heap_2.c **** 				if( ( pxBlock->xBlockSize - xWantedSize ) > heapMINIMUM_BLOCK_SIZE )
 158              		.loc 1 172 0
 159 0098 FB69     		ldr	r3, [r7, #28]
 160 009a 5A68     		ldr	r2, [r3, #4]
 161 009c 7B68     		ldr	r3, [r7, #4]
 162 009e D31A     		subs	r3, r2, r3
ARM GAS  /tmp/ccU5WO6B.s 			page 7


 163 00a0 0822     		movs	r2, #8
 164 00a2 5200     		lsls	r2, r2, #1
 165 00a4 9342     		cmp	r3, r2
 166 00a6 22D9     		bls	.L8
 173:FreeRTOS/Source/portable/MemMang/heap_2.c **** 				{
 174:FreeRTOS/Source/portable/MemMang/heap_2.c **** 					/* This block is to be split into two.  Create a new block
 175:FreeRTOS/Source/portable/MemMang/heap_2.c **** 					following the number of bytes requested. The void cast is
 176:FreeRTOS/Source/portable/MemMang/heap_2.c **** 					used to prevent byte alignment warnings from the compiler. */
 177:FreeRTOS/Source/portable/MemMang/heap_2.c **** 					pxNewBlockLink = ( void * ) ( ( ( uint8_t * ) pxBlock ) + xWantedSize );
 167              		.loc 1 177 0
 168 00a8 FA69     		ldr	r2, [r7, #28]
 169 00aa 7B68     		ldr	r3, [r7, #4]
 170 00ac 1344     		add	r3, r3, r2
 171 00ae FB60     		str	r3, [r7, #12]
 178:FreeRTOS/Source/portable/MemMang/heap_2.c **** 
 179:FreeRTOS/Source/portable/MemMang/heap_2.c **** 					/* Calculate the sizes of two blocks split from the single
 180:FreeRTOS/Source/portable/MemMang/heap_2.c **** 					block. */
 181:FreeRTOS/Source/portable/MemMang/heap_2.c **** 					pxNewBlockLink->xBlockSize = pxBlock->xBlockSize - xWantedSize;
 172              		.loc 1 181 0
 173 00b0 FB69     		ldr	r3, [r7, #28]
 174 00b2 5A68     		ldr	r2, [r3, #4]
 175 00b4 7B68     		ldr	r3, [r7, #4]
 176 00b6 D21A     		subs	r2, r2, r3
 177 00b8 FB68     		ldr	r3, [r7, #12]
 178 00ba 5A60     		str	r2, [r3, #4]
 182:FreeRTOS/Source/portable/MemMang/heap_2.c **** 					pxBlock->xBlockSize = xWantedSize;
 179              		.loc 1 182 0
 180 00bc FB69     		ldr	r3, [r7, #28]
 181 00be 7A68     		ldr	r2, [r7, #4]
 182 00c0 5A60     		str	r2, [r3, #4]
 183              	.LBB2:
 183:FreeRTOS/Source/portable/MemMang/heap_2.c **** 
 184:FreeRTOS/Source/portable/MemMang/heap_2.c **** 					/* Insert the new block into the list of free blocks. */
 185:FreeRTOS/Source/portable/MemMang/heap_2.c **** 					prvInsertBlockIntoFreeList( ( pxNewBlockLink ) );
 184              		.loc 1 185 0
 185 00c2 FB68     		ldr	r3, [r7, #12]
 186 00c4 5B68     		ldr	r3, [r3, #4]
 187 00c6 BB60     		str	r3, [r7, #8]
 188 00c8 114B     		ldr	r3, .L12+4
 189 00ca 3B61     		str	r3, [r7, #16]
 190 00cc 02E0     		b	.L9
 191              	.L10:
 192              		.loc 1 185 0 is_stmt 0 discriminator 3
 193 00ce 3B69     		ldr	r3, [r7, #16]
 194 00d0 1B68     		ldr	r3, [r3]
 195 00d2 3B61     		str	r3, [r7, #16]
 196              	.L9:
 197              		.loc 1 185 0 discriminator 1
 198 00d4 3B69     		ldr	r3, [r7, #16]
 199 00d6 1B68     		ldr	r3, [r3]
 200 00d8 5A68     		ldr	r2, [r3, #4]
 201 00da BB68     		ldr	r3, [r7, #8]
 202 00dc 9A42     		cmp	r2, r3
 203 00de F6D3     		bcc	.L10
 204              		.loc 1 185 0 discriminator 4
 205 00e0 3B69     		ldr	r3, [r7, #16]
 206 00e2 1A68     		ldr	r2, [r3]
ARM GAS  /tmp/ccU5WO6B.s 			page 8


 207 00e4 FB68     		ldr	r3, [r7, #12]
 208 00e6 1A60     		str	r2, [r3]
 209 00e8 3B69     		ldr	r3, [r7, #16]
 210 00ea FA68     		ldr	r2, [r7, #12]
 211 00ec 1A60     		str	r2, [r3]
 212              	.L8:
 213              	.LBE2:
 186:FreeRTOS/Source/portable/MemMang/heap_2.c **** 				}
 187:FreeRTOS/Source/portable/MemMang/heap_2.c **** 
 188:FreeRTOS/Source/portable/MemMang/heap_2.c **** 				xFreeBytesRemaining -= pxBlock->xBlockSize;
 214              		.loc 1 188 0 is_stmt 1
 215 00ee 0A4B     		ldr	r3, .L12+12
 216 00f0 1A68     		ldr	r2, [r3]
 217 00f2 FB69     		ldr	r3, [r7, #28]
 218 00f4 5B68     		ldr	r3, [r3, #4]
 219 00f6 D31A     		subs	r3, r2, r3
 220 00f8 074A     		ldr	r2, .L12+12
 221 00fa 1360     		str	r3, [r2]
 222              	.L4:
 189:FreeRTOS/Source/portable/MemMang/heap_2.c **** 			}
 190:FreeRTOS/Source/portable/MemMang/heap_2.c **** 		}
 191:FreeRTOS/Source/portable/MemMang/heap_2.c **** 
 192:FreeRTOS/Source/portable/MemMang/heap_2.c **** 		traceMALLOC( pvReturn, xWantedSize );
 193:FreeRTOS/Source/portable/MemMang/heap_2.c **** 	}
 194:FreeRTOS/Source/portable/MemMang/heap_2.c **** 	( void ) xTaskResumeAll();
 223              		.loc 1 194 0
 224 00fc FFF7FEFF 		bl	xTaskResumeAll
 195:FreeRTOS/Source/portable/MemMang/heap_2.c **** 
 196:FreeRTOS/Source/portable/MemMang/heap_2.c **** 	#if( configUSE_MALLOC_FAILED_HOOK == 1 )
 197:FreeRTOS/Source/portable/MemMang/heap_2.c **** 	{
 198:FreeRTOS/Source/portable/MemMang/heap_2.c **** 		if( pvReturn == NULL )
 199:FreeRTOS/Source/portable/MemMang/heap_2.c **** 		{
 200:FreeRTOS/Source/portable/MemMang/heap_2.c **** 			extern void vApplicationMallocFailedHook( void );
 201:FreeRTOS/Source/portable/MemMang/heap_2.c **** 			vApplicationMallocFailedHook();
 202:FreeRTOS/Source/portable/MemMang/heap_2.c **** 		}
 203:FreeRTOS/Source/portable/MemMang/heap_2.c **** 	}
 204:FreeRTOS/Source/portable/MemMang/heap_2.c **** 	#endif
 205:FreeRTOS/Source/portable/MemMang/heap_2.c **** 
 206:FreeRTOS/Source/portable/MemMang/heap_2.c **** 	return pvReturn;
 225              		.loc 1 206 0
 226 0100 7B69     		ldr	r3, [r7, #20]
 207:FreeRTOS/Source/portable/MemMang/heap_2.c **** }
 227              		.loc 1 207 0
 228 0102 1846     		mov	r0, r3
 229 0104 2037     		adds	r7, r7, #32
 230              		.cfi_def_cfa_offset 8
 231 0106 BD46     		mov	sp, r7
 232              		.cfi_def_cfa_register 13
 233              		@ sp needed
 234 0108 80BD     		pop	{r7, pc}
 235              	.L13:
 236 010a 00BF     		.align	2
 237              	.L12:
 238 010c 10200000 		.word	xHeapHasBeenInitialised.4857
 239 0110 00200000 		.word	xStart
 240 0114 08200000 		.word	xEnd
 241 0118 00000000 		.word	xFreeBytesRemaining
ARM GAS  /tmp/ccU5WO6B.s 			page 9


 242              		.cfi_endproc
 243              	.LFE5:
 244              		.size	pvPortMalloc, .-pvPortMalloc
 245              		.align	1
 246              		.global	vPortFree
 247              		.syntax unified
 248              		.thumb
 249              		.thumb_func
 250              		.fpu softvfp
 251              		.type	vPortFree, %function
 252              	vPortFree:
 253              	.LFB6:
 208:FreeRTOS/Source/portable/MemMang/heap_2.c **** /*-----------------------------------------------------------*/
 209:FreeRTOS/Source/portable/MemMang/heap_2.c **** 
 210:FreeRTOS/Source/portable/MemMang/heap_2.c **** void vPortFree( void *pv )
 211:FreeRTOS/Source/portable/MemMang/heap_2.c **** {
 254              		.loc 1 211 0
 255              		.cfi_startproc
 256              		@ args = 0, pretend = 0, frame = 24
 257              		@ frame_needed = 1, uses_anonymous_args = 0
 258 011c 80B5     		push	{r7, lr}
 259              		.cfi_def_cfa_offset 8
 260              		.cfi_offset 7, -8
 261              		.cfi_offset 14, -4
 262 011e 86B0     		sub	sp, sp, #24
 263              		.cfi_def_cfa_offset 32
 264 0120 00AF     		add	r7, sp, #0
 265              		.cfi_def_cfa_register 7
 266 0122 7860     		str	r0, [r7, #4]
 212:FreeRTOS/Source/portable/MemMang/heap_2.c **** uint8_t *puc = ( uint8_t * ) pv;
 267              		.loc 1 212 0
 268 0124 7B68     		ldr	r3, [r7, #4]
 269 0126 3B61     		str	r3, [r7, #16]
 213:FreeRTOS/Source/portable/MemMang/heap_2.c **** BlockLink_t *pxLink;
 214:FreeRTOS/Source/portable/MemMang/heap_2.c **** 
 215:FreeRTOS/Source/portable/MemMang/heap_2.c **** 	if( pv != NULL )
 270              		.loc 1 215 0
 271 0128 7B68     		ldr	r3, [r7, #4]
 272 012a 002B     		cmp	r3, #0
 273 012c 27D0     		beq	.L18
 216:FreeRTOS/Source/portable/MemMang/heap_2.c **** 	{
 217:FreeRTOS/Source/portable/MemMang/heap_2.c **** 		/* The memory being freed will have an BlockLink_t structure immediately
 218:FreeRTOS/Source/portable/MemMang/heap_2.c **** 		before it. */
 219:FreeRTOS/Source/portable/MemMang/heap_2.c **** 		puc -= heapSTRUCT_SIZE;
 274              		.loc 1 219 0
 275 012e 0823     		movs	r3, #8
 276 0130 5B42     		negs	r3, r3
 277 0132 3A69     		ldr	r2, [r7, #16]
 278 0134 1344     		add	r3, r3, r2
 279 0136 3B61     		str	r3, [r7, #16]
 220:FreeRTOS/Source/portable/MemMang/heap_2.c **** 
 221:FreeRTOS/Source/portable/MemMang/heap_2.c **** 		/* This unexpected casting is to keep some compilers from issuing
 222:FreeRTOS/Source/portable/MemMang/heap_2.c **** 		byte alignment warnings. */
 223:FreeRTOS/Source/portable/MemMang/heap_2.c **** 		pxLink = ( void * ) puc;
 280              		.loc 1 223 0
 281 0138 3B69     		ldr	r3, [r7, #16]
 282 013a FB60     		str	r3, [r7, #12]
ARM GAS  /tmp/ccU5WO6B.s 			page 10


 224:FreeRTOS/Source/portable/MemMang/heap_2.c **** 
 225:FreeRTOS/Source/portable/MemMang/heap_2.c **** 		vTaskSuspendAll();
 283              		.loc 1 225 0
 284 013c FFF7FEFF 		bl	vTaskSuspendAll
 285              	.LBB3:
 226:FreeRTOS/Source/portable/MemMang/heap_2.c **** 		{
 227:FreeRTOS/Source/portable/MemMang/heap_2.c **** 			/* Add this block to the list of free blocks. */
 228:FreeRTOS/Source/portable/MemMang/heap_2.c **** 			prvInsertBlockIntoFreeList( ( ( BlockLink_t * ) pxLink ) );
 286              		.loc 1 228 0
 287 0140 FB68     		ldr	r3, [r7, #12]
 288 0142 5B68     		ldr	r3, [r3, #4]
 289 0144 BB60     		str	r3, [r7, #8]
 290 0146 104B     		ldr	r3, .L19
 291 0148 7B61     		str	r3, [r7, #20]
 292 014a 02E0     		b	.L16
 293              	.L17:
 294              		.loc 1 228 0 is_stmt 0 discriminator 3
 295 014c 7B69     		ldr	r3, [r7, #20]
 296 014e 1B68     		ldr	r3, [r3]
 297 0150 7B61     		str	r3, [r7, #20]
 298              	.L16:
 299              		.loc 1 228 0 discriminator 1
 300 0152 7B69     		ldr	r3, [r7, #20]
 301 0154 1B68     		ldr	r3, [r3]
 302 0156 5A68     		ldr	r2, [r3, #4]
 303 0158 BB68     		ldr	r3, [r7, #8]
 304 015a 9A42     		cmp	r2, r3
 305 015c F6D3     		bcc	.L17
 306              		.loc 1 228 0 discriminator 4
 307 015e 7B69     		ldr	r3, [r7, #20]
 308 0160 1A68     		ldr	r2, [r3]
 309 0162 FB68     		ldr	r3, [r7, #12]
 310 0164 1A60     		str	r2, [r3]
 311 0166 7B69     		ldr	r3, [r7, #20]
 312 0168 FA68     		ldr	r2, [r7, #12]
 313 016a 1A60     		str	r2, [r3]
 314              	.LBE3:
 229:FreeRTOS/Source/portable/MemMang/heap_2.c **** 			xFreeBytesRemaining += pxLink->xBlockSize;
 315              		.loc 1 229 0 is_stmt 1 discriminator 4
 316 016c FB68     		ldr	r3, [r7, #12]
 317 016e 5A68     		ldr	r2, [r3, #4]
 318 0170 064B     		ldr	r3, .L19+4
 319 0172 1B68     		ldr	r3, [r3]
 320 0174 1344     		add	r3, r3, r2
 321 0176 054A     		ldr	r2, .L19+4
 322 0178 1360     		str	r3, [r2]
 230:FreeRTOS/Source/portable/MemMang/heap_2.c **** 			traceFREE( pv, pxLink->xBlockSize );
 231:FreeRTOS/Source/portable/MemMang/heap_2.c **** 		}
 232:FreeRTOS/Source/portable/MemMang/heap_2.c **** 		( void ) xTaskResumeAll();
 323              		.loc 1 232 0 discriminator 4
 324 017a FFF7FEFF 		bl	xTaskResumeAll
 325              	.L18:
 233:FreeRTOS/Source/portable/MemMang/heap_2.c **** 	}
 234:FreeRTOS/Source/portable/MemMang/heap_2.c **** }
 326              		.loc 1 234 0
 327 017e 00BF     		nop
 328 0180 1837     		adds	r7, r7, #24
ARM GAS  /tmp/ccU5WO6B.s 			page 11


 329              		.cfi_def_cfa_offset 8
 330 0182 BD46     		mov	sp, r7
 331              		.cfi_def_cfa_register 13
 332              		@ sp needed
 333 0184 80BD     		pop	{r7, pc}
 334              	.L20:
 335 0186 00BF     		.align	2
 336              	.L19:
 337 0188 00200000 		.word	xStart
 338 018c 00000000 		.word	xFreeBytesRemaining
 339              		.cfi_endproc
 340              	.LFE6:
 341              		.size	vPortFree, .-vPortFree
 342              		.align	1
 343              		.global	xPortGetFreeHeapSize
 344              		.syntax unified
 345              		.thumb
 346              		.thumb_func
 347              		.fpu softvfp
 348              		.type	xPortGetFreeHeapSize, %function
 349              	xPortGetFreeHeapSize:
 350              	.LFB7:
 235:FreeRTOS/Source/portable/MemMang/heap_2.c **** /*-----------------------------------------------------------*/
 236:FreeRTOS/Source/portable/MemMang/heap_2.c **** 
 237:FreeRTOS/Source/portable/MemMang/heap_2.c **** size_t xPortGetFreeHeapSize( void )
 238:FreeRTOS/Source/portable/MemMang/heap_2.c **** {
 351              		.loc 1 238 0
 352              		.cfi_startproc
 353              		@ args = 0, pretend = 0, frame = 0
 354              		@ frame_needed = 1, uses_anonymous_args = 0
 355              		@ link register save eliminated.
 356 0190 80B4     		push	{r7}
 357              		.cfi_def_cfa_offset 4
 358              		.cfi_offset 7, -4
 359 0192 00AF     		add	r7, sp, #0
 360              		.cfi_def_cfa_register 7
 239:FreeRTOS/Source/portable/MemMang/heap_2.c **** 	return xFreeBytesRemaining;
 361              		.loc 1 239 0
 362 0194 024B     		ldr	r3, .L23
 363 0196 1B68     		ldr	r3, [r3]
 240:FreeRTOS/Source/portable/MemMang/heap_2.c **** }
 364              		.loc 1 240 0
 365 0198 1846     		mov	r0, r3
 366 019a BD46     		mov	sp, r7
 367              		.cfi_def_cfa_register 13
 368              		@ sp needed
 369 019c 80BC     		pop	{r7}
 370              		.cfi_restore 7
 371              		.cfi_def_cfa_offset 0
 372 019e 7047     		bx	lr
 373              	.L24:
 374              		.align	2
 375              	.L23:
 376 01a0 00000000 		.word	xFreeBytesRemaining
 377              		.cfi_endproc
 378              	.LFE7:
 379              		.size	xPortGetFreeHeapSize, .-xPortGetFreeHeapSize
ARM GAS  /tmp/ccU5WO6B.s 			page 12


 380              		.align	1
 381              		.global	vPortInitialiseBlocks
 382              		.syntax unified
 383              		.thumb
 384              		.thumb_func
 385              		.fpu softvfp
 386              		.type	vPortInitialiseBlocks, %function
 387              	vPortInitialiseBlocks:
 388              	.LFB8:
 241:FreeRTOS/Source/portable/MemMang/heap_2.c **** /*-----------------------------------------------------------*/
 242:FreeRTOS/Source/portable/MemMang/heap_2.c **** 
 243:FreeRTOS/Source/portable/MemMang/heap_2.c **** void vPortInitialiseBlocks( void )
 244:FreeRTOS/Source/portable/MemMang/heap_2.c **** {
 389              		.loc 1 244 0
 390              		.cfi_startproc
 391              		@ args = 0, pretend = 0, frame = 0
 392              		@ frame_needed = 1, uses_anonymous_args = 0
 393              		@ link register save eliminated.
 394 01a4 80B4     		push	{r7}
 395              		.cfi_def_cfa_offset 4
 396              		.cfi_offset 7, -4
 397 01a6 00AF     		add	r7, sp, #0
 398              		.cfi_def_cfa_register 7
 245:FreeRTOS/Source/portable/MemMang/heap_2.c **** 	/* This just exists to keep the linker quiet. */
 246:FreeRTOS/Source/portable/MemMang/heap_2.c **** }
 399              		.loc 1 246 0
 400 01a8 00BF     		nop
 401 01aa BD46     		mov	sp, r7
 402              		.cfi_def_cfa_register 13
 403              		@ sp needed
 404 01ac 80BC     		pop	{r7}
 405              		.cfi_restore 7
 406              		.cfi_def_cfa_offset 0
 407 01ae 7047     		bx	lr
 408              		.cfi_endproc
 409              	.LFE8:
 410              		.size	vPortInitialiseBlocks, .-vPortInitialiseBlocks
 411              		.align	1
 412              		.syntax unified
 413              		.thumb
 414              		.thumb_func
 415              		.fpu softvfp
 416              		.type	prvHeapInit, %function
 417              	prvHeapInit:
 418              	.LFB9:
 247:FreeRTOS/Source/portable/MemMang/heap_2.c **** /*-----------------------------------------------------------*/
 248:FreeRTOS/Source/portable/MemMang/heap_2.c **** 
 249:FreeRTOS/Source/portable/MemMang/heap_2.c **** static void prvHeapInit( void )
 250:FreeRTOS/Source/portable/MemMang/heap_2.c **** {
 419              		.loc 1 250 0
 420              		.cfi_startproc
 421              		@ args = 0, pretend = 0, frame = 8
 422              		@ frame_needed = 1, uses_anonymous_args = 0
 423              		@ link register save eliminated.
 424 01b0 80B4     		push	{r7}
 425              		.cfi_def_cfa_offset 4
 426              		.cfi_offset 7, -4
ARM GAS  /tmp/ccU5WO6B.s 			page 13


 427 01b2 83B0     		sub	sp, sp, #12
 428              		.cfi_def_cfa_offset 16
 429 01b4 00AF     		add	r7, sp, #0
 430              		.cfi_def_cfa_register 7
 251:FreeRTOS/Source/portable/MemMang/heap_2.c **** BlockLink_t *pxFirstFreeBlock;
 252:FreeRTOS/Source/portable/MemMang/heap_2.c **** uint8_t *pucAlignedHeap;
 253:FreeRTOS/Source/portable/MemMang/heap_2.c **** 
 254:FreeRTOS/Source/portable/MemMang/heap_2.c **** 	/* Ensure the heap starts on a correctly aligned boundary. */
 255:FreeRTOS/Source/portable/MemMang/heap_2.c **** 	pucAlignedHeap = ( uint8_t * ) ( ( ( portPOINTER_SIZE_TYPE ) &ucHeap[ portBYTE_ALIGNMENT ] ) & ( ~
 431              		.loc 1 255 0
 432 01b6 0F4B     		ldr	r3, .L27
 433 01b8 23F00703 		bic	r3, r3, #7
 434 01bc 7B60     		str	r3, [r7, #4]
 256:FreeRTOS/Source/portable/MemMang/heap_2.c **** 
 257:FreeRTOS/Source/portable/MemMang/heap_2.c **** 	/* xStart is used to hold a pointer to the first item in the list of free
 258:FreeRTOS/Source/portable/MemMang/heap_2.c **** 	blocks.  The void cast is used to prevent compiler warnings. */
 259:FreeRTOS/Source/portable/MemMang/heap_2.c **** 	xStart.pxNextFreeBlock = ( void * ) pucAlignedHeap;
 435              		.loc 1 259 0
 436 01be 0E4A     		ldr	r2, .L27+4
 437 01c0 7B68     		ldr	r3, [r7, #4]
 438 01c2 1360     		str	r3, [r2]
 260:FreeRTOS/Source/portable/MemMang/heap_2.c **** 	xStart.xBlockSize = ( size_t ) 0;
 439              		.loc 1 260 0
 440 01c4 0C4B     		ldr	r3, .L27+4
 441 01c6 0022     		movs	r2, #0
 442 01c8 5A60     		str	r2, [r3, #4]
 261:FreeRTOS/Source/portable/MemMang/heap_2.c **** 
 262:FreeRTOS/Source/portable/MemMang/heap_2.c **** 	/* xEnd is used to mark the end of the list of free blocks. */
 263:FreeRTOS/Source/portable/MemMang/heap_2.c **** 	xEnd.xBlockSize = configADJUSTED_HEAP_SIZE;
 443              		.loc 1 263 0
 444 01ca 0C4B     		ldr	r3, .L27+8
 445 01cc 41F6F872 		movw	r2, #8184
 446 01d0 5A60     		str	r2, [r3, #4]
 264:FreeRTOS/Source/portable/MemMang/heap_2.c **** 	xEnd.pxNextFreeBlock = NULL;
 447              		.loc 1 264 0
 448 01d2 0A4B     		ldr	r3, .L27+8
 449 01d4 0022     		movs	r2, #0
 450 01d6 1A60     		str	r2, [r3]
 265:FreeRTOS/Source/portable/MemMang/heap_2.c **** 
 266:FreeRTOS/Source/portable/MemMang/heap_2.c **** 	/* To start with there is a single free block that is sized to take up the
 267:FreeRTOS/Source/portable/MemMang/heap_2.c **** 	entire heap space. */
 268:FreeRTOS/Source/portable/MemMang/heap_2.c **** 	pxFirstFreeBlock = ( void * ) pucAlignedHeap;
 451              		.loc 1 268 0
 452 01d8 7B68     		ldr	r3, [r7, #4]
 453 01da 3B60     		str	r3, [r7]
 269:FreeRTOS/Source/portable/MemMang/heap_2.c **** 	pxFirstFreeBlock->xBlockSize = configADJUSTED_HEAP_SIZE;
 454              		.loc 1 269 0
 455 01dc 3B68     		ldr	r3, [r7]
 456 01de 41F6F872 		movw	r2, #8184
 457 01e2 5A60     		str	r2, [r3, #4]
 270:FreeRTOS/Source/portable/MemMang/heap_2.c **** 	pxFirstFreeBlock->pxNextFreeBlock = &xEnd;
 458              		.loc 1 270 0
 459 01e4 3B68     		ldr	r3, [r7]
 460 01e6 054A     		ldr	r2, .L27+8
 461 01e8 1A60     		str	r2, [r3]
 271:FreeRTOS/Source/portable/MemMang/heap_2.c **** }
 462              		.loc 1 271 0
ARM GAS  /tmp/ccU5WO6B.s 			page 14


 463 01ea 00BF     		nop
 464 01ec 0C37     		adds	r7, r7, #12
 465              		.cfi_def_cfa_offset 4
 466 01ee BD46     		mov	sp, r7
 467              		.cfi_def_cfa_register 13
 468              		@ sp needed
 469 01f0 80BC     		pop	{r7}
 470              		.cfi_restore 7
 471              		.cfi_def_cfa_offset 0
 472 01f2 7047     		bx	lr
 473              	.L28:
 474              		.align	2
 475              	.L27:
 476 01f4 08000000 		.word	ucHeap+8
 477 01f8 00200000 		.word	xStart
 478 01fc 08200000 		.word	xEnd
 479              		.cfi_endproc
 480              	.LFE9:
 481              		.size	prvHeapInit, .-prvHeapInit
 482              		.bss
 483              		.align	2
 484              	xHeapHasBeenInitialised.4857:
 485 2010 00000000 		.space	4
 486              		.size	xHeapHasBeenInitialised.4857, 4
 487              		.text
 488              	.Letext0:
 489              		.file 2 "/usr/lib/gcc/arm-none-eabi/6.3.1/include/stddef.h"
 490              		.file 3 "/usr/include/newlib/machine/_default_types.h"
 491              		.file 4 "/usr/include/newlib/sys/lock.h"
 492              		.file 5 "/usr/include/newlib/sys/_types.h"
 493              		.file 6 "/usr/include/newlib/sys/reent.h"
 494              		.file 7 "/usr/include/newlib/sys/_stdint.h"
 495              		.file 8 "include/FreeRTOSConfig.h"
 496              		.file 9 "FreeRTOS/Source/portable/GCC/ARM_CM3/portmacro.h"