ARM GAS  /tmp/cc7JgLA7.s 			page 1


   1              		.cpu cortex-m3
   2              		.eabi_attribute 20, 1
   3              		.eabi_attribute 21, 1
   4              		.eabi_attribute 23, 3
   5              		.eabi_attribute 24, 1
   6              		.eabi_attribute 25, 1
   7              		.eabi_attribute 26, 1
   8              		.eabi_attribute 30, 6
   9              		.eabi_attribute 34, 1
  10              		.eabi_attribute 18, 4
  11              		.file	"list.c"
  12              		.text
  13              	.Ltext0:
  14              		.cfi_sections	.debug_frame
  15              		.align	1
  16              		.global	vListInitialise
  17              		.syntax unified
  18              		.thumb
  19              		.thumb_func
  20              		.fpu softvfp
  21              		.type	vListInitialise, %function
  22              	vListInitialise:
  23              	.LFB5:
  24              		.file 1 "FreeRTOS/Source/list.c"
   1:FreeRTOS/Source/list.c **** /*
   2:FreeRTOS/Source/list.c ****  * FreeRTOS Kernel V10.3.1
   3:FreeRTOS/Source/list.c ****  * Copyright (C) 2020 Amazon.com, Inc. or its affiliates.  All Rights Reserved.
   4:FreeRTOS/Source/list.c ****  *
   5:FreeRTOS/Source/list.c ****  * Permission is hereby granted, free of charge, to any person obtaining a copy of
   6:FreeRTOS/Source/list.c ****  * this software and associated documentation files (the "Software"), to deal in
   7:FreeRTOS/Source/list.c ****  * the Software without restriction, including without limitation the rights to
   8:FreeRTOS/Source/list.c ****  * use, copy, modify, merge, publish, distribute, sublicense, and/or sell copies of
   9:FreeRTOS/Source/list.c ****  * the Software, and to permit persons to whom the Software is furnished to do so,
  10:FreeRTOS/Source/list.c ****  * subject to the following conditions:
  11:FreeRTOS/Source/list.c ****  *
  12:FreeRTOS/Source/list.c ****  * The above copyright notice and this permission notice shall be included in all
  13:FreeRTOS/Source/list.c ****  * copies or substantial portions of the Software.
  14:FreeRTOS/Source/list.c ****  *
  15:FreeRTOS/Source/list.c ****  * THE SOFTWARE IS PROVIDED "AS IS", WITHOUT WARRANTY OF ANY KIND, EXPRESS OR
  16:FreeRTOS/Source/list.c ****  * IMPLIED, INCLUDING BUT NOT LIMITED TO THE WARRANTIES OF MERCHANTABILITY, FITNESS
  17:FreeRTOS/Source/list.c ****  * FOR A PARTICULAR PURPOSE AND NONINFRINGEMENT. IN NO EVENT SHALL THE AUTHORS OR
  18:FreeRTOS/Source/list.c ****  * COPYRIGHT HOLDERS BE LIABLE FOR ANY CLAIM, DAMAGES OR OTHER LIABILITY, WHETHER
  19:FreeRTOS/Source/list.c ****  * IN AN ACTION OF CONTRACT, TORT OR OTHERWISE, ARISING FROM, OUT OF OR IN
  20:FreeRTOS/Source/list.c ****  * CONNECTION WITH THE SOFTWARE OR THE USE OR OTHER DEALINGS IN THE SOFTWARE.
  21:FreeRTOS/Source/list.c ****  *
  22:FreeRTOS/Source/list.c ****  * http://www.FreeRTOS.org
  23:FreeRTOS/Source/list.c ****  * http://aws.amazon.com/freertos
  24:FreeRTOS/Source/list.c ****  *
  25:FreeRTOS/Source/list.c ****  * 1 tab == 4 spaces!
  26:FreeRTOS/Source/list.c ****  */
  27:FreeRTOS/Source/list.c **** 
  28:FreeRTOS/Source/list.c **** 
  29:FreeRTOS/Source/list.c **** #include <stdlib.h>
  30:FreeRTOS/Source/list.c **** #include "FreeRTOS.h"
  31:FreeRTOS/Source/list.c **** #include "list.h"
  32:FreeRTOS/Source/list.c **** 
  33:FreeRTOS/Source/list.c **** /*-----------------------------------------------------------
ARM GAS  /tmp/cc7JgLA7.s 			page 2


  34:FreeRTOS/Source/list.c ****  * PUBLIC LIST API documented in list.h
  35:FreeRTOS/Source/list.c ****  *----------------------------------------------------------*/
  36:FreeRTOS/Source/list.c **** 
  37:FreeRTOS/Source/list.c **** void vListInitialise( List_t * const pxList )
  38:FreeRTOS/Source/list.c **** {
  25              		.loc 1 38 0
  26              		.cfi_startproc
  27              		@ args = 0, pretend = 0, frame = 8
  28              		@ frame_needed = 1, uses_anonymous_args = 0
  29              		@ link register save eliminated.
  30 0000 80B4     		push	{r7}
  31              		.cfi_def_cfa_offset 4
  32              		.cfi_offset 7, -4
  33 0002 83B0     		sub	sp, sp, #12
  34              		.cfi_def_cfa_offset 16
  35 0004 00AF     		add	r7, sp, #0
  36              		.cfi_def_cfa_register 7
  37 0006 7860     		str	r0, [r7, #4]
  39:FreeRTOS/Source/list.c **** 	/* The list structure contains a list item which is used to mark the
  40:FreeRTOS/Source/list.c **** 	end of the list.  To initialise the list the list end is inserted
  41:FreeRTOS/Source/list.c **** 	as the only list entry. */
  42:FreeRTOS/Source/list.c **** 	pxList->pxIndex = ( ListItem_t * ) &( pxList->xListEnd );			/*lint !e826 !e740 !e9087 The mini lis
  38              		.loc 1 42 0
  39 0008 7B68     		ldr	r3, [r7, #4]
  40 000a 03F10802 		add	r2, r3, #8
  41 000e 7B68     		ldr	r3, [r7, #4]
  42 0010 5A60     		str	r2, [r3, #4]
  43:FreeRTOS/Source/list.c **** 
  44:FreeRTOS/Source/list.c **** 	/* The list end value is the highest possible value in the list to
  45:FreeRTOS/Source/list.c **** 	ensure it remains at the end of the list. */
  46:FreeRTOS/Source/list.c **** 	pxList->xListEnd.xItemValue = portMAX_DELAY;
  43              		.loc 1 46 0
  44 0012 7B68     		ldr	r3, [r7, #4]
  45 0014 4FF0FF32 		mov	r2, #-1
  46 0018 9A60     		str	r2, [r3, #8]
  47:FreeRTOS/Source/list.c **** 
  48:FreeRTOS/Source/list.c **** 	/* The list end next and previous pointers point to itself so we know
  49:FreeRTOS/Source/list.c **** 	when the list is empty. */
  50:FreeRTOS/Source/list.c **** 	pxList->xListEnd.pxNext = ( ListItem_t * ) &( pxList->xListEnd );	/*lint !e826 !e740 !e9087 The mi
  47              		.loc 1 50 0
  48 001a 7B68     		ldr	r3, [r7, #4]
  49 001c 03F10802 		add	r2, r3, #8
  50 0020 7B68     		ldr	r3, [r7, #4]
  51 0022 DA60     		str	r2, [r3, #12]
  51:FreeRTOS/Source/list.c **** 	pxList->xListEnd.pxPrevious = ( ListItem_t * ) &( pxList->xListEnd );/*lint !e826 !e740 !e9087 The
  52              		.loc 1 51 0
  53 0024 7B68     		ldr	r3, [r7, #4]
  54 0026 03F10802 		add	r2, r3, #8
  55 002a 7B68     		ldr	r3, [r7, #4]
  56 002c 1A61     		str	r2, [r3, #16]
  52:FreeRTOS/Source/list.c **** 
  53:FreeRTOS/Source/list.c **** 	pxList->uxNumberOfItems = ( UBaseType_t ) 0U;
  57              		.loc 1 53 0
  58 002e 7B68     		ldr	r3, [r7, #4]
  59 0030 0022     		movs	r2, #0
  60 0032 1A60     		str	r2, [r3]
  54:FreeRTOS/Source/list.c **** 
ARM GAS  /tmp/cc7JgLA7.s 			page 3


  55:FreeRTOS/Source/list.c **** 	/* Write known values into the list if
  56:FreeRTOS/Source/list.c **** 	configUSE_LIST_DATA_INTEGRITY_CHECK_BYTES is set to 1. */
  57:FreeRTOS/Source/list.c **** 	listSET_LIST_INTEGRITY_CHECK_1_VALUE( pxList );
  58:FreeRTOS/Source/list.c **** 	listSET_LIST_INTEGRITY_CHECK_2_VALUE( pxList );
  59:FreeRTOS/Source/list.c **** }
  61              		.loc 1 59 0
  62 0034 00BF     		nop
  63 0036 0C37     		adds	r7, r7, #12
  64              		.cfi_def_cfa_offset 4
  65 0038 BD46     		mov	sp, r7
  66              		.cfi_def_cfa_register 13
  67              		@ sp needed
  68 003a 80BC     		pop	{r7}
  69              		.cfi_restore 7
  70              		.cfi_def_cfa_offset 0
  71 003c 7047     		bx	lr
  72              		.cfi_endproc
  73              	.LFE5:
  74              		.size	vListInitialise, .-vListInitialise
  75              		.align	1
  76              		.global	vListInitialiseItem
  77              		.syntax unified
  78              		.thumb
  79              		.thumb_func
  80              		.fpu softvfp
  81              		.type	vListInitialiseItem, %function
  82              	vListInitialiseItem:
  83              	.LFB6:
  60:FreeRTOS/Source/list.c **** /*-----------------------------------------------------------*/
  61:FreeRTOS/Source/list.c **** 
  62:FreeRTOS/Source/list.c **** void vListInitialiseItem( ListItem_t * const pxItem )
  63:FreeRTOS/Source/list.c **** {
  84              		.loc 1 63 0
  85              		.cfi_startproc
  86              		@ args = 0, pretend = 0, frame = 8
  87              		@ frame_needed = 1, uses_anonymous_args = 0
  88              		@ link register save eliminated.
  89 003e 80B4     		push	{r7}
  90              		.cfi_def_cfa_offset 4
  91              		.cfi_offset 7, -4
  92 0040 83B0     		sub	sp, sp, #12
  93              		.cfi_def_cfa_offset 16
  94 0042 00AF     		add	r7, sp, #0
  95              		.cfi_def_cfa_register 7
  96 0044 7860     		str	r0, [r7, #4]
  64:FreeRTOS/Source/list.c **** 	/* Make sure the list item is not recorded as being on a list. */
  65:FreeRTOS/Source/list.c **** 	pxItem->pxContainer = NULL;
  97              		.loc 1 65 0
  98 0046 7B68     		ldr	r3, [r7, #4]
  99 0048 0022     		movs	r2, #0
 100 004a 1A61     		str	r2, [r3, #16]
  66:FreeRTOS/Source/list.c **** 
  67:FreeRTOS/Source/list.c **** 	/* Write known values into the list item if
  68:FreeRTOS/Source/list.c **** 	configUSE_LIST_DATA_INTEGRITY_CHECK_BYTES is set to 1. */
  69:FreeRTOS/Source/list.c **** 	listSET_FIRST_LIST_ITEM_INTEGRITY_CHECK_VALUE( pxItem );
  70:FreeRTOS/Source/list.c **** 	listSET_SECOND_LIST_ITEM_INTEGRITY_CHECK_VALUE( pxItem );
  71:FreeRTOS/Source/list.c **** }
ARM GAS  /tmp/cc7JgLA7.s 			page 4


 101              		.loc 1 71 0
 102 004c 00BF     		nop
 103 004e 0C37     		adds	r7, r7, #12
 104              		.cfi_def_cfa_offset 4
 105 0050 BD46     		mov	sp, r7
 106              		.cfi_def_cfa_register 13
 107              		@ sp needed
 108 0052 80BC     		pop	{r7}
 109              		.cfi_restore 7
 110              		.cfi_def_cfa_offset 0
 111 0054 7047     		bx	lr
 112              		.cfi_endproc
 113              	.LFE6:
 114              		.size	vListInitialiseItem, .-vListInitialiseItem
 115              		.align	1
 116              		.global	vListInsertEnd
 117              		.syntax unified
 118              		.thumb
 119              		.thumb_func
 120              		.fpu softvfp
 121              		.type	vListInsertEnd, %function
 122              	vListInsertEnd:
 123              	.LFB7:
  72:FreeRTOS/Source/list.c **** /*-----------------------------------------------------------*/
  73:FreeRTOS/Source/list.c **** 
  74:FreeRTOS/Source/list.c **** void vListInsertEnd( List_t * const pxList, ListItem_t * const pxNewListItem )
  75:FreeRTOS/Source/list.c **** {
 124              		.loc 1 75 0
 125              		.cfi_startproc
 126              		@ args = 0, pretend = 0, frame = 16
 127              		@ frame_needed = 1, uses_anonymous_args = 0
 128              		@ link register save eliminated.
 129 0056 80B4     		push	{r7}
 130              		.cfi_def_cfa_offset 4
 131              		.cfi_offset 7, -4
 132 0058 85B0     		sub	sp, sp, #20
 133              		.cfi_def_cfa_offset 24
 134 005a 00AF     		add	r7, sp, #0
 135              		.cfi_def_cfa_register 7
 136 005c 7860     		str	r0, [r7, #4]
 137 005e 3960     		str	r1, [r7]
  76:FreeRTOS/Source/list.c **** ListItem_t * const pxIndex = pxList->pxIndex;
 138              		.loc 1 76 0
 139 0060 7B68     		ldr	r3, [r7, #4]
 140 0062 5B68     		ldr	r3, [r3, #4]
 141 0064 FB60     		str	r3, [r7, #12]
  77:FreeRTOS/Source/list.c **** 
  78:FreeRTOS/Source/list.c **** 	/* Only effective when configASSERT() is also defined, these tests may catch
  79:FreeRTOS/Source/list.c **** 	the list data structures being overwritten in memory.  They will not catch
  80:FreeRTOS/Source/list.c **** 	data errors caused by incorrect configuration or use of FreeRTOS. */
  81:FreeRTOS/Source/list.c **** 	listTEST_LIST_INTEGRITY( pxList );
  82:FreeRTOS/Source/list.c **** 	listTEST_LIST_ITEM_INTEGRITY( pxNewListItem );
  83:FreeRTOS/Source/list.c **** 
  84:FreeRTOS/Source/list.c **** 	/* Insert a new list item into pxList, but rather than sort the list,
  85:FreeRTOS/Source/list.c **** 	makes the new list item the last item to be removed by a call to
  86:FreeRTOS/Source/list.c **** 	listGET_OWNER_OF_NEXT_ENTRY(). */
  87:FreeRTOS/Source/list.c **** 	pxNewListItem->pxNext = pxIndex;
ARM GAS  /tmp/cc7JgLA7.s 			page 5


 142              		.loc 1 87 0
 143 0066 3B68     		ldr	r3, [r7]
 144 0068 FA68     		ldr	r2, [r7, #12]
 145 006a 5A60     		str	r2, [r3, #4]
  88:FreeRTOS/Source/list.c **** 	pxNewListItem->pxPrevious = pxIndex->pxPrevious;
 146              		.loc 1 88 0
 147 006c FB68     		ldr	r3, [r7, #12]
 148 006e 9A68     		ldr	r2, [r3, #8]
 149 0070 3B68     		ldr	r3, [r7]
 150 0072 9A60     		str	r2, [r3, #8]
  89:FreeRTOS/Source/list.c **** 
  90:FreeRTOS/Source/list.c **** 	/* Only used during decision coverage testing. */
  91:FreeRTOS/Source/list.c **** 	mtCOVERAGE_TEST_DELAY();
  92:FreeRTOS/Source/list.c **** 
  93:FreeRTOS/Source/list.c **** 	pxIndex->pxPrevious->pxNext = pxNewListItem;
 151              		.loc 1 93 0
 152 0074 FB68     		ldr	r3, [r7, #12]
 153 0076 9B68     		ldr	r3, [r3, #8]
 154 0078 3A68     		ldr	r2, [r7]
 155 007a 5A60     		str	r2, [r3, #4]
  94:FreeRTOS/Source/list.c **** 	pxIndex->pxPrevious = pxNewListItem;
 156              		.loc 1 94 0
 157 007c FB68     		ldr	r3, [r7, #12]
 158 007e 3A68     		ldr	r2, [r7]
 159 0080 9A60     		str	r2, [r3, #8]
  95:FreeRTOS/Source/list.c **** 
  96:FreeRTOS/Source/list.c **** 	/* Remember which list the item is in. */
  97:FreeRTOS/Source/list.c **** 	pxNewListItem->pxContainer = pxList;
 160              		.loc 1 97 0
 161 0082 3B68     		ldr	r3, [r7]
 162 0084 7A68     		ldr	r2, [r7, #4]
 163 0086 1A61     		str	r2, [r3, #16]
  98:FreeRTOS/Source/list.c **** 
  99:FreeRTOS/Source/list.c **** 	( pxList->uxNumberOfItems )++;
 164              		.loc 1 99 0
 165 0088 7B68     		ldr	r3, [r7, #4]
 166 008a 1B68     		ldr	r3, [r3]
 167 008c 5A1C     		adds	r2, r3, #1
 168 008e 7B68     		ldr	r3, [r7, #4]
 169 0090 1A60     		str	r2, [r3]
 100:FreeRTOS/Source/list.c **** }
 170              		.loc 1 100 0
 171 0092 00BF     		nop
 172 0094 1437     		adds	r7, r7, #20
 173              		.cfi_def_cfa_offset 4
 174 0096 BD46     		mov	sp, r7
 175              		.cfi_def_cfa_register 13
 176              		@ sp needed
 177 0098 80BC     		pop	{r7}
 178              		.cfi_restore 7
 179              		.cfi_def_cfa_offset 0
 180 009a 7047     		bx	lr
 181              		.cfi_endproc
 182              	.LFE7:
 183              		.size	vListInsertEnd, .-vListInsertEnd
 184              		.align	1
 185              		.global	vListInsert
ARM GAS  /tmp/cc7JgLA7.s 			page 6


 186              		.syntax unified
 187              		.thumb
 188              		.thumb_func
 189              		.fpu softvfp
 190              		.type	vListInsert, %function
 191              	vListInsert:
 192              	.LFB8:
 101:FreeRTOS/Source/list.c **** /*-----------------------------------------------------------*/
 102:FreeRTOS/Source/list.c **** 
 103:FreeRTOS/Source/list.c **** void vListInsert( List_t * const pxList, ListItem_t * const pxNewListItem )
 104:FreeRTOS/Source/list.c **** {
 193              		.loc 1 104 0
 194              		.cfi_startproc
 195              		@ args = 0, pretend = 0, frame = 16
 196              		@ frame_needed = 1, uses_anonymous_args = 0
 197              		@ link register save eliminated.
 198 009c 80B4     		push	{r7}
 199              		.cfi_def_cfa_offset 4
 200              		.cfi_offset 7, -4
 201 009e 85B0     		sub	sp, sp, #20
 202              		.cfi_def_cfa_offset 24
 203 00a0 00AF     		add	r7, sp, #0
 204              		.cfi_def_cfa_register 7
 205 00a2 7860     		str	r0, [r7, #4]
 206 00a4 3960     		str	r1, [r7]
 105:FreeRTOS/Source/list.c **** ListItem_t *pxIterator;
 106:FreeRTOS/Source/list.c **** const TickType_t xValueOfInsertion = pxNewListItem->xItemValue;
 207              		.loc 1 106 0
 208 00a6 3B68     		ldr	r3, [r7]
 209 00a8 1B68     		ldr	r3, [r3]
 210 00aa BB60     		str	r3, [r7, #8]
 107:FreeRTOS/Source/list.c **** 
 108:FreeRTOS/Source/list.c **** 	/* Only effective when configASSERT() is also defined, these tests may catch
 109:FreeRTOS/Source/list.c **** 	the list data structures being overwritten in memory.  They will not catch
 110:FreeRTOS/Source/list.c **** 	data errors caused by incorrect configuration or use of FreeRTOS. */
 111:FreeRTOS/Source/list.c **** 	listTEST_LIST_INTEGRITY( pxList );
 112:FreeRTOS/Source/list.c **** 	listTEST_LIST_ITEM_INTEGRITY( pxNewListItem );
 113:FreeRTOS/Source/list.c **** 
 114:FreeRTOS/Source/list.c **** 	/* Insert the new list item into the list, sorted in xItemValue order.
 115:FreeRTOS/Source/list.c **** 
 116:FreeRTOS/Source/list.c **** 	If the list already contains a list item with the same item value then the
 117:FreeRTOS/Source/list.c **** 	new list item should be placed after it.  This ensures that TCBs which are
 118:FreeRTOS/Source/list.c **** 	stored in ready lists (all of which have the same xItemValue value) get a
 119:FreeRTOS/Source/list.c **** 	share of the CPU.  However, if the xItemValue is the same as the back marker
 120:FreeRTOS/Source/list.c **** 	the iteration loop below will not end.  Therefore the value is checked
 121:FreeRTOS/Source/list.c **** 	first, and the algorithm slightly modified if necessary. */
 122:FreeRTOS/Source/list.c **** 	if( xValueOfInsertion == portMAX_DELAY )
 211              		.loc 1 122 0
 212 00ac BB68     		ldr	r3, [r7, #8]
 213 00ae B3F1FF3F 		cmp	r3, #-1
 214 00b2 03D1     		bne	.L5
 123:FreeRTOS/Source/list.c **** 	{
 124:FreeRTOS/Source/list.c **** 		pxIterator = pxList->xListEnd.pxPrevious;
 215              		.loc 1 124 0
 216 00b4 7B68     		ldr	r3, [r7, #4]
 217 00b6 1B69     		ldr	r3, [r3, #16]
 218 00b8 FB60     		str	r3, [r7, #12]
ARM GAS  /tmp/cc7JgLA7.s 			page 7


 219 00ba 0CE0     		b	.L6
 220              	.L5:
 125:FreeRTOS/Source/list.c **** 	}
 126:FreeRTOS/Source/list.c **** 	else
 127:FreeRTOS/Source/list.c **** 	{
 128:FreeRTOS/Source/list.c **** 		/* *** NOTE ***********************************************************
 129:FreeRTOS/Source/list.c **** 		If you find your application is crashing here then likely causes are
 130:FreeRTOS/Source/list.c **** 		listed below.  In addition see https://www.freertos.org/FAQHelp.html for
 131:FreeRTOS/Source/list.c **** 		more tips, and ensure configASSERT() is defined!
 132:FreeRTOS/Source/list.c **** 		https://www.freertos.org/a00110.html#configASSERT
 133:FreeRTOS/Source/list.c **** 
 134:FreeRTOS/Source/list.c **** 			1) Stack overflow -
 135:FreeRTOS/Source/list.c **** 			   see https://www.freertos.org/Stacks-and-stack-overflow-checking.html
 136:FreeRTOS/Source/list.c **** 			2) Incorrect interrupt priority assignment, especially on Cortex-M
 137:FreeRTOS/Source/list.c **** 			   parts where numerically high priority values denote low actual
 138:FreeRTOS/Source/list.c **** 			   interrupt priorities, which can seem counter intuitive.  See
 139:FreeRTOS/Source/list.c **** 			   https://www.freertos.org/RTOS-Cortex-M3-M4.html and the definition
 140:FreeRTOS/Source/list.c **** 			   of configMAX_SYSCALL_INTERRUPT_PRIORITY on
 141:FreeRTOS/Source/list.c **** 			   https://www.freertos.org/a00110.html
 142:FreeRTOS/Source/list.c **** 			3) Calling an API function from within a critical section or when
 143:FreeRTOS/Source/list.c **** 			   the scheduler is suspended, or calling an API function that does
 144:FreeRTOS/Source/list.c **** 			   not end in "FromISR" from an interrupt.
 145:FreeRTOS/Source/list.c **** 			4) Using a queue or semaphore before it has been initialised or
 146:FreeRTOS/Source/list.c **** 			   before the scheduler has been started (are interrupts firing
 147:FreeRTOS/Source/list.c **** 			   before vTaskStartScheduler() has been called?).
 148:FreeRTOS/Source/list.c **** 		**********************************************************************/
 149:FreeRTOS/Source/list.c **** 
 150:FreeRTOS/Source/list.c **** 		for( pxIterator = ( ListItem_t * ) &( pxList->xListEnd ); pxIterator->pxNext->xItemValue <= xValu
 221              		.loc 1 150 0
 222 00bc 7B68     		ldr	r3, [r7, #4]
 223 00be 0833     		adds	r3, r3, #8
 224 00c0 FB60     		str	r3, [r7, #12]
 225 00c2 02E0     		b	.L7
 226              	.L8:
 227              		.loc 1 150 0 is_stmt 0 discriminator 3
 228 00c4 FB68     		ldr	r3, [r7, #12]
 229 00c6 5B68     		ldr	r3, [r3, #4]
 230 00c8 FB60     		str	r3, [r7, #12]
 231              	.L7:
 232              		.loc 1 150 0 discriminator 1
 233 00ca FB68     		ldr	r3, [r7, #12]
 234 00cc 5B68     		ldr	r3, [r3, #4]
 235 00ce 1A68     		ldr	r2, [r3]
 236 00d0 BB68     		ldr	r3, [r7, #8]
 237 00d2 9A42     		cmp	r2, r3
 238 00d4 F6D9     		bls	.L8
 239              	.L6:
 151:FreeRTOS/Source/list.c **** 		{
 152:FreeRTOS/Source/list.c **** 			/* There is nothing to do here, just iterating to the wanted
 153:FreeRTOS/Source/list.c **** 			insertion position. */
 154:FreeRTOS/Source/list.c **** 		}
 155:FreeRTOS/Source/list.c **** 	}
 156:FreeRTOS/Source/list.c **** 
 157:FreeRTOS/Source/list.c **** 	pxNewListItem->pxNext = pxIterator->pxNext;
 240              		.loc 1 157 0 is_stmt 1
 241 00d6 FB68     		ldr	r3, [r7, #12]
 242 00d8 5A68     		ldr	r2, [r3, #4]
ARM GAS  /tmp/cc7JgLA7.s 			page 8


 243 00da 3B68     		ldr	r3, [r7]
 244 00dc 5A60     		str	r2, [r3, #4]
 158:FreeRTOS/Source/list.c **** 	pxNewListItem->pxNext->pxPrevious = pxNewListItem;
 245              		.loc 1 158 0
 246 00de 3B68     		ldr	r3, [r7]
 247 00e0 5B68     		ldr	r3, [r3, #4]
 248 00e2 3A68     		ldr	r2, [r7]
 249 00e4 9A60     		str	r2, [r3, #8]
 159:FreeRTOS/Source/list.c **** 	pxNewListItem->pxPrevious = pxIterator;
 250              		.loc 1 159 0
 251 00e6 3B68     		ldr	r3, [r7]
 252 00e8 FA68     		ldr	r2, [r7, #12]
 253 00ea 9A60     		str	r2, [r3, #8]
 160:FreeRTOS/Source/list.c **** 	pxIterator->pxNext = pxNewListItem;
 254              		.loc 1 160 0
 255 00ec FB68     		ldr	r3, [r7, #12]
 256 00ee 3A68     		ldr	r2, [r7]
 257 00f0 5A60     		str	r2, [r3, #4]
 161:FreeRTOS/Source/list.c **** 
 162:FreeRTOS/Source/list.c **** 	/* Remember which list the item is in.  This allows fast removal of the
 163:FreeRTOS/Source/list.c **** 	item later. */
 164:FreeRTOS/Source/list.c **** 	pxNewListItem->pxContainer = pxList;
 258              		.loc 1 164 0
 259 00f2 3B68     		ldr	r3, [r7]
 260 00f4 7A68     		ldr	r2, [r7, #4]
 261 00f6 1A61     		str	r2, [r3, #16]
 165:FreeRTOS/Source/list.c **** 
 166:FreeRTOS/Source/list.c **** 	( pxList->uxNumberOfItems )++;
 262              		.loc 1 166 0
 263 00f8 7B68     		ldr	r3, [r7, #4]
 264 00fa 1B68     		ldr	r3, [r3]
 265 00fc 5A1C     		adds	r2, r3, #1
 266 00fe 7B68     		ldr	r3, [r7, #4]
 267 0100 1A60     		str	r2, [r3]
 167:FreeRTOS/Source/list.c **** }
 268              		.loc 1 167 0
 269 0102 00BF     		nop
 270 0104 1437     		adds	r7, r7, #20
 271              		.cfi_def_cfa_offset 4
 272 0106 BD46     		mov	sp, r7
 273              		.cfi_def_cfa_register 13
 274              		@ sp needed
 275 0108 80BC     		pop	{r7}
 276              		.cfi_restore 7
 277              		.cfi_def_cfa_offset 0
 278 010a 7047     		bx	lr
 279              		.cfi_endproc
 280              	.LFE8:
 281              		.size	vListInsert, .-vListInsert
 282              		.align	1
 283              		.global	uxListRemove
 284              		.syntax unified
 285              		.thumb
 286              		.thumb_func
 287              		.fpu softvfp
 288              		.type	uxListRemove, %function
 289              	uxListRemove:
ARM GAS  /tmp/cc7JgLA7.s 			page 9


 290              	.LFB9:
 168:FreeRTOS/Source/list.c **** /*-----------------------------------------------------------*/
 169:FreeRTOS/Source/list.c **** 
 170:FreeRTOS/Source/list.c **** UBaseType_t uxListRemove( ListItem_t * const pxItemToRemove )
 171:FreeRTOS/Source/list.c **** {
 291              		.loc 1 171 0
 292              		.cfi_startproc
 293              		@ args = 0, pretend = 0, frame = 16
 294              		@ frame_needed = 1, uses_anonymous_args = 0
 295              		@ link register save eliminated.
 296 010c 80B4     		push	{r7}
 297              		.cfi_def_cfa_offset 4
 298              		.cfi_offset 7, -4
 299 010e 85B0     		sub	sp, sp, #20
 300              		.cfi_def_cfa_offset 24
 301 0110 00AF     		add	r7, sp, #0
 302              		.cfi_def_cfa_register 7
 303 0112 7860     		str	r0, [r7, #4]
 172:FreeRTOS/Source/list.c **** /* The list item knows which list it is in.  Obtain the list from the list
 173:FreeRTOS/Source/list.c **** item. */
 174:FreeRTOS/Source/list.c **** List_t * const pxList = pxItemToRemove->pxContainer;
 304              		.loc 1 174 0
 305 0114 7B68     		ldr	r3, [r7, #4]
 306 0116 1B69     		ldr	r3, [r3, #16]
 307 0118 FB60     		str	r3, [r7, #12]
 175:FreeRTOS/Source/list.c **** 
 176:FreeRTOS/Source/list.c **** 	pxItemToRemove->pxNext->pxPrevious = pxItemToRemove->pxPrevious;
 308              		.loc 1 176 0
 309 011a 7B68     		ldr	r3, [r7, #4]
 310 011c 5B68     		ldr	r3, [r3, #4]
 311 011e 7A68     		ldr	r2, [r7, #4]
 312 0120 9268     		ldr	r2, [r2, #8]
 313 0122 9A60     		str	r2, [r3, #8]
 177:FreeRTOS/Source/list.c **** 	pxItemToRemove->pxPrevious->pxNext = pxItemToRemove->pxNext;
 314              		.loc 1 177 0
 315 0124 7B68     		ldr	r3, [r7, #4]
 316 0126 9B68     		ldr	r3, [r3, #8]
 317 0128 7A68     		ldr	r2, [r7, #4]
 318 012a 5268     		ldr	r2, [r2, #4]
 319 012c 5A60     		str	r2, [r3, #4]
 178:FreeRTOS/Source/list.c **** 
 179:FreeRTOS/Source/list.c **** 	/* Only used during decision coverage testing. */
 180:FreeRTOS/Source/list.c **** 	mtCOVERAGE_TEST_DELAY();
 181:FreeRTOS/Source/list.c **** 
 182:FreeRTOS/Source/list.c **** 	/* Make sure the index is left pointing to a valid item. */
 183:FreeRTOS/Source/list.c **** 	if( pxList->pxIndex == pxItemToRemove )
 320              		.loc 1 183 0
 321 012e FB68     		ldr	r3, [r7, #12]
 322 0130 5A68     		ldr	r2, [r3, #4]
 323 0132 7B68     		ldr	r3, [r7, #4]
 324 0134 9A42     		cmp	r2, r3
 325 0136 03D1     		bne	.L10
 184:FreeRTOS/Source/list.c **** 	{
 185:FreeRTOS/Source/list.c **** 		pxList->pxIndex = pxItemToRemove->pxPrevious;
 326              		.loc 1 185 0
 327 0138 7B68     		ldr	r3, [r7, #4]
 328 013a 9A68     		ldr	r2, [r3, #8]
ARM GAS  /tmp/cc7JgLA7.s 			page 10


 329 013c FB68     		ldr	r3, [r7, #12]
 330 013e 5A60     		str	r2, [r3, #4]
 331              	.L10:
 186:FreeRTOS/Source/list.c **** 	}
 187:FreeRTOS/Source/list.c **** 	else
 188:FreeRTOS/Source/list.c **** 	{
 189:FreeRTOS/Source/list.c **** 		mtCOVERAGE_TEST_MARKER();
 190:FreeRTOS/Source/list.c **** 	}
 191:FreeRTOS/Source/list.c **** 
 192:FreeRTOS/Source/list.c **** 	pxItemToRemove->pxContainer = NULL;
 332              		.loc 1 192 0
 333 0140 7B68     		ldr	r3, [r7, #4]
 334 0142 0022     		movs	r2, #0
 335 0144 1A61     		str	r2, [r3, #16]
 193:FreeRTOS/Source/list.c **** 	( pxList->uxNumberOfItems )--;
 336              		.loc 1 193 0
 337 0146 FB68     		ldr	r3, [r7, #12]
 338 0148 1B68     		ldr	r3, [r3]
 339 014a 5A1E     		subs	r2, r3, #1
 340 014c FB68     		ldr	r3, [r7, #12]
 341 014e 1A60     		str	r2, [r3]
 194:FreeRTOS/Source/list.c **** 
 195:FreeRTOS/Source/list.c **** 	return pxList->uxNumberOfItems;
 342              		.loc 1 195 0
 343 0150 FB68     		ldr	r3, [r7, #12]
 344 0152 1B68     		ldr	r3, [r3]
 196:FreeRTOS/Source/list.c **** }
 345              		.loc 1 196 0
 346 0154 1846     		mov	r0, r3
 347 0156 1437     		adds	r7, r7, #20
 348              		.cfi_def_cfa_offset 4
 349 0158 BD46     		mov	sp, r7
 350              		.cfi_def_cfa_register 13
 351              		@ sp needed
 352 015a 80BC     		pop	{r7}
 353              		.cfi_restore 7
 354              		.cfi_def_cfa_offset 0
 355 015c 7047     		bx	lr
 356              		.cfi_endproc
 357              	.LFE9:
 358              		.size	uxListRemove, .-uxListRemove
 359              	.Letext0:
 360              		.file 2 "/usr/include/newlib/machine/_default_types.h"
 361              		.file 3 "/usr/include/newlib/sys/lock.h"
 362              		.file 4 "/usr/include/newlib/sys/_types.h"
 363              		.file 5 "/usr/lib/gcc/arm-none-eabi/6.3.1/include/stddef.h"
 364              		.file 6 "/usr/include/newlib/sys/reent.h"
 365              		.file 7 "/usr/include/newlib/sys/_stdint.h"
 366              		.file 8 "include/FreeRTOSConfig.h"
 367              		.file 9 "FreeRTOS/Source/portable/GCC/ARM_CM3/portmacro.h"
 368              		.file 10 "FreeRTOS/Source/include/list.h"