ARM GAS  /tmp/cc7JgLA7.s 			page 1


   1              		.cpu cortex-m3
   2              		.eabi_attribute 20, 1
   3              		.eabi_attribute 21, 1
   4              		.eabi_attribute 23, 3
   5              		.eabi_attribute 24, 1
   6              		.eabi_attribute 25, 1
   7              		.eabi_attribute 26, 1
   8              		.eabi_attribute 30, 6
   9              		.eabi_attribute 34, 1
  10              		.eabi_attribute 18, 4
  11              		.file	"list.c"
  12              		.text
  13              	.Ltext0:
  14              		.cfi_sections	.debug_frame
  15              		.align	1
  16              		.global	vListInitialise
  17              		.syntax unified
  18              		.thumb
  19              		.thumb_func
  20              		.fpu softvfp
  21              		.type	vListInitialise, %function
  22              	vListInitialise:
  23              	.LFB5:
  24              		.file 1 "FreeRTOS/Source/list.c"
   1:FreeRTOS/Source/list.c **** /*
   2:FreeRTOS/Source/list.c ****  * FreeRTOS Kernel V10.3.1
   3:FreeRTOS/Source/list.c ****  * Copyright (C) 2020 Amazon.com, Inc. or its affiliates.  All Rights Reserved.
   4:FreeRTOS/Source/list.c ****  *
   5:FreeRTOS/Source/list.c ****  * Permission is hereby granted, free of charge, to any person obtaining a copy of
   6:FreeRTOS/Source/list.c ****  * this software and associated documentation files (the "Software"), to deal in
   7:FreeRTOS/Source/list.c ****  * the Software without restriction, including without limitation the rights to
   8:FreeRTOS/Source/list.c ****  * use, copy, modify, merge, publish, distribute, sublicense, and/or sell copies of
   9:FreeRTOS/Source/list.c ****  * the Software, and to permit persons to whom the Software is furnished to do so,
  10:FreeRTOS/Source/list.c ****  * subject to the following conditions:
  11:FreeRTOS/Source/list.c ****  *
  12:FreeRTOS/Source/list.c ****  * The above copyright notice and this permission notice shall be included in all
  13:FreeRTOS/Source/list.c ****  * copies or substantial portions of the Software.
  14:FreeRTOS/Source/list.c ****  *
  15:FreeRTOS/Source/list.c ****  * THE SOFTWARE IS PROVIDED "AS IS", WITHOUT WARRANTY OF ANY KIND, EXPRESS OR
  16:FreeRTOS/Source/list.c ****  * IMPLIED, INCLUDING BUT NOT LIMITED TO THE WARRANTIES OF MERCHANTABILITY, FITNESS
  17:FreeRTOS/Source/list.c ****  * FOR A PARTICULAR PURPOSE AND NONINFRINGEMENT. IN NO EVENT SHALL THE AUTHORS OR
  18:FreeRTOS/Source/list.c ****  * COPYRIGHT HOLDERS BE LIABLE FOR ANY CLAIM, DAMAGES OR OTHER LIABILITY, WHETHER
  19:FreeRTOS/Source/list.c ****  * IN AN ACTION OF CONTRACT, TORT OR OTHERWISE, ARISING FROM, OUT OF OR IN
  20:FreeRTOS/Source/list.c ****  * CONNECTION WITH THE SOFTWARE OR THE USE OR OTHER DEALINGS IN THE SOFTWARE.
  21:FreeRTOS/Source/list.c ****  *
  22:FreeRTOS/Source/list.c ****  * http://www.FreeRTOS.org
  23:FreeRTOS/Source/list.c ****  * http://aws.amazon.com/freertos
  24:FreeRTOS/Source/list.c ****  *
  25:FreeRTOS/Source/list.c ****  * 1 tab == 4 spaces!
  26:FreeRTOS/Source/list.c ****  */
  27:FreeRTOS/Source/list.c **** 
  28:FreeRTOS/Source/list.c **** 
  29:FreeRTOS/Source/list.c **** #include <stdlib.h>
  30:FreeRTOS/Source/list.c **** #include "FreeRTOS.h"
  31:FreeRTOS/Source/list.c **** #include "list.h"
  32:FreeRTOS/Source/list.c **** 
  33:FreeRTOS/Source/list.c **** /*-----------------------------------------------------------
ARM GAS  /tmp/cc7JgLA7.s 			page 2


  34:FreeRTOS/Source/list.c ****  * PUBLIC LIST API documented in list.h
  35:FreeRTOS/Source/list.c ****  *----------------------------------------------------------*/
  36:FreeRTOS/Source/list.c **** 
  37:FreeRTOS/Source/list.c **** void vListInitialise( List_t * const pxList )
  38:FreeRTOS/Source/list.c **** {
  25              		.loc 1 38 0
  26              		.cfi_startproc
  27              		@ args = 0, pretend = 0, frame = 8
  28              		@ frame_needed = 1, uses_anonymous_args = 0
  29              		@ link register save eliminated.
  30 0000 80B4     		push	{r7}
  31              		.cfi_def_cfa_offset 4
  32              		.cfi_offset 7, -4
  33 0002 83B0     		sub	sp, sp, #12
  34              		.cfi_def_cfa_offset 16
  35 0004 00AF     		add	r7, sp, #0
  36              		.cfi_def_cfa_register 7
  37 0006 7860     		str	r0, [r7, #4]
  39:FreeRTOS/Source/list.c **** 	/* The list structure contains a list item which is used to mark the
  40:FreeRTOS/Source/list.c **** 	end of the list.  To initialise the list the list end is inserted
  41:FreeRTOS/Source/list.c **** 	as the only list entry. */
  42:FreeRTOS/Source/list.c **** 	pxList->pxIndex = ( ListItem_t * ) &( pxList->xListEnd );			/*lint !e826 !e740 !e9087 The mini lis
  38              		.loc 1 42 0
  39 0008 7B68     		ldr	r3, [r7, #4]
  40 000a 03F10802 		add	r2, r3, #8
  41 000e 7B68     		ldr	r3, [r7, #4]
  42 0010 5A60     		str	r2, [r3, #4]
  43:FreeRTOS/Source/list.c **** 
  44:FreeRTOS/Source/list.c **** 	/* The list end value is the highest possible value in the list to
  45:FreeRTOS/Source/list.c **** 	ensure it remains at the end of the list. */
  46:FreeRTOS/Source/list.c **** 	pxList->xListEnd.xItemValue = portMAX_DELAY;
  43              		.loc 1 46 0
  44 0012 7B68     		ldr	r3, [r7, #4]
  45 0014 4FF0FF32 		mov	r2, #-1
  46 0018 9A60     		str	r2, [r3, #8]
  47:FreeRTOS/Source/list.c **** 
  48:FreeRTOS/Source/list.c **** 	/* The list end next and previous pointers point to itself so we know
  49:FreeRTOS/Source/list.c **** 	when the list is empty. */
  50:FreeRTOS/Source/list.c **** 	pxList->xListEnd.pxNext = ( ListItem_t * ) &( pxList->xListEnd );	/*lint !e826 !e740 !e9087 The mi
  47              		.loc 1 50 0
  48 001a 7B68     		ldr	r3, [r7, #4]
  49 001c 03F10802 		add	r2, r3, #8
  50 0020 7B68     		ldr	r3, [r7, #4]
  51 0022 DA60     		str	r2, [r3, #12]
  51:FreeRTOS/Source/list.c **** 	pxList->xListEnd.pxPrevious = ( ListItem_t * ) &( pxList->xListEnd );/*lint !e826 !e740 !e9087 The
  52              		.loc 1 51 0
  53 0024 7B68     		ldr	r3, [r7, #4]
  54 0026 03F10802 		add	r2, r3, #8
  55 002a 7B68     		ldr	r3, [r7, #4]
  56 002c 1A61     		str	r2, [r3, #16]
  52:FreeRTOS/Source/list.c **** 
  53:FreeRTOS/Source/list.c **** 	pxList->uxNumberOfItems = ( UBaseType_t ) 0U;
  57              		.loc 1 53 0
  58 002e 7B68     		ldr	r3, [r7, #4]
  59 0030 0022     		movs	r2, #0
  60 0032 1A60     		str	r2, [r3]
  54:FreeRTOS/Source/list.c **** 
ARM GAS  /tmp/cc7JgLA7.s 			page 3


  55:FreeRTOS/Source/list.c **** 	/* Write known values into the list if
  56:FreeRTOS/Source/list.c **** 	configUSE_LIST_DATA_INTEGRITY_CHECK_BYTES is set to 1. */
  57:FreeRTOS/Source/list.c **** 	listSET_LIST_INTEGRITY_CHECK_1_VALUE( pxList );
  58:FreeRTOS/Source/list.c **** 	listSET_LIST_INTEGRITY_CHECK_2_VALUE( pxList );
  59:FreeRTOS/Source/list.c **** }
  61              		.loc 1 59 0
  62 0034 00BF     		nop
  63 0036 0C37     		adds	r7, r7, #12
  64              		.cfi_def_cfa_offset 4
  65 0038 BD46     		mov	sp, r7
  66              		.cfi_def_cfa_register 13
  67              		@ sp needed
  68 003a 80BC     		pop	{r7}
  69              		.cfi_restore 7
  70              		.cfi_def_cfa_offset 0
  71 003c 7047     		bx	lr
  72              		.cfi_endproc
  73              	.LFE5:
  74              		.size	vListInitialise, .-vListInitialise
  75              		.align	1
  76              		.global	vListInitialiseItem
  77              		.syntax unified
  78              		.thumb
  79              		.thumb_func
  80              		.fpu softvfp
  81              		.type	vListInitialiseItem, %function
  82              	vListInitialiseItem:
  83              	.LFB6:
  60:FreeRTOS/Source/list.c **** /*-----------------------------------------------------------*/
  61:FreeRTOS/Source/list.c **** 
  62:FreeRTOS/Source/list.c **** void vListInitialiseItem( ListItem_t * const pxItem )
  63:FreeRTOS/Source/list.c **** {
  84              		.loc 1 63 0
  85              		.cfi_startproc
  86              		@ args = 0, pretend = 0, frame = 8
  87              		@ frame_needed = 1, uses_anonymous_args = 0
  88              		@ link register save eliminated.
  89 003e 80B4     		push	{r7}
  90              		.cfi_def_cfa_offset 4
  91              		.cfi_offset 7, -4
  92 0040 83B0     		sub	sp, sp, #12
  93              		.cfi_def_cfa_offset 16
  94 0042 00AF     		add	r7, sp, #0
  95              		.cfi_def_cfa_register 7
  96 0044 7860     		str	r0, [r7, #4]
  64:FreeRTOS/Source/list.c **** 	/* Make sure the list item is not recorded as being on a list. */
  65:FreeRTOS/Source/list.c **** 	pxItem->pxContainer = NULL;
  97              		.loc 1 65 0
  98 0046 7B68     		ldr	r3, [r7, #4]
  99 0048 0022     		movs	r2, #0
 100 004a 1A61     		str	r2, [r3, #16]
  66:FreeRTOS/Source/list.c **** 
  67:FreeRTOS/Source/list.c **** 	/* Write known values into the list item if
  68:FreeRTOS/Source/list.c **** 	configUSE_LIST_DATA_INTEGRITY_CHECK_BYTES is set to 1. */
  69:FreeRTOS/Source/list.c **** 	listSET_FIRST_LIST_ITEM_INTEGRITY_CHECK_VALUE( pxItem );
  70:FreeRTOS/Source/list.c **** 	listSET_SECOND_LIST_ITEM_INTEGRITY_CHECK_VALUE( pxItem );
  71:FreeRTOS/Source/list.c **** }
ARM GAS  /tmp/cc7JgLA7.s 			page 4


 101              		.loc 1 71 0
 102 004c 00BF     		nop
 103 004e 0C37     		adds	r7, r7, #12
 104              		.cfi_def_cfa_offset 4
 105 0050 BD46     		mov	sp, r7
 106              		.cfi_def_cfa_register 13
 107              		@ sp needed
 108 0052 80BC     		pop	{r7}
 109              		.cfi_restore 7
 110              		.cfi_def_cfa_offset 0
 111 0054 7047     		bx	lr
 112              		.cfi_endproc
 113              	.LFE6:
 114              		.size	vListInitialiseItem, .-vListInitialiseItem
 115              		.align	1
 116              		.global	vListInsertEnd
 117              		.syntax unified
 118              		.thumb
 119              		.thumb_func
 120              		.fpu softvfp
 121              		.type	vListInsertEnd, %function
 122              	vListInsertEnd:
 123              	.LFB7:
  72:FreeRTOS/Source/list.c **** /*-----------------------------------------------------------*/
  73:FreeRTOS/Source/list.c **** 
  74:FreeRTOS/Source/list.c **** void vListInsertEnd( List_t * const pxList, ListItem_t * const pxNewListItem )
  75:FreeRTOS/Source/list.c **** {
 124              		.loc 1 75 0
 125              		.cfi_startproc
 126              		@ args = 0, pretend = 0, frame = 16
 127              		@ frame_needed = 1, uses_anonymous_args = 0
 128              		@ link register save eliminated.
 129 0056 80B4     		push	{r7}
 130              		.cfi_def_cfa_offset 4
 131              		.cfi_offset 7, -4
 132 0058 85B0     		sub	sp, sp, #20
 133              		.cfi_def_cfa_offset 24
 134 005a 00AF     		add	r7, sp, #0
 135              		.cfi_def_cfa_register 7
 136 005c 7860     		str	r0, [r7, #4]
 137 005e 3960     		str	r1, [r7]
  76:FreeRTOS/Source/list.c **** ListItem_t * const pxIndex = pxList->pxIndex;
 138              		.loc 1 76 0
 139 0060 7B68     		ldr	r3, [r7, #4]
 140 0062 5B68     		ldr	r3, [r3, #4]
 141 0064 FB60     		str	r3, [r7, #12]
  77:FreeRTOS/Source/list.c **** 
  78:FreeRTOS/Source/list.c **** 	/* Only effective when configASSERT() is also defined, these tests may catch
  79:FreeRTOS/Source/list.c **** 	the list data structures being overwritten in memory.  They will not catch
  80:FreeRTOS/Source/list.c **** 	data errors caused by incorrect configuration or use of FreeRTOS. */
  81:FreeRTOS/Source/list.c **** 	listTEST_LIST_INTEGRITY( pxList );
  82:FreeRTOS/Source/list.c **** 	listTEST_LIST_ITEM_INTEGRITY( pxNewListItem );
  83:FreeRTOS/Source/list.c **** 
  84:FreeRTOS/Source/list.c **** 	/* Insert a new list item into pxList, but rather than sort the list,
  85:FreeRTOS/Source/list.c **** 	makes the new list item the last item to be removed by a call to
  86:FreeRTOS/Source/list.c **** 	listGET_OWNER_OF_NEXT_ENTRY(). */
  87:FreeRTOS/Source/list.c **** 	pxNewListItem->pxNext = pxIndex;
ARM GAS  /tmp/cc7JgLA7.s 			page 5


 142              		.loc 1 87 0
 143 0066 3B68     		ldr	r3, [r7]
 144 0068 FA68     		ldr	r2, [r7, #12]
 145 006a 5A60     		str	r2, [r3, #4]
  88:FreeRTOS/Source/list.c **** 	pxNewListItem->pxPrevious = pxIndex->pxPrevious;
 146              		.loc 1 88 0
 147 006c FB68     		ldr	r3, [r7, #12]
 148 006e 9A68     		ldr	r2, [r3, #8]
 149 0070 3B68     		ldr	r3, [r7]
 150 0072 9A60     		str	r2, [r3, #8]
  89:FreeRTOS/Source/list.c **** 
  90:FreeRTOS/Source/list.c **** 	/* Only used during decision coverage testing. */
  91:FreeRTOS/Source/list.c **** 	mtCOVERAGE_TEST_DELAY();
  92:FreeRTOS/Source/list.c **** 
  93:FreeRTOS/Source/list.c **** 	pxIndex->pxPrevious->pxNext = pxNewListItem;
 151              		.loc 1 93 0
 152 0074 FB68     		ldr	r3, [r7, #12]
 153 0076 9B68     		ldr	r3, [r3, #8]
 154 0078 3A68     		ldr	r2, [r7]
 155 007a 5A60     		str	r2, [r3, #4]
  94:FreeRTOS/Source/list.c **** 	pxIndex->pxPrevious = pxNewListItem;
 156              		.loc 1 94 0
 157 007c FB68     		ldr	r3, [r7, #12]
 158 007e 3A68     		ldr	r2, [r7]
 159 0080 9A60     		str	r2, [r3, #8]
  95:FreeRTOS/Source/list.c **** 
  96:FreeRTOS/Source/list.c **** 	/* Remember which list the item is in. */
  97:FreeRTOS/Source/list.c **** 	pxNewListItem->pxContainer = pxList;
 160              		.loc 1 97 0
 161 0082 3B68     		ldr	r3, [r7]
 162 0084 7A68     		ldr	r2, [r7, #4]
 163 0086 1A61     		str	r2, [r3, #16]
  98:FreeRTOS/Source/list.c **** 
  99:FreeRTOS/Source/list.c **** 	( pxList->uxNumberOfItems )++;
 164              		.loc 1 99 0
 165 0088 7B68     		ldr	r3, [r7, #4]
 166 008a 1B68     		ldr	r3, [r3]
 167 008c 5A1C     		adds	r2, r3, #1
 168 008e 7B68     		ldr	r3, [r7, #4]
 169 0090 1A60     		str	r2, [r3]
 100:FreeRTOS/Source/list.c **** }
 170              		.loc 1 100 0
 171 0092 00BF     		nop
 172 0094 1437     		adds	r7, r7, #20
 173              		.cfi_def_cfa_offset 4
 174 0096 BD46     		mov	sp, r7
 175              		.cfi_def_cfa_register 13
 176              		@ sp needed
 177 0098 80BC     		pop	{r7}
 178              		.cfi_restore 7
 179              		.cfi_def_cfa_offset 0
 180 009a 7047     		bx	lr
 181              		.cfi_endproc
 182              	.LFE7:
 183              		.size	vListInsertEnd, .-vListInsertEnd
 184              		.align	1
 185              		.global	vListInsert
ARM GAS  /tmp/cc7JgLA7.s 			page 6


 186              		.syntax unified
 187              		.thumb
 188              		.thumb_func
 189              		.fpu softvfp
 190              		.type	vListInsert, %function
 191              	vListInsert:
 192              	.LFB8:
 101:FreeRTOS/Source/list.c **** /*-----------------------------------------------------------*/
 102:FreeRTOS/Source/list.c **** 
 103:FreeRTOS/Source/list.c **** void vListInsert( List_t * const pxList, ListItem_t * const pxNewListItem )
 104:FreeRTOS/Source/list.c **** {
 193              		.loc 1 104 0
 194              		.cfi_startproc
 195              		@ args = 0, pretend = 0, frame = 16
 196              		@ frame_needed = 1, uses_anonymous_args = 0
 197              		@ link register save eliminated.
 198 009c 80B4     		push	{r7}
 199              		.cfi_def_cfa_offset 4
 200              		.cfi_offset 7, -4
 201 009e 85B0     		sub	sp, sp, #20
 202              		.cfi_def_cfa_offset 24
 203 00a0 00AF     		add	r7, sp, #0
 204              		.cfi_def_cfa_register 7
 205 00a2 7860     		str	r0, [r7, #4]
 206 00a4 3960     		str	r1, [r7]
 105:FreeRTOS/Source/list.c **** ListItem_t *pxIterator;
 106:FreeRTOS/Source/list.c **** const TickType_t xValueOfInsertion = pxNewListItem->xItemValue;
 207              		.loc 1 106 0
 208 00a6 3B68     		ldr	r3, [r7]
 209 00a8 1B68     		ldr	r3, [r3]
 210 00aa BB60     		str	r3, [r7, #8]
 107:FreeRTOS/Source/list.c **** 
 108:FreeRTOS/Source/list.c **** 	/* Only effective when configASSERT() is also defined, these tests may catch
 109:FreeRTOS/Source/list.c **** 	the list data structures being overwritten in memory.  They will not catch
 110:FreeRTOS/Source/list.c **** 	data errors caused by incorrect configuration or use of FreeRTOS. */
 111:FreeRTOS/Source/list.c **** 	listTEST_LIST_INTEGRITY( pxList );
 112:FreeRTOS/Source/list.c **** 	listTEST_LIST_ITEM_INTEGRITY( pxNewListItem );
 113:FreeRTOS/Source/list.c **** 
 114:FreeRTOS/Source/list.c **** 	/* Insert the new list item into the list, sorted in xItemValue order.
 115:FreeRTOS/Source/list.c **** 
 116:FreeRTOS/Source/list.c **** 	If the list already contains a list item with the same item value then the
 117:FreeRTOS/Source/list.c **** 	new list item should be placed after it.  This ensures that TCBs which are
 118:FreeRTOS/Source/list.c **** 	stored in ready lists (all of which have the same xItemValue value) get a
 119:FreeRTOS/Source/list.c **** 	share of the CPU.  However, if the xItemValue is the same as the back marker
 120:FreeRTOS/Source/list.c **** 	the iteration loop below will not end.  Therefore the value is checked
 121:FreeRTOS/Source/list.c **** 	first, and the algorithm slightly modified if necessary. */
 122:FreeRTOS/Source/list.c **** 	if( xValueOfInsertion == portMAX_DELAY )
 211              		.loc 1 122 0
 212 00ac BB68     		ldr	r3, [r7, #8]
 213 00ae B3F1FF3F 		cmp	r3, #-1
 214 00b2 03D1     		bne	.L5
 123:FreeRTOS/Source/list.c **** 	{
 124:FreeRTOS/Source/list.c **** 		pxIterator = pxList->xListEnd.pxPrevious;
 215              		.loc 1 124 0
 216 00b4 7B68     		ldr	r3, [r7, #4]
 217 00b6 1B69     		ldr	r3, [r3, #16]
 218 00b8 FB60     		str	r3, [r7, #12]
ARM GAS  /tmp/cc7JgLA7.s 			page 7


 219 00ba 0CE0     		b	.L6
 220              	.L5:
 125:FreeRTOS/Source/list.c **** 	}
 126:FreeRTOS/Source/list.c **** 	else
 127:FreeRTOS/Source/list.c **** 	{
 128:FreeRTOS/Source/list.c **** 		/* *** NOTE ***********************************************************
 129:FreeRTOS/Source/list.c **** 		If you find your application is crashing here then likely causes are
 130:FreeRTOS/Source/list.c **** 		listed below.  In addition see https://www.freertos.org/FAQHelp.html for
 131:FreeRTOS/Source/list.c **** 		more tips, and ensure configASSERT() is defined!
 132:FreeRTOS/Source/list.c **** 		https://www.freertos.org/a00110.html#configASSERT
 133:FreeRTOS/Source/list.c **** 
 134:FreeRTOS/Source/list.c **** 			1) Stack overflow -
 135:FreeRTOS/Source/list.c **** 			   see https://www.freertos.org/Stacks-and-stack-overflow-checking.html
 136:FreeRTOS/Source/list.c **** 			2) Incorrect interrupt priority assignment, especially on Cortex-M
 137:FreeRTOS/Source/list.c **** 			   parts where numerically high priority values denote low actual
 138:FreeRTOS/Source/list.c **** 			   interrupt priorities, which can seem counter intuitive.  See
 139:FreeRTOS/Source/list.c **** 			   https://www.freertos.org/RTOS-Cortex-M3-M4.html and the definition
 140:FreeRTOS/Source/list.c **** 			   of configMAX_SYSCALL_INTERRUPT_PRIORITY on
 141:FreeRTOS/Source/list.c **** 			   https://www.freertos.org/a00110.html
 142:FreeRTOS/Source/list.c **** 			3) Calling an API function from within a critical section or when
 143:FreeRTOS/Source/list.c **** 			   the scheduler is suspended, or calling an API function that does
 144:FreeRTOS/Source/list.c **** 			   not end in "FromISR" from an interrupt.
 145:FreeRTOS/Source/list.c **** 			4) Using a queue or semaphore before it has been initialised or
 146:FreeRTOS/Source/list.c **** 			   before the scheduler has been started (are interrupts firing
 147:FreeRTOS/Source/list.c **** 			   before vTaskStartScheduler() has been called?).
 148:FreeRTOS/Source/list.c **** 		**********************************************************************/
 149:FreeRTOS/Source/list.c **** 
 150:FreeRTOS/Source/list.c **** 		for( pxIterator = ( ListItem_t * ) &( pxList->xListEnd ); pxIterator->pxNext->xItemValue <= xValu
 221              		.loc 1 150 0
 222 00bc 7B68     		ldr	r3, [r7, #4]
 223 00be 0833     		adds	r3, r3, #8
 224 00c0 FB60     		str	r3, [r7, #12]
 225 00c2 02E0     		b	.L7
 226              	.L8:
 227              		.loc 1 150 0 is_stmt 0 discriminator 3
 228 00c4 FB68     		ldr	r3, [r7, #12]
 229 00c6 5B68     		ldr	r3, [r3, #4]
 230 00c8 FB60     		str	r3, [r7, #12]
 231              	.L7:
 232              		.loc 1 150 0 discriminator 1
 233 00ca FB68     		ldr	r3, [r7, #12]
 234 00cc 5B68     		ldr	r3, [r3, #4]
 235 00ce 1A68     		ldr	r2, [r3]
 236 00d0 BB68     		ldr	r3, [r7, #8]
 237 00d2 9A42     		cmp	r2, r3
 238 00d4 F6D9     		bls	.L8
 239              	.L6:
 151:FreeRTOS/Source/list.c **** 		{
 152:FreeRTOS/Source/list.c **** 			/* There is nothing to do here, just iterating to the wanted
 153:FreeRTOS/Source/list.c **** 			insertion position. */
 154:FreeRTOS/Source/list.c **** 		}
 155:FreeRTOS/Source/list.c **** 	}
 156:FreeRTOS/Source/list.c **** 
 157:FreeRTOS/Source/list.c **** 	pxNewListItem->pxNext = pxIterator->pxNext;
 240              		.loc 1 157 0 is_stmt 1
 241 00d6 FB68     		ldr	r3, [r7, #12]
 242 00d8 5A68     		ldr	r2, [r3, #4]
ARM GAS  /tmp/cc7JgLA7.s 			page 8


 243 00da 3B68     		ldr	r3, [r7]
 244 00dc 5A60     		str	r2, [r3, #4]
 158:FreeRTOS/Source/list.c **** 	pxNewListItem->pxNext->pxPrevious = pxNewListItem;
 245              		.loc 1 158 0
 246 00de 3B68     		ldr	r3, [r7]
 247 00e0 5B68     		ldr	r3, [r3, #4]
 248 00e2 3A68     		ldr	r2, [r7]
 249 00e4 9A60     		str	r2, [r3, #8]
 159:FreeRTOS/Source/list.c **** 	pxNewListItem->pxPrevious = pxIterator;
 250              		.loc 1 159 0
 251 00e6 3B68     		ldr	r3, [r7]
 252 00e8 FA68     		ldr	r2, [r7, #12]
 253 00ea 9A60     		str	r2, [r3, #8]
 160:FreeRTOS/Source/list.c **** 	pxIterator->pxNext = pxNewListItem;
 254              		.loc 1 160 0
 255 00ec FB68     		ldr	r3, [r7, #12]
 256 00ee 3A68     		ldr	r2, [r7]
 257 00f0 5A60     		str	r2, [r3, #4]
 161:FreeRTOS/Source/list.c **** 
 162:FreeRTOS/Source/list.c **** 	/* Remember which list the item is in.  This allows fast removal of the
 163:FreeRTOS/Source/list.c **** 	item later. */
 164:FreeRTOS/Source/list.c **** 	pxNewListItem->pxContainer = pxList;
 258              		.loc 1 164 0
 259 00f2 3B68     		ldr	r3, [r7]
 260 00f4 7A68     		ldr	r2, [r7, #4]
 261 00f6 1A61     		str	r2, [r3, #16]
 165:FreeRTOS/Source/list.c **** 
 166:FreeRTOS/Source/list.c **** 	( pxList->uxNumberOfItems )++;
 262              		.loc 1 166 0
 263 00f8 7B68     		ldr	r3, [r7, #4]
 264 00fa 1B68     		ldr	r3, [r3]
 265 00fc 5A1C     		adds	r2, r3, #1
 266 00fe 7B68     		ldr	r3, [r7, #4]
 267 0100 1A60     		str	r2, [r3]
 167:FreeRTOS/Source/list.c **** }
 268              		.loc 1 167 0
 269 0102 00BF     		nop
 270 0104 1437     		adds	r7, r7, #20
 271              		.cfi_def_cfa_offset 4
 272 0106 BD46     		mov	sp, r7
 273              		.cfi_def_cfa_register 13
 274              		@ sp needed
 275 0108 80BC     		pop	{r7}
 276              		.cfi_restore 7
 277              		.cfi_def_cfa_offset 0
 278 010a 7047     		bx	lr
 279              		.cfi_endproc
 280              	.LFE8:
 281              		.size	vListInsert, .-vListInsert
 282              		.align	1
 283              		.global	uxListRemove
 284              		.syntax unified
 285              		.thumb
 286              		.thumb_func
 287              		.fpu softvfp
 288              		.type	uxListRemove, %function
 289              	uxListRemove:
ARM GAS  /tmp/cc7JgLA7.s 			page 9


 290              	.LFB9:
 168:FreeRTOS/Source/list.c **** /*-----------------------------------------------------------*/
 169:FreeRTOS/Source/list.c **** 
 170:FreeRTOS/Source/list.c **** UBaseType_t uxListRemove( ListItem_t * const pxItemToRemove )
 171:FreeRTOS/Source/list.c **** {
 291              		.loc 1 171 0
 292              		.cfi_startproc
 293              		@ args = 0, pretend = 0, frame = 16
 294              		@ frame_needed = 1, uses_anonymous_args = 0
 295              		@ link register save eliminated.
 296 010c 80B4     		push	{r7}
 297              		.cfi_def_cfa_offset 4
 298              		.cfi_offset 7, -4
 299 010e 85B0     		sub	sp, sp, #20
 300              		.cfi_def_cfa_offset 24
 301 0110 00AF     		add	r7, sp, #0
 302              		.cfi_def_cfa_register 7
 303 0112 7860     		str	r0, [r7, #4]
 172:FreeRTOS/Source/list.c **** /* The list item knows which list it is in.  Obtain the list from the list
 173:FreeRTOS/Source/list.c **** item. */
 174:FreeRTOS/Source/list.c **** List_t * const pxList = pxItemToRemove->pxContainer;
 304              		.loc 1 174 0
 305 0114 7B68     		ldr	r3, [r7, #4]
 306 0116 1B69     		ldr	r3, [r3, #16]
 307 0118 FB60     		str	r3, [r7, #12]
 175:FreeRTOS/Source/list.c **** 
 176:FreeRTOS/Source/list.c **** 	pxItemToRemove->pxNext->pxPrevious = pxItemToRemove->pxPrevious;
 308              		.loc 1 176 0
 309 011a 7B68     		ldr	r3, [r7, #4]
 310 011c 5B68     		ldr	r3, [r3, #4]
 311 011e 7A68     		ldr	r2, [r7, #4]
 312 0120 9268     		ldr	r2, [r2, #8]
 313 0122 9A60     		str	r2, [r3, #8]
 177:FreeRTOS/Source/list.c **** 	pxItemToRemove->pxPrevious->pxNext = pxItemToRemove->pxNext;
 314              		.loc 1 177 0
 315 0124 7B68     		ldr	r3, [r7, #4]
 316 0126 9B68     		ldr	r3, [r3, #8]
 317 0128 7A68     		ldr	r2, [r7, #4]
 318 012a 5268     		ldr	r2, [r2, #4]
 319 012c 5A60     		str	r2, [r3, #4]
 178:FreeRTOS/Source/list.c **** 
 179:FreeRTOS/Source/list.c **** 	/* Only used during decision coverage testing. */
 180:FreeRTOS/Source/list.c **** 	mtCOVERAGE_TEST_DELAY();
 181:FreeRTOS/Source/list.c **** 
 182:FreeRTOS/Source/list.c **** 	/* Make sure the index is left pointing to a valid item. */
 183:FreeRTOS/Source/list.c **** 	if( pxList->pxIndex == pxItemToRemove )
 320              		.loc 1 183 0
 321 012e FB68     		ldr	r3, [r7, #12]
 322 0130 5A68     		ldr	r2, [r3, #4]
 323 0132 7B68     		ldr	r3, [r7, #4]
 324 0134 9A42     		cmp	r2, r3
 325 0136 03D1     		bne	.L10
 184:FreeRTOS/Source/list.c **** 	{
 185:FreeRTOS/Source/list.c **** 		pxList->pxIndex = pxItemToRemove->pxPrevious;
 326              		.loc 1 185 0
 327 0138 7B68     		ldr	r3, [r7, #4]
 328 013a 9A68     		ldr	r2, [r3, #8]
ARM GAS  /tmp/cc7JgLA7.s 			page 10


 329 013c FB68     		ldr	r3, [r7, #12]
 330 013e 5A60     		str	r2, [r3, #4]
 331              	.L10:
 186:FreeRTOS/Source/list.c **** 	}
 187:FreeRTOS/Source/list.c **** 	else
 188:FreeRTOS/Source/list.c **** 	{
 189:FreeRTOS/Source/list.c **** 		mtCOVERAGE_TEST_MARKER();
 190:FreeRTOS/Source/list.c **** 	}
 191:FreeRTOS/Source/list.c **** 
 192:FreeRTOS/Source/list.c **** 	pxItemToRemove->pxContainer = NULL;
 332              		.loc 1 192 0
 333 0140 7B68     		ldr	r3, [r7, #4]
 334 0142 0022     		movs	r2, #0
 335 0144 1A61     		str	r2, [r3, #16]
 193:FreeRTOS/Source/list.c **** 	( pxList->uxNumberOfItems )--;
 336              		.loc 1 193 0
 337 0146 FB68     		ldr	r3, [r7, #12]
 338 0148 1B68     		ldr	r3, [r3]
 339 014a 5A1E     		subs	r2, r3, #1
 340 014c FB68     		ldr	r3, [r7, #12]
 341 014e 1A60     		str	r2, [r3]
 194:FreeRTOS/Source/list.c **** 
 195:FreeRTOS/Source/list.c **** 	return pxList->uxNumberOfItems;
 342              		.loc 1 195 0
 343 0150 FB68     		ldr	r3, [r7, #12]
 344 0152 1B68     		ldr	r3, [r3]
 196:FreeRTOS/Source/list.c **** }
 345              		.loc 1 196 0
 346 0154 1846     		mov	r0, r3
 347 0156 1437     		adds	r7, r7, #20
 348              		.cfi_def_cfa_offset 4
 349 0158 BD46     		mov	sp, r7
 350              		.cfi_def_cfa_register 13
 351              		@ sp needed
 352 015a 80BC     		pop	{r7}
 353              		.cfi_restore 7
 354              		.cfi_def_cfa_offset 0
 355 015c 7047     		bx	lr
 356              		.cfi_endproc
 357              	.LFE9:
 358              		.size	uxListRemove, .-uxListRemove
 359              	.Letext0:
 360              		.file 2 "/usr/include/newlib/machine/_default_types.h"
 361              		.file 3 "/usr/include/newlib/sys/lock.h"
 362              		.file 4 "/usr/include/newlib/sys/_types.h"
 363              		.file 5 "/usr/lib/gcc/arm-none-eabi/6.3.1/include/stddef.h"
 364              		.file 6 "/usr/include/newlib/sys/reent.h"
 365              		.file 7 "/usr/include/newlib/sys/_stdint.h"
 366              		.file 8 "include/FreeRTOSConfig.h"
 367              		.file 9 "FreeRTOS/Source/portable/GCC/ARM_CM3/portmacro.h"
 368              		.file 10 "FreeRTOS/Source/include/list.h"
 369              		.section	.debug_info,"",%progbits
 370              	.Ldebug_info0:
 371 0000 B20A0000 		.4byte	0xab2
 372 0004 0400     		.2byte	0x4
 373 0006 00000000 		.4byte	.Ldebug_abbrev0
 374 000a 04       		.byte	0x4
ARM GAS  /tmp/cc7JgLA7.s 			page 11


 375 000b 01       		.uleb128 0x1
 376 000c 46030000 		.4byte	.LASF147
 377 0010 0C       		.byte	0xc
 378 0011 BE020000 		.4byte	.LASF148
 379 0015 BD010000 		.4byte	.LASF149
 380 0019 00000000 		.4byte	.Ltext0
 381 001d 5E010000 		.4byte	.Letext0-.Ltext0
 382 0021 00000000 		.4byte	.Ldebug_line0
 383 0025 02       		.uleb128 0x2
 384 0026 04       		.byte	0x4
 385 0027 07       		.byte	0x7
 386 0028 F2010000 		.4byte	.LASF0
 387 002c 03       		.uleb128 0x3
 388 002d 04       		.byte	0x4
 389 002e 05       		.byte	0x5
 390 002f 696E7400 		.ascii	"int\000"
 391 0033 02       		.uleb128 0x2
 392 0034 01       		.byte	0x1
 393 0035 06       		.byte	0x6
 394 0036 C5000000 		.4byte	.LASF1
 395 003a 02       		.uleb128 0x2
 396 003b 01       		.byte	0x1
 397 003c 08       		.byte	0x8
 398 003d E3030000 		.4byte	.LASF2
 399 0041 02       		.uleb128 0x2
 400 0042 02       		.byte	0x2
 401 0043 05       		.byte	0x5
 402 0044 FF030000 		.4byte	.LASF3
 403 0048 02       		.uleb128 0x2
 404 0049 02       		.byte	0x2
 405 004a 07       		.byte	0x7
 406 004b 55020000 		.4byte	.LASF4
 407 004f 02       		.uleb128 0x2
 408 0050 04       		.byte	0x4
 409 0051 05       		.byte	0x5
 410 0052 0A010000 		.4byte	.LASF5
 411 0056 04       		.uleb128 0x4
 412 0057 84010000 		.4byte	.LASF9
 413 005b 02       		.byte	0x2
 414 005c 41       		.byte	0x41
 415 005d 61000000 		.4byte	0x61
 416 0061 02       		.uleb128 0x2
 417 0062 04       		.byte	0x4
 418 0063 07       		.byte	0x7
 419 0064 36020000 		.4byte	.LASF6
 420 0068 02       		.uleb128 0x2
 421 0069 08       		.byte	0x8
 422 006a 05       		.byte	0x5
 423 006b B7000000 		.4byte	.LASF7
 424 006f 02       		.uleb128 0x2
 425 0070 08       		.byte	0x8
 426 0071 07       		.byte	0x7
 427 0072 5A000000 		.4byte	.LASF8
 428 0076 04       		.uleb128 0x4
 429 0077 CB030000 		.4byte	.LASF10
 430 007b 03       		.byte	0x3
 431 007c 07       		.byte	0x7
ARM GAS  /tmp/cc7JgLA7.s 			page 12


 432 007d 2C000000 		.4byte	0x2c
 433 0081 04       		.uleb128 0x4
 434 0082 3F030000 		.4byte	.LASF11
 435 0086 04       		.byte	0x4
 436 0087 2C       		.byte	0x2c
 437 0088 4F000000 		.4byte	0x4f
 438 008c 04       		.uleb128 0x4
 439 008d CF040000 		.4byte	.LASF12
 440 0091 04       		.byte	0x4
 441 0092 72       		.byte	0x72
 442 0093 4F000000 		.4byte	0x4f
 443 0097 05       		.uleb128 0x5
 444 0098 98020000 		.4byte	.LASF13
 445 009c 05       		.byte	0x5
 446 009d 6501     		.2byte	0x165
 447 009f 25000000 		.4byte	0x25
 448 00a3 06       		.uleb128 0x6
 449 00a4 04       		.byte	0x4
 450 00a5 04       		.byte	0x4
 451 00a6 A6       		.byte	0xa6
 452 00a7 C2000000 		.4byte	0xc2
 453 00ab 07       		.uleb128 0x7
 454 00ac 92020000 		.4byte	.LASF14
 455 00b0 04       		.byte	0x4
 456 00b1 A8       		.byte	0xa8
 457 00b2 97000000 		.4byte	0x97
 458 00b6 07       		.uleb128 0x7
 459 00b7 FF010000 		.4byte	.LASF15
 460 00bb 04       		.byte	0x4
 461 00bc A9       		.byte	0xa9
 462 00bd C2000000 		.4byte	0xc2
 463 00c1 00       		.byte	0
 464 00c2 08       		.uleb128 0x8
 465 00c3 3A000000 		.4byte	0x3a
 466 00c7 D2000000 		.4byte	0xd2
 467 00cb 09       		.uleb128 0x9
 468 00cc D2000000 		.4byte	0xd2
 469 00d0 03       		.byte	0x3
 470 00d1 00       		.byte	0
 471 00d2 02       		.uleb128 0x2
 472 00d3 04       		.byte	0x4
 473 00d4 07       		.byte	0x7
 474 00d5 F9020000 		.4byte	.LASF16
 475 00d9 0A       		.uleb128 0xa
 476 00da 08       		.byte	0x8
 477 00db 04       		.byte	0x4
 478 00dc A3       		.byte	0xa3
 479 00dd FA000000 		.4byte	0xfa
 480 00e1 0B       		.uleb128 0xb
 481 00e2 A1040000 		.4byte	.LASF17
 482 00e6 04       		.byte	0x4
 483 00e7 A5       		.byte	0xa5
 484 00e8 2C000000 		.4byte	0x2c
 485 00ec 00       		.byte	0
 486 00ed 0B       		.uleb128 0xb
 487 00ee A9040000 		.4byte	.LASF18
 488 00f2 04       		.byte	0x4
ARM GAS  /tmp/cc7JgLA7.s 			page 13


 489 00f3 AA       		.byte	0xaa
 490 00f4 A3000000 		.4byte	0xa3
 491 00f8 04       		.byte	0x4
 492 00f9 00       		.byte	0
 493 00fa 04       		.uleb128 0x4
 494 00fb 27040000 		.4byte	.LASF19
 495 00ff 04       		.byte	0x4
 496 0100 AB       		.byte	0xab
 497 0101 D9000000 		.4byte	0xd9
 498 0105 04       		.uleb128 0x4
 499 0106 95010000 		.4byte	.LASF20
 500 010a 04       		.byte	0x4
 501 010b AF       		.byte	0xaf
 502 010c 76000000 		.4byte	0x76
 503 0110 0C       		.uleb128 0xc
 504 0111 04       		.byte	0x4
 505 0112 0D       		.uleb128 0xd
 506 0113 04       		.byte	0x4
 507 0114 18010000 		.4byte	0x118
 508 0118 02       		.uleb128 0x2
 509 0119 01       		.byte	0x1
 510 011a 08       		.byte	0x8
 511 011b DE040000 		.4byte	.LASF21
 512 011f 0E       		.uleb128 0xe
 513 0120 18010000 		.4byte	0x118
 514 0124 04       		.uleb128 0x4
 515 0125 30050000 		.4byte	.LASF22
 516 0129 06       		.byte	0x6
 517 012a 16       		.byte	0x16
 518 012b 61000000 		.4byte	0x61
 519 012f 0F       		.uleb128 0xf
 520 0130 A6010000 		.4byte	.LASF27
 521 0134 18       		.byte	0x18
 522 0135 06       		.byte	0x6
 523 0136 2D       		.byte	0x2d
 524 0137 82010000 		.4byte	0x182
 525 013b 0B       		.uleb128 0xb
 526 013c 04050000 		.4byte	.LASF23
 527 0140 06       		.byte	0x6
 528 0141 2F       		.byte	0x2f
 529 0142 82010000 		.4byte	0x182
 530 0146 00       		.byte	0
 531 0147 10       		.uleb128 0x10
 532 0148 5F6B00   		.ascii	"_k\000"
 533 014b 06       		.byte	0x6
 534 014c 30       		.byte	0x30
 535 014d 2C000000 		.4byte	0x2c
 536 0151 04       		.byte	0x4
 537 0152 0B       		.uleb128 0xb
 538 0153 8C040000 		.4byte	.LASF24
 539 0157 06       		.byte	0x6
 540 0158 30       		.byte	0x30
 541 0159 2C000000 		.4byte	0x2c
 542 015d 08       		.byte	0x8
 543 015e 0B       		.uleb128 0xb
 544 015f 8F010000 		.4byte	.LASF25
 545 0163 06       		.byte	0x6
ARM GAS  /tmp/cc7JgLA7.s 			page 14


 546 0164 30       		.byte	0x30
 547 0165 2C000000 		.4byte	0x2c
 548 0169 0C       		.byte	0xc
 549 016a 0B       		.uleb128 0xb
 550 016b 9B050000 		.4byte	.LASF26
 551 016f 06       		.byte	0x6
 552 0170 30       		.byte	0x30
 553 0171 2C000000 		.4byte	0x2c
 554 0175 10       		.byte	0x10
 555 0176 10       		.uleb128 0x10
 556 0177 5F7800   		.ascii	"_x\000"
 557 017a 06       		.byte	0x6
 558 017b 31       		.byte	0x31
 559 017c 88010000 		.4byte	0x188
 560 0180 14       		.byte	0x14
 561 0181 00       		.byte	0
 562 0182 0D       		.uleb128 0xd
 563 0183 04       		.byte	0x4
 564 0184 2F010000 		.4byte	0x12f
 565 0188 08       		.uleb128 0x8
 566 0189 24010000 		.4byte	0x124
 567 018d 98010000 		.4byte	0x198
 568 0191 09       		.uleb128 0x9
 569 0192 D2000000 		.4byte	0xd2
 570 0196 00       		.byte	0
 571 0197 00       		.byte	0
 572 0198 0F       		.uleb128 0xf
 573 0199 ED010000 		.4byte	.LASF28
 574 019d 24       		.byte	0x24
 575 019e 06       		.byte	0x6
 576 019f 35       		.byte	0x35
 577 01a0 11020000 		.4byte	0x211
 578 01a4 0B       		.uleb128 0xb
 579 01a5 AE000000 		.4byte	.LASF29
 580 01a9 06       		.byte	0x6
 581 01aa 37       		.byte	0x37
 582 01ab 2C000000 		.4byte	0x2c
 583 01af 00       		.byte	0
 584 01b0 0B       		.uleb128 0xb
 585 01b1 EA040000 		.4byte	.LASF30
 586 01b5 06       		.byte	0x6
 587 01b6 38       		.byte	0x38
 588 01b7 2C000000 		.4byte	0x2c
 589 01bb 04       		.byte	0x4
 590 01bc 0B       		.uleb128 0xb
 591 01bd DD000000 		.4byte	.LASF31
 592 01c1 06       		.byte	0x6
 593 01c2 39       		.byte	0x39
 594 01c3 2C000000 		.4byte	0x2c
 595 01c7 08       		.byte	0x8
 596 01c8 0B       		.uleb128 0xb
 597 01c9 44060000 		.4byte	.LASF32
 598 01cd 06       		.byte	0x6
 599 01ce 3A       		.byte	0x3a
 600 01cf 2C000000 		.4byte	0x2c
 601 01d3 0C       		.byte	0xc
 602 01d4 0B       		.uleb128 0xb
ARM GAS  /tmp/cc7JgLA7.s 			page 15


 603 01d5 23030000 		.4byte	.LASF33
 604 01d9 06       		.byte	0x6
 605 01da 3B       		.byte	0x3b
 606 01db 2C000000 		.4byte	0x2c
 607 01df 10       		.byte	0x10
 608 01e0 0B       		.uleb128 0xb
 609 01e1 B4020000 		.4byte	.LASF34
 610 01e5 06       		.byte	0x6
 611 01e6 3C       		.byte	0x3c
 612 01e7 2C000000 		.4byte	0x2c
 613 01eb 14       		.byte	0x14
 614 01ec 0B       		.uleb128 0xb
 615 01ed A0050000 		.4byte	.LASF35
 616 01f1 06       		.byte	0x6
 617 01f2 3D       		.byte	0x3d
 618 01f3 2C000000 		.4byte	0x2c
 619 01f7 18       		.byte	0x18
 620 01f8 0B       		.uleb128 0xb
 621 01f9 09040000 		.4byte	.LASF36
 622 01fd 06       		.byte	0x6
 623 01fe 3E       		.byte	0x3e
 624 01ff 2C000000 		.4byte	0x2c
 625 0203 1C       		.byte	0x1c
 626 0204 0B       		.uleb128 0xb
 627 0205 F4050000 		.4byte	.LASF37
 628 0209 06       		.byte	0x6
 629 020a 3F       		.byte	0x3f
 630 020b 2C000000 		.4byte	0x2c
 631 020f 20       		.byte	0x20
 632 0210 00       		.byte	0
 633 0211 11       		.uleb128 0x11
 634 0212 EC000000 		.4byte	.LASF38
 635 0216 0801     		.2byte	0x108
 636 0218 06       		.byte	0x6
 637 0219 48       		.byte	0x48
 638 021a 51020000 		.4byte	0x251
 639 021e 0B       		.uleb128 0xb
 640 021f 77010000 		.4byte	.LASF39
 641 0223 06       		.byte	0x6
 642 0224 49       		.byte	0x49
 643 0225 51020000 		.4byte	0x251
 644 0229 00       		.byte	0
 645 022a 0B       		.uleb128 0xb
 646 022b 00000000 		.4byte	.LASF40
 647 022f 06       		.byte	0x6
 648 0230 4A       		.byte	0x4a
 649 0231 51020000 		.4byte	0x251
 650 0235 80       		.byte	0x80
 651 0236 12       		.uleb128 0x12
 652 0237 17050000 		.4byte	.LASF41
 653 023b 06       		.byte	0x6
 654 023c 4C       		.byte	0x4c
 655 023d 24010000 		.4byte	0x124
 656 0241 0001     		.2byte	0x100
 657 0243 12       		.uleb128 0x12
 658 0244 1A010000 		.4byte	.LASF42
 659 0248 06       		.byte	0x6
ARM GAS  /tmp/cc7JgLA7.s 			page 16


 660 0249 4F       		.byte	0x4f
 661 024a 24010000 		.4byte	0x124
 662 024e 0401     		.2byte	0x104
 663 0250 00       		.byte	0
 664 0251 08       		.uleb128 0x8
 665 0252 10010000 		.4byte	0x110
 666 0256 61020000 		.4byte	0x261
 667 025a 09       		.uleb128 0x9
 668 025b D2000000 		.4byte	0xd2
 669 025f 1F       		.byte	0x1f
 670 0260 00       		.byte	0
 671 0261 11       		.uleb128 0x11
 672 0262 2C030000 		.4byte	.LASF43
 673 0266 9001     		.2byte	0x190
 674 0268 06       		.byte	0x6
 675 0269 5B       		.byte	0x5b
 676 026a 9F020000 		.4byte	0x29f
 677 026e 0B       		.uleb128 0xb
 678 026f 04050000 		.4byte	.LASF23
 679 0273 06       		.byte	0x6
 680 0274 5C       		.byte	0x5c
 681 0275 9F020000 		.4byte	0x29f
 682 0279 00       		.byte	0
 683 027a 0B       		.uleb128 0xb
 684 027b 66040000 		.4byte	.LASF44
 685 027f 06       		.byte	0x6
 686 0280 5D       		.byte	0x5d
 687 0281 2C000000 		.4byte	0x2c
 688 0285 04       		.byte	0x4
 689 0286 0B       		.uleb128 0xb
 690 0287 7F010000 		.4byte	.LASF45
 691 028b 06       		.byte	0x6
 692 028c 5F       		.byte	0x5f
 693 028d A5020000 		.4byte	0x2a5
 694 0291 08       		.byte	0x8
 695 0292 0B       		.uleb128 0xb
 696 0293 EC000000 		.4byte	.LASF38
 697 0297 06       		.byte	0x6
 698 0298 60       		.byte	0x60
 699 0299 11020000 		.4byte	0x211
 700 029d 88       		.byte	0x88
 701 029e 00       		.byte	0
 702 029f 0D       		.uleb128 0xd
 703 02a0 04       		.byte	0x4
 704 02a1 61020000 		.4byte	0x261
 705 02a5 08       		.uleb128 0x8
 706 02a6 B5020000 		.4byte	0x2b5
 707 02aa B5020000 		.4byte	0x2b5
 708 02ae 09       		.uleb128 0x9
 709 02af D2000000 		.4byte	0xd2
 710 02b3 1F       		.byte	0x1f
 711 02b4 00       		.byte	0
 712 02b5 0D       		.uleb128 0xd
 713 02b6 04       		.byte	0x4
 714 02b7 BB020000 		.4byte	0x2bb
 715 02bb 13       		.uleb128 0x13
 716 02bc 0F       		.uleb128 0xf
ARM GAS  /tmp/cc7JgLA7.s 			page 17


 717 02bd 13040000 		.4byte	.LASF46
 718 02c1 08       		.byte	0x8
 719 02c2 06       		.byte	0x6
 720 02c3 73       		.byte	0x73
 721 02c4 E1020000 		.4byte	0x2e1
 722 02c8 0B       		.uleb128 0xb
 723 02c9 D7000000 		.4byte	.LASF47
 724 02cd 06       		.byte	0x6
 725 02ce 74       		.byte	0x74
 726 02cf E1020000 		.4byte	0x2e1
 727 02d3 00       		.byte	0
 728 02d4 0B       		.uleb128 0xb
 729 02d5 0C000000 		.4byte	.LASF48
 730 02d9 06       		.byte	0x6
 731 02da 75       		.byte	0x75
 732 02db 2C000000 		.4byte	0x2c
 733 02df 04       		.byte	0x4
 734 02e0 00       		.byte	0
 735 02e1 0D       		.uleb128 0xd
 736 02e2 04       		.byte	0x4
 737 02e3 3A000000 		.4byte	0x3a
 738 02e7 0F       		.uleb128 0xf
 739 02e8 32040000 		.4byte	.LASF49
 740 02ec 68       		.byte	0x68
 741 02ed 06       		.byte	0x6
 742 02ee B3       		.byte	0xb3
 743 02ef 11040000 		.4byte	0x411
 744 02f3 10       		.uleb128 0x10
 745 02f4 5F7000   		.ascii	"_p\000"
 746 02f7 06       		.byte	0x6
 747 02f8 B4       		.byte	0xb4
 748 02f9 E1020000 		.4byte	0x2e1
 749 02fd 00       		.byte	0
 750 02fe 10       		.uleb128 0x10
 751 02ff 5F7200   		.ascii	"_r\000"
 752 0302 06       		.byte	0x6
 753 0303 B5       		.byte	0xb5
 754 0304 2C000000 		.4byte	0x2c
 755 0308 04       		.byte	0x4
 756 0309 10       		.uleb128 0x10
 757 030a 5F7700   		.ascii	"_w\000"
 758 030d 06       		.byte	0x6
 759 030e B6       		.byte	0xb6
 760 030f 2C000000 		.4byte	0x2c
 761 0313 08       		.byte	0x8
 762 0314 0B       		.uleb128 0xb
 763 0315 13010000 		.4byte	.LASF50
 764 0319 06       		.byte	0x6
 765 031a B7       		.byte	0xb7
 766 031b 41000000 		.4byte	0x41
 767 031f 0C       		.byte	0xc
 768 0320 0B       		.uleb128 0xb
 769 0321 48020000 		.4byte	.LASF51
 770 0325 06       		.byte	0x6
 771 0326 B8       		.byte	0xb8
 772 0327 41000000 		.4byte	0x41
 773 032b 0E       		.byte	0xe
ARM GAS  /tmp/cc7JgLA7.s 			page 18


 774 032c 10       		.uleb128 0x10
 775 032d 5F626600 		.ascii	"_bf\000"
 776 0331 06       		.byte	0x6
 777 0332 B9       		.byte	0xb9
 778 0333 BC020000 		.4byte	0x2bc
 779 0337 10       		.byte	0x10
 780 0338 0B       		.uleb128 0xb
 781 0339 71000000 		.4byte	.LASF52
 782 033d 06       		.byte	0x6
 783 033e BA       		.byte	0xba
 784 033f 2C000000 		.4byte	0x2c
 785 0343 18       		.byte	0x18
 786 0344 0B       		.uleb128 0xb
 787 0345 FA000000 		.4byte	.LASF53
 788 0349 06       		.byte	0x6
 789 034a C1       		.byte	0xc1
 790 034b 10010000 		.4byte	0x110
 791 034f 1C       		.byte	0x1c
 792 0350 0B       		.uleb128 0xb
 793 0351 DD030000 		.4byte	.LASF54
 794 0355 06       		.byte	0x6
 795 0356 C3       		.byte	0xc3
 796 0357 6C050000 		.4byte	0x56c
 797 035b 20       		.byte	0x20
 798 035c 0B       		.uleb128 0xb
 799 035d AD020000 		.4byte	.LASF55
 800 0361 06       		.byte	0x6
 801 0362 C5       		.byte	0xc5
 802 0363 96050000 		.4byte	0x596
 803 0367 24       		.byte	0x24
 804 0368 0B       		.uleb128 0xb
 805 0369 B1040000 		.4byte	.LASF56
 806 036d 06       		.byte	0x6
 807 036e C8       		.byte	0xc8
 808 036f BA050000 		.4byte	0x5ba
 809 0373 28       		.byte	0x28
 810 0374 0B       		.uleb128 0xb
 811 0375 0E060000 		.4byte	.LASF57
 812 0379 06       		.byte	0x6
 813 037a C9       		.byte	0xc9
 814 037b D4050000 		.4byte	0x5d4
 815 037f 2C       		.byte	0x2c
 816 0380 10       		.uleb128 0x10
 817 0381 5F756200 		.ascii	"_ub\000"
 818 0385 06       		.byte	0x6
 819 0386 CC       		.byte	0xcc
 820 0387 BC020000 		.4byte	0x2bc
 821 038b 30       		.byte	0x30
 822 038c 10       		.uleb128 0x10
 823 038d 5F757000 		.ascii	"_up\000"
 824 0391 06       		.byte	0x6
 825 0392 CD       		.byte	0xcd
 826 0393 E1020000 		.4byte	0x2e1
 827 0397 38       		.byte	0x38
 828 0398 10       		.uleb128 0x10
 829 0399 5F757200 		.ascii	"_ur\000"
 830 039d 06       		.byte	0x6
ARM GAS  /tmp/cc7JgLA7.s 			page 19


 831 039e CE       		.byte	0xce
 832 039f 2C000000 		.4byte	0x2c
 833 03a3 3C       		.byte	0x3c
 834 03a4 0B       		.uleb128 0xb
 835 03a5 D1000000 		.4byte	.LASF58
 836 03a9 06       		.byte	0x6
 837 03aa D1       		.byte	0xd1
 838 03ab DA050000 		.4byte	0x5da
 839 03af 40       		.byte	0x40
 840 03b0 0B       		.uleb128 0xb
 841 03b1 E6050000 		.4byte	.LASF59
 842 03b5 06       		.byte	0x6
 843 03b6 D2       		.byte	0xd2
 844 03b7 EA050000 		.4byte	0x5ea
 845 03bb 43       		.byte	0x43
 846 03bc 10       		.uleb128 0x10
 847 03bd 5F6C6200 		.ascii	"_lb\000"
 848 03c1 06       		.byte	0x6
 849 03c2 D5       		.byte	0xd5
 850 03c3 BC020000 		.4byte	0x2bc
 851 03c7 44       		.byte	0x44
 852 03c8 0B       		.uleb128 0xb
 853 03c9 29010000 		.4byte	.LASF60
 854 03cd 06       		.byte	0x6
 855 03ce D8       		.byte	0xd8
 856 03cf 2C000000 		.4byte	0x2c
 857 03d3 4C       		.byte	0x4c
 858 03d4 0B       		.uleb128 0xb
 859 03d5 3A010000 		.4byte	.LASF61
 860 03d9 06       		.byte	0x6
 861 03da D9       		.byte	0xd9
 862 03db 81000000 		.4byte	0x81
 863 03df 50       		.byte	0x50
 864 03e0 0B       		.uleb128 0xb
 865 03e1 34000000 		.4byte	.LASF62
 866 03e5 06       		.byte	0x6
 867 03e6 DC       		.byte	0xdc
 868 03e7 2F040000 		.4byte	0x42f
 869 03eb 54       		.byte	0x54
 870 03ec 0B       		.uleb128 0xb
 871 03ed 9F020000 		.4byte	.LASF63
 872 03f1 06       		.byte	0x6
 873 03f2 E0       		.byte	0xe0
 874 03f3 05010000 		.4byte	0x105
 875 03f7 58       		.byte	0x58
 876 03f8 0B       		.uleb128 0xb
 877 03f9 3A040000 		.4byte	.LASF64
 878 03fd 06       		.byte	0x6
 879 03fe E2       		.byte	0xe2
 880 03ff FA000000 		.4byte	0xfa
 881 0403 5C       		.byte	0x5c
 882 0404 0B       		.uleb128 0xb
 883 0405 A5020000 		.4byte	.LASF65
 884 0409 06       		.byte	0x6
 885 040a E3       		.byte	0xe3
 886 040b 2C000000 		.4byte	0x2c
 887 040f 64       		.byte	0x64
ARM GAS  /tmp/cc7JgLA7.s 			page 20


 888 0410 00       		.byte	0
 889 0411 14       		.uleb128 0x14
 890 0412 2C000000 		.4byte	0x2c
 891 0416 2F040000 		.4byte	0x42f
 892 041a 15       		.uleb128 0x15
 893 041b 2F040000 		.4byte	0x42f
 894 041f 15       		.uleb128 0x15
 895 0420 10010000 		.4byte	0x110
 896 0424 15       		.uleb128 0x15
 897 0425 12010000 		.4byte	0x112
 898 0429 15       		.uleb128 0x15
 899 042a 2C000000 		.4byte	0x2c
 900 042e 00       		.byte	0
 901 042f 0D       		.uleb128 0xd
 902 0430 04       		.byte	0x4
 903 0431 3A040000 		.4byte	0x43a
 904 0435 0E       		.uleb128 0xe
 905 0436 2F040000 		.4byte	0x42f
 906 043a 16       		.uleb128 0x16
 907 043b 94040000 		.4byte	.LASF66
 908 043f 2804     		.2byte	0x428
 909 0441 06       		.byte	0x6
 910 0442 3802     		.2byte	0x238
 911 0444 6C050000 		.4byte	0x56c
 912 0448 17       		.uleb128 0x17
 913 0449 D7040000 		.4byte	.LASF67
 914 044d 06       		.byte	0x6
 915 044e 3A02     		.2byte	0x23a
 916 0450 2C000000 		.4byte	0x2c
 917 0454 00       		.byte	0
 918 0455 17       		.uleb128 0x17
 919 0456 22010000 		.4byte	.LASF68
 920 045a 06       		.byte	0x6
 921 045b 3F02     		.2byte	0x23f
 922 045d 41060000 		.4byte	0x641
 923 0461 04       		.byte	0x4
 924 0462 17       		.uleb128 0x17
 925 0463 16020000 		.4byte	.LASF69
 926 0467 06       		.byte	0x6
 927 0468 3F02     		.2byte	0x23f
 928 046a 41060000 		.4byte	0x641
 929 046e 08       		.byte	0x8
 930 046f 17       		.uleb128 0x17
 931 0470 9E010000 		.4byte	.LASF70
 932 0474 06       		.byte	0x6
 933 0475 3F02     		.2byte	0x23f
 934 0477 41060000 		.4byte	0x641
 935 047b 0C       		.byte	0xc
 936 047c 17       		.uleb128 0x17
 937 047d 61040000 		.4byte	.LASF71
 938 0481 06       		.byte	0x6
 939 0482 4102     		.2byte	0x241
 940 0484 2C000000 		.4byte	0x2c
 941 0488 10       		.byte	0x10
 942 0489 17       		.uleb128 0x17
 943 048a 29000000 		.4byte	.LASF72
 944 048e 06       		.byte	0x6
ARM GAS  /tmp/cc7JgLA7.s 			page 21


 945 048f 4202     		.2byte	0x242
 946 0491 23080000 		.4byte	0x823
 947 0495 14       		.byte	0x14
 948 0496 17       		.uleb128 0x17
 949 0497 58050000 		.4byte	.LASF73
 950 049b 06       		.byte	0x6
 951 049c 4402     		.2byte	0x244
 952 049e 2C000000 		.4byte	0x2c
 953 04a2 30       		.byte	0x30
 954 04a3 17       		.uleb128 0x17
 955 04a4 6B040000 		.4byte	.LASF74
 956 04a8 06       		.byte	0x6
 957 04a9 4502     		.2byte	0x245
 958 04ab 90050000 		.4byte	0x590
 959 04af 34       		.byte	0x34
 960 04b0 17       		.uleb128 0x17
 961 04b1 34030000 		.4byte	.LASF75
 962 04b5 06       		.byte	0x6
 963 04b6 4702     		.2byte	0x247
 964 04b8 2C000000 		.4byte	0x2c
 965 04bc 38       		.byte	0x38
 966 04bd 17       		.uleb128 0x17
 967 04be 82040000 		.4byte	.LASF76
 968 04c2 06       		.byte	0x6
 969 04c3 4902     		.2byte	0x249
 970 04c5 3E080000 		.4byte	0x83e
 971 04c9 3C       		.byte	0x3c
 972 04ca 17       		.uleb128 0x17
 973 04cb 8A020000 		.4byte	.LASF77
 974 04cf 06       		.byte	0x6
 975 04d0 4C02     		.2byte	0x24c
 976 04d2 82010000 		.4byte	0x182
 977 04d6 40       		.byte	0x40
 978 04d7 17       		.uleb128 0x17
 979 04d8 E3010000 		.4byte	.LASF78
 980 04dc 06       		.byte	0x6
 981 04dd 4D02     		.2byte	0x24d
 982 04df 2C000000 		.4byte	0x2c
 983 04e3 44       		.byte	0x44
 984 04e4 17       		.uleb128 0x17
 985 04e5 33060000 		.4byte	.LASF79
 986 04e9 06       		.byte	0x6
 987 04ea 4E02     		.2byte	0x24e
 988 04ec 82010000 		.4byte	0x182
 989 04f0 48       		.byte	0x48
 990 04f1 17       		.uleb128 0x17
 991 04f2 A0030000 		.4byte	.LASF80
 992 04f6 06       		.byte	0x6
 993 04f7 4F02     		.2byte	0x24f
 994 04f9 44080000 		.4byte	0x844
 995 04fd 4C       		.byte	0x4c
 996 04fe 17       		.uleb128 0x17
 997 04ff 1E020000 		.4byte	.LASF81
 998 0503 06       		.byte	0x6
 999 0504 5202     		.2byte	0x252
 1000 0506 2C000000 		.4byte	0x2c
 1001 050a 50       		.byte	0x50
ARM GAS  /tmp/cc7JgLA7.s 			page 22


 1002 050b 17       		.uleb128 0x17
 1003 050c 32010000 		.4byte	.LASF82
 1004 0510 06       		.byte	0x6
 1005 0511 5302     		.2byte	0x253
 1006 0513 12010000 		.4byte	0x112
 1007 0517 54       		.byte	0x54
 1008 0518 17       		.uleb128 0x17
 1009 0519 F1030000 		.4byte	.LASF83
 1010 051d 06       		.byte	0x6
 1011 051e 7602     		.2byte	0x276
 1012 0520 01080000 		.4byte	0x801
 1013 0524 58       		.byte	0x58
 1014 0525 18       		.uleb128 0x18
 1015 0526 2C030000 		.4byte	.LASF43
 1016 052a 06       		.byte	0x6
 1017 052b 7A02     		.2byte	0x27a
 1018 052d 9F020000 		.4byte	0x29f
 1019 0531 4801     		.2byte	0x148
 1020 0533 18       		.uleb128 0x18
 1021 0534 68020000 		.4byte	.LASF84
 1022 0538 06       		.byte	0x6
 1023 0539 7B02     		.2byte	0x27b
 1024 053b 61020000 		.4byte	0x261
 1025 053f 4C01     		.2byte	0x14c
 1026 0541 18       		.uleb128 0x18
 1027 0542 C3050000 		.4byte	.LASF85
 1028 0546 06       		.byte	0x6
 1029 0547 7F02     		.2byte	0x27f
 1030 0549 55080000 		.4byte	0x855
 1031 054d DC02     		.2byte	0x2dc
 1032 054f 18       		.uleb128 0x18
 1033 0550 02010000 		.4byte	.LASF86
 1034 0554 06       		.byte	0x6
 1035 0555 8402     		.2byte	0x284
 1036 0557 06060000 		.4byte	0x606
 1037 055b E002     		.2byte	0x2e0
 1038 055d 18       		.uleb128 0x18
 1039 055e E7000000 		.4byte	.LASF87
 1040 0562 06       		.byte	0x6
 1041 0563 8502     		.2byte	0x285
 1042 0565 61080000 		.4byte	0x861
 1043 0569 EC02     		.2byte	0x2ec
 1044 056b 00       		.byte	0
 1045 056c 0D       		.uleb128 0xd
 1046 056d 04       		.byte	0x4
 1047 056e 11040000 		.4byte	0x411
 1048 0572 14       		.uleb128 0x14
 1049 0573 2C000000 		.4byte	0x2c
 1050 0577 90050000 		.4byte	0x590
 1051 057b 15       		.uleb128 0x15
 1052 057c 2F040000 		.4byte	0x42f
 1053 0580 15       		.uleb128 0x15
 1054 0581 10010000 		.4byte	0x110
 1055 0585 15       		.uleb128 0x15
 1056 0586 90050000 		.4byte	0x590
 1057 058a 15       		.uleb128 0x15
 1058 058b 2C000000 		.4byte	0x2c
ARM GAS  /tmp/cc7JgLA7.s 			page 23


 1059 058f 00       		.byte	0
 1060 0590 0D       		.uleb128 0xd
 1061 0591 04       		.byte	0x4
 1062 0592 1F010000 		.4byte	0x11f
 1063 0596 0D       		.uleb128 0xd
 1064 0597 04       		.byte	0x4
 1065 0598 72050000 		.4byte	0x572
 1066 059c 14       		.uleb128 0x14
 1067 059d 8C000000 		.4byte	0x8c
 1068 05a1 BA050000 		.4byte	0x5ba
 1069 05a5 15       		.uleb128 0x15
 1070 05a6 2F040000 		.4byte	0x42f
 1071 05aa 15       		.uleb128 0x15
 1072 05ab 10010000 		.4byte	0x110
 1073 05af 15       		.uleb128 0x15
 1074 05b0 8C000000 		.4byte	0x8c
 1075 05b4 15       		.uleb128 0x15
 1076 05b5 2C000000 		.4byte	0x2c
 1077 05b9 00       		.byte	0
 1078 05ba 0D       		.uleb128 0xd
 1079 05bb 04       		.byte	0x4
 1080 05bc 9C050000 		.4byte	0x59c
 1081 05c0 14       		.uleb128 0x14
 1082 05c1 2C000000 		.4byte	0x2c
 1083 05c5 D4050000 		.4byte	0x5d4
 1084 05c9 15       		.uleb128 0x15
 1085 05ca 2F040000 		.4byte	0x42f
 1086 05ce 15       		.uleb128 0x15
 1087 05cf 10010000 		.4byte	0x110
 1088 05d3 00       		.byte	0
 1089 05d4 0D       		.uleb128 0xd
 1090 05d5 04       		.byte	0x4
 1091 05d6 C0050000 		.4byte	0x5c0
 1092 05da 08       		.uleb128 0x8
 1093 05db 3A000000 		.4byte	0x3a
 1094 05df EA050000 		.4byte	0x5ea
 1095 05e3 09       		.uleb128 0x9
 1096 05e4 D2000000 		.4byte	0xd2
 1097 05e8 02       		.byte	0x2
 1098 05e9 00       		.byte	0
 1099 05ea 08       		.uleb128 0x8
 1100 05eb 3A000000 		.4byte	0x3a
 1101 05ef FA050000 		.4byte	0x5fa
 1102 05f3 09       		.uleb128 0x9
 1103 05f4 D2000000 		.4byte	0xd2
 1104 05f8 00       		.byte	0
 1105 05f9 00       		.byte	0
 1106 05fa 05       		.uleb128 0x5
 1107 05fb 20040000 		.4byte	.LASF88
 1108 05ff 06       		.byte	0x6
 1109 0600 1D01     		.2byte	0x11d
 1110 0602 E7020000 		.4byte	0x2e7
 1111 0606 19       		.uleb128 0x19
 1112 0607 AA050000 		.4byte	.LASF89
 1113 060b 0C       		.byte	0xc
 1114 060c 06       		.byte	0x6
 1115 060d 2101     		.2byte	0x121
ARM GAS  /tmp/cc7JgLA7.s 			page 24


 1116 060f 3B060000 		.4byte	0x63b
 1117 0613 17       		.uleb128 0x17
 1118 0614 04050000 		.4byte	.LASF23
 1119 0618 06       		.byte	0x6
 1120 0619 2301     		.2byte	0x123
 1121 061b 3B060000 		.4byte	0x63b
 1122 061f 00       		.byte	0
 1123 0620 17       		.uleb128 0x17
 1124 0621 4E020000 		.4byte	.LASF90
 1125 0625 06       		.byte	0x6
 1126 0626 2401     		.2byte	0x124
 1127 0628 2C000000 		.4byte	0x2c
 1128 062c 04       		.byte	0x4
 1129 062d 17       		.uleb128 0x17
 1130 062e 1A040000 		.4byte	.LASF91
 1131 0632 06       		.byte	0x6
 1132 0633 2501     		.2byte	0x125
 1133 0635 41060000 		.4byte	0x641
 1134 0639 08       		.byte	0x8
 1135 063a 00       		.byte	0
 1136 063b 0D       		.uleb128 0xd
 1137 063c 04       		.byte	0x4
 1138 063d 06060000 		.4byte	0x606
 1139 0641 0D       		.uleb128 0xd
 1140 0642 04       		.byte	0x4
 1141 0643 FA050000 		.4byte	0x5fa
 1142 0647 19       		.uleb128 0x19
 1143 0648 21000000 		.4byte	.LASF92
 1144 064c 0E       		.byte	0xe
 1145 064d 06       		.byte	0x6
 1146 064e 3D01     		.2byte	0x13d
 1147 0650 7C060000 		.4byte	0x67c
 1148 0654 17       		.uleb128 0x17
 1149 0655 9B040000 		.4byte	.LASF93
 1150 0659 06       		.byte	0x6
 1151 065a 3E01     		.2byte	0x13e
 1152 065c 7C060000 		.4byte	0x67c
 1153 0660 00       		.byte	0
 1154 0661 17       		.uleb128 0x17
 1155 0662 FE040000 		.4byte	.LASF94
 1156 0666 06       		.byte	0x6
 1157 0667 3F01     		.2byte	0x13f
 1158 0669 7C060000 		.4byte	0x67c
 1159 066d 06       		.byte	0x6
 1160 066e 17       		.uleb128 0x17
 1161 066f 20050000 		.4byte	.LASF95
 1162 0673 06       		.byte	0x6
 1163 0674 4001     		.2byte	0x140
 1164 0676 48000000 		.4byte	0x48
 1165 067a 0C       		.byte	0xc
 1166 067b 00       		.byte	0
 1167 067c 08       		.uleb128 0x8
 1168 067d 48000000 		.4byte	0x48
 1169 0681 8C060000 		.4byte	0x68c
 1170 0685 09       		.uleb128 0x9
 1171 0686 D2000000 		.4byte	0xd2
 1172 068a 02       		.byte	0x2
ARM GAS  /tmp/cc7JgLA7.s 			page 25


 1173 068b 00       		.byte	0
 1174 068c 1A       		.uleb128 0x1a
 1175 068d D0       		.byte	0xd0
 1176 068e 06       		.byte	0x6
 1177 068f 5702     		.2byte	0x257
 1178 0691 8D070000 		.4byte	0x78d
 1179 0695 17       		.uleb128 0x17
 1180 0696 7E050000 		.4byte	.LASF96
 1181 069a 06       		.byte	0x6
 1182 069b 5902     		.2byte	0x259
 1183 069d 25000000 		.4byte	0x25
 1184 06a1 00       		.byte	0
 1185 06a2 17       		.uleb128 0x17
 1186 06a3 0A050000 		.4byte	.LASF97
 1187 06a7 06       		.byte	0x6
 1188 06a8 5A02     		.2byte	0x25a
 1189 06aa 12010000 		.4byte	0x112
 1190 06ae 04       		.byte	0x4
 1191 06af 17       		.uleb128 0x17
 1192 06b0 7D020000 		.4byte	.LASF98
 1193 06b4 06       		.byte	0x6
 1194 06b5 5B02     		.2byte	0x25b
 1195 06b7 8D070000 		.4byte	0x78d
 1196 06bb 08       		.byte	0x8
 1197 06bc 17       		.uleb128 0x17
 1198 06bd FF050000 		.4byte	.LASF99
 1199 06c1 06       		.byte	0x6
 1200 06c2 5C02     		.2byte	0x25c
 1201 06c4 98010000 		.4byte	0x198
 1202 06c8 24       		.byte	0x24
 1203 06c9 17       		.uleb128 0x17
 1204 06ca AE010000 		.4byte	.LASF100
 1205 06ce 06       		.byte	0x6
 1206 06cf 5D02     		.2byte	0x25d
 1207 06d1 2C000000 		.4byte	0x2c
 1208 06d5 48       		.byte	0x48
 1209 06d6 17       		.uleb128 0x17
 1210 06d7 43040000 		.4byte	.LASF101
 1211 06db 06       		.byte	0x6
 1212 06dc 5E02     		.2byte	0x25e
 1213 06de 6F000000 		.4byte	0x6f
 1214 06e2 50       		.byte	0x50
 1215 06e3 17       		.uleb128 0x17
 1216 06e4 15060000 		.4byte	.LASF102
 1217 06e8 06       		.byte	0x6
 1218 06e9 5F02     		.2byte	0x25f
 1219 06eb 47060000 		.4byte	0x647
 1220 06ef 58       		.byte	0x58
 1221 06f0 17       		.uleb128 0x17
 1222 06f1 54040000 		.4byte	.LASF103
 1223 06f5 06       		.byte	0x6
 1224 06f6 6002     		.2byte	0x260
 1225 06f8 FA000000 		.4byte	0xfa
 1226 06fc 68       		.byte	0x68
 1227 06fd 17       		.uleb128 0x17
 1228 06fe 25060000 		.4byte	.LASF104
 1229 0702 06       		.byte	0x6
ARM GAS  /tmp/cc7JgLA7.s 			page 26


 1230 0703 6102     		.2byte	0x261
 1231 0705 FA000000 		.4byte	0xfa
 1232 0709 70       		.byte	0x70
 1233 070a 17       		.uleb128 0x17
 1234 070b A0000000 		.4byte	.LASF105
 1235 070f 06       		.byte	0x6
 1236 0710 6202     		.2byte	0x262
 1237 0712 FA000000 		.4byte	0xfa
 1238 0716 78       		.byte	0x78
 1239 0717 17       		.uleb128 0x17
 1240 0718 B9050000 		.4byte	.LASF106
 1241 071c 06       		.byte	0x6
 1242 071d 6302     		.2byte	0x263
 1243 071f 9D070000 		.4byte	0x79d
 1244 0723 80       		.byte	0x80
 1245 0724 17       		.uleb128 0x17
 1246 0725 71020000 		.4byte	.LASF107
 1247 0729 06       		.byte	0x6
 1248 072a 6402     		.2byte	0x264
 1249 072c AD070000 		.4byte	0x7ad
 1250 0730 88       		.byte	0x88
 1251 0731 17       		.uleb128 0x17
 1252 0732 38050000 		.4byte	.LASF108
 1253 0736 06       		.byte	0x6
 1254 0737 6502     		.2byte	0x265
 1255 0739 2C000000 		.4byte	0x2c
 1256 073d A0       		.byte	0xa0
 1257 073e 17       		.uleb128 0x17
 1258 073f 69010000 		.4byte	.LASF109
 1259 0743 06       		.byte	0x6
 1260 0744 6602     		.2byte	0x266
 1261 0746 FA000000 		.4byte	0xfa
 1262 074a A4       		.byte	0xa4
 1263 074b 17       		.uleb128 0x17
 1264 074c 91000000 		.4byte	.LASF110
 1265 0750 06       		.byte	0x6
 1266 0751 6702     		.2byte	0x267
 1267 0753 FA000000 		.4byte	0xfa
 1268 0757 AC       		.byte	0xac
 1269 0758 17       		.uleb128 0x17
 1270 0759 58010000 		.4byte	.LASF111
 1271 075d 06       		.byte	0x6
 1272 075e 6802     		.2byte	0x268
 1273 0760 FA000000 		.4byte	0xfa
 1274 0764 B4       		.byte	0xb4
 1275 0765 17       		.uleb128 0x17
 1276 0766 3A000000 		.4byte	.LASF112
 1277 076a 06       		.byte	0x6
 1278 076b 6902     		.2byte	0x269
 1279 076d FA000000 		.4byte	0xfa
 1280 0771 BC       		.byte	0xbc
 1281 0772 17       		.uleb128 0x17
 1282 0773 49000000 		.4byte	.LASF113
 1283 0777 06       		.byte	0x6
 1284 0778 6A02     		.2byte	0x26a
 1285 077a FA000000 		.4byte	0xfa
 1286 077e C4       		.byte	0xc4
ARM GAS  /tmp/cc7JgLA7.s 			page 27


 1287 077f 17       		.uleb128 0x17
 1288 0780 F6030000 		.4byte	.LASF114
 1289 0784 06       		.byte	0x6
 1290 0785 6B02     		.2byte	0x26b
 1291 0787 2C000000 		.4byte	0x2c
 1292 078b CC       		.byte	0xcc
 1293 078c 00       		.byte	0
 1294 078d 08       		.uleb128 0x8
 1295 078e 18010000 		.4byte	0x118
 1296 0792 9D070000 		.4byte	0x79d
 1297 0796 09       		.uleb128 0x9
 1298 0797 D2000000 		.4byte	0xd2
 1299 079b 19       		.byte	0x19
 1300 079c 00       		.byte	0
 1301 079d 08       		.uleb128 0x8
 1302 079e 18010000 		.4byte	0x118
 1303 07a2 AD070000 		.4byte	0x7ad
 1304 07a6 09       		.uleb128 0x9
 1305 07a7 D2000000 		.4byte	0xd2
 1306 07ab 07       		.byte	0x7
 1307 07ac 00       		.byte	0
 1308 07ad 08       		.uleb128 0x8
 1309 07ae 18010000 		.4byte	0x118
 1310 07b2 BD070000 		.4byte	0x7bd
 1311 07b6 09       		.uleb128 0x9
 1312 07b7 D2000000 		.4byte	0xd2
 1313 07bb 17       		.byte	0x17
 1314 07bc 00       		.byte	0
 1315 07bd 1A       		.uleb128 0x1a
 1316 07be F0       		.byte	0xf0
 1317 07bf 06       		.byte	0x6
 1318 07c0 7002     		.2byte	0x270
 1319 07c2 E1070000 		.4byte	0x7e1
 1320 07c6 17       		.uleb128 0x17
 1321 07c7 1C030000 		.4byte	.LASF115
 1322 07cb 06       		.byte	0x6
 1323 07cc 7302     		.2byte	0x273
 1324 07ce E1070000 		.4byte	0x7e1
 1325 07d2 00       		.byte	0
 1326 07d3 17       		.uleb128 0x17
 1327 07d4 B0050000 		.4byte	.LASF116
 1328 07d8 06       		.byte	0x6
 1329 07d9 7402     		.2byte	0x274
 1330 07db F1070000 		.4byte	0x7f1
 1331 07df 78       		.byte	0x78
 1332 07e0 00       		.byte	0
 1333 07e1 08       		.uleb128 0x8
 1334 07e2 E1020000 		.4byte	0x2e1
 1335 07e6 F1070000 		.4byte	0x7f1
 1336 07ea 09       		.uleb128 0x9
 1337 07eb D2000000 		.4byte	0xd2
 1338 07ef 1D       		.byte	0x1d
 1339 07f0 00       		.byte	0
 1340 07f1 08       		.uleb128 0x8
 1341 07f2 25000000 		.4byte	0x25
 1342 07f6 01080000 		.4byte	0x801
 1343 07fa 09       		.uleb128 0x9
ARM GAS  /tmp/cc7JgLA7.s 			page 28


 1344 07fb D2000000 		.4byte	0xd2
 1345 07ff 1D       		.byte	0x1d
 1346 0800 00       		.byte	0
 1347 0801 1B       		.uleb128 0x1b
 1348 0802 F0       		.byte	0xf0
 1349 0803 06       		.byte	0x6
 1350 0804 5502     		.2byte	0x255
 1351 0806 23080000 		.4byte	0x823
 1352 080a 1C       		.uleb128 0x1c
 1353 080b 94040000 		.4byte	.LASF66
 1354 080f 06       		.byte	0x6
 1355 0810 6C02     		.2byte	0x26c
 1356 0812 8C060000 		.4byte	0x68c
 1357 0816 1C       		.uleb128 0x1c
 1358 0817 EC050000 		.4byte	.LASF117
 1359 081b 06       		.byte	0x6
 1360 081c 7502     		.2byte	0x275
 1361 081e BD070000 		.4byte	0x7bd
 1362 0822 00       		.byte	0
 1363 0823 08       		.uleb128 0x8
 1364 0824 18010000 		.4byte	0x118
 1365 0828 33080000 		.4byte	0x833
 1366 082c 09       		.uleb128 0x9
 1367 082d D2000000 		.4byte	0xd2
 1368 0831 18       		.byte	0x18
 1369 0832 00       		.byte	0
 1370 0833 1D       		.uleb128 0x1d
 1371 0834 3E080000 		.4byte	0x83e
 1372 0838 15       		.uleb128 0x15
 1373 0839 2F040000 		.4byte	0x42f
 1374 083d 00       		.byte	0
 1375 083e 0D       		.uleb128 0xd
 1376 083f 04       		.byte	0x4
 1377 0840 33080000 		.4byte	0x833
 1378 0844 0D       		.uleb128 0xd
 1379 0845 04       		.byte	0x4
 1380 0846 82010000 		.4byte	0x182
 1381 084a 1D       		.uleb128 0x1d
 1382 084b 55080000 		.4byte	0x855
 1383 084f 15       		.uleb128 0x15
 1384 0850 2C000000 		.4byte	0x2c
 1385 0854 00       		.byte	0
 1386 0855 0D       		.uleb128 0xd
 1387 0856 04       		.byte	0x4
 1388 0857 5B080000 		.4byte	0x85b
 1389 085b 0D       		.uleb128 0xd
 1390 085c 04       		.byte	0x4
 1391 085d 4A080000 		.4byte	0x84a
 1392 0861 08       		.uleb128 0x8
 1393 0862 FA050000 		.4byte	0x5fa
 1394 0866 71080000 		.4byte	0x871
 1395 086a 09       		.uleb128 0x9
 1396 086b D2000000 		.4byte	0xd2
 1397 086f 02       		.byte	0x2
 1398 0870 00       		.byte	0
 1399 0871 1E       		.uleb128 0x1e
 1400 0872 B7040000 		.4byte	.LASF118
ARM GAS  /tmp/cc7JgLA7.s 			page 29


 1401 0876 06       		.byte	0x6
 1402 0877 FD02     		.2byte	0x2fd
 1403 0879 2F040000 		.4byte	0x42f
 1404 087d 1E       		.uleb128 0x1e
 1405 087e 45050000 		.4byte	.LASF119
 1406 0882 06       		.byte	0x6
 1407 0883 FE02     		.2byte	0x2fe
 1408 0885 35040000 		.4byte	0x435
 1409 0889 04       		.uleb128 0x4
 1410 088a 6A050000 		.4byte	.LASF120
 1411 088e 07       		.byte	0x7
 1412 088f 30       		.byte	0x30
 1413 0890 56000000 		.4byte	0x56
 1414 0894 1F       		.uleb128 0x1f
 1415 0895 06020000 		.4byte	.LASF121
 1416 0899 08       		.byte	0x8
 1417 089a 2B       		.byte	0x2b
 1418 089b 89080000 		.4byte	0x889
 1419 089f 04       		.uleb128 0x4
 1420 08a0 38060000 		.4byte	.LASF122
 1421 08a4 09       		.byte	0x9
 1422 08a5 39       		.byte	0x39
 1423 08a6 61000000 		.4byte	0x61
 1424 08aa 20       		.uleb128 0x20
 1425 08ab 9F080000 		.4byte	0x89f
 1426 08af 04       		.uleb128 0x4
 1427 08b0 11030000 		.4byte	.LASF123
 1428 08b4 09       		.byte	0x9
 1429 08b5 3F       		.byte	0x3f
 1430 08b6 89080000 		.4byte	0x889
 1431 08ba 0E       		.uleb128 0xe
 1432 08bb AF080000 		.4byte	0x8af
 1433 08bf 0F       		.uleb128 0xf
 1434 08c0 1A060000 		.4byte	.LASF124
 1435 08c4 14       		.byte	0x14
 1436 08c5 0A       		.byte	0xa
 1437 08c6 8C       		.byte	0x8c
 1438 08c7 08090000 		.4byte	0x908
 1439 08cb 0B       		.uleb128 0xb
 1440 08cc 73050000 		.4byte	.LASF125
 1441 08d0 0A       		.byte	0xa
 1442 08d1 8F       		.byte	0x8f
 1443 08d2 AF080000 		.4byte	0x8af
 1444 08d6 00       		.byte	0
 1445 08d7 0B       		.uleb128 0xb
 1446 08d8 DF050000 		.4byte	.LASF126
 1447 08dc 0A       		.byte	0xa
 1448 08dd 90       		.byte	0x90
 1449 08de 08090000 		.4byte	0x908
 1450 08e2 04       		.byte	0x4
 1451 08e3 0B       		.uleb128 0xb
 1452 08e4 8D030000 		.4byte	.LASF127
 1453 08e8 0A       		.byte	0xa
 1454 08e9 91       		.byte	0x91
 1455 08ea 08090000 		.4byte	0x908
 1456 08ee 08       		.byte	0x8
 1457 08ef 0B       		.uleb128 0xb
ARM GAS  /tmp/cc7JgLA7.s 			page 30


 1458 08f0 98030000 		.4byte	.LASF128
 1459 08f4 0A       		.byte	0xa
 1460 08f5 92       		.byte	0x92
 1461 08f6 10010000 		.4byte	0x110
 1462 08fa 0C       		.byte	0xc
 1463 08fb 0B       		.uleb128 0xb
 1464 08fc BF030000 		.4byte	.LASF129
 1465 0900 0A       		.byte	0xa
 1466 0901 93       		.byte	0x93
 1467 0902 3F090000 		.4byte	0x93f
 1468 0906 10       		.byte	0x10
 1469 0907 00       		.byte	0
 1470 0908 0D       		.uleb128 0xd
 1471 0909 04       		.byte	0x4
 1472 090a BF080000 		.4byte	0x8bf
 1473 090e 0F       		.uleb128 0xf
 1474 090f 4E040000 		.4byte	.LASF130
 1475 0913 14       		.byte	0x14
 1476 0914 0A       		.byte	0xa
 1477 0915 A4       		.byte	0xa4
 1478 0916 3F090000 		.4byte	0x93f
 1479 091a 0B       		.uleb128 0xb
 1480 091b 26020000 		.4byte	.LASF131
 1481 091f 0A       		.byte	0xa
 1482 0920 A7       		.byte	0xa7
 1483 0921 AA080000 		.4byte	0x8aa
 1484 0925 00       		.byte	0
 1485 0926 0B       		.uleb128 0xb
 1486 0927 B7030000 		.4byte	.LASF132
 1487 092b 0A       		.byte	0xa
 1488 092c A8       		.byte	0xa8
 1489 092d 8C090000 		.4byte	0x98c
 1490 0931 04       		.byte	0x4
 1491 0932 0B       		.uleb128 0xb
 1492 0933 7A000000 		.4byte	.LASF133
 1493 0937 0A       		.byte	0xa
 1494 0938 A9       		.byte	0xa9
 1495 0939 81090000 		.4byte	0x981
 1496 093d 08       		.byte	0x8
 1497 093e 00       		.byte	0
 1498 093f 0D       		.uleb128 0xd
 1499 0940 04       		.byte	0x4
 1500 0941 0E090000 		.4byte	0x90e
 1501 0945 04       		.uleb128 0x4
 1502 0946 F3040000 		.4byte	.LASF134
 1503 094a 0A       		.byte	0xa
 1504 094b 96       		.byte	0x96
 1505 094c BF080000 		.4byte	0x8bf
 1506 0950 0F       		.uleb128 0xf
 1507 0951 D5020000 		.4byte	.LASF135
 1508 0955 0C       		.byte	0xc
 1509 0956 0A       		.byte	0xa
 1510 0957 98       		.byte	0x98
 1511 0958 81090000 		.4byte	0x981
 1512 095c 0B       		.uleb128 0xb
 1513 095d 73050000 		.4byte	.LASF125
 1514 0961 0A       		.byte	0xa
ARM GAS  /tmp/cc7JgLA7.s 			page 31


 1515 0962 9B       		.byte	0x9b
 1516 0963 AF080000 		.4byte	0x8af
 1517 0967 00       		.byte	0
 1518 0968 0B       		.uleb128 0xb
 1519 0969 DF050000 		.4byte	.LASF126
 1520 096d 0A       		.byte	0xa
 1521 096e 9C       		.byte	0x9c
 1522 096f 08090000 		.4byte	0x908
 1523 0973 04       		.byte	0x4
 1524 0974 0B       		.uleb128 0xb
 1525 0975 8D030000 		.4byte	.LASF127
 1526 0979 0A       		.byte	0xa
 1527 097a 9D       		.byte	0x9d
 1528 097b 08090000 		.4byte	0x908
 1529 097f 08       		.byte	0x8
 1530 0980 00       		.byte	0
 1531 0981 04       		.uleb128 0x4
 1532 0982 12000000 		.4byte	.LASF136
 1533 0986 0A       		.byte	0xa
 1534 0987 9F       		.byte	0x9f
 1535 0988 50090000 		.4byte	0x950
 1536 098c 0D       		.uleb128 0xd
 1537 098d 04       		.byte	0x4
 1538 098e 45090000 		.4byte	0x945
 1539 0992 0E       		.uleb128 0xe
 1540 0993 8C090000 		.4byte	0x98c
 1541 0997 04       		.uleb128 0x4
 1542 0998 7B040000 		.4byte	.LASF137
 1543 099c 0A       		.byte	0xa
 1544 099d AB       		.byte	0xab
 1545 099e 0E090000 		.4byte	0x90e
 1546 09a2 21       		.uleb128 0x21
 1547 09a3 AA030000 		.4byte	.LASF150
 1548 09a7 01       		.byte	0x1
 1549 09a8 AA       		.byte	0xaa
 1550 09a9 9F080000 		.4byte	0x89f
 1551 09ad 0C010000 		.4byte	.LFB9
 1552 09b1 52000000 		.4byte	.LFE9-.LFB9
 1553 09b5 01       		.uleb128 0x1
 1554 09b6 9C       		.byte	0x9c
 1555 09b7 D8090000 		.4byte	0x9d8
 1556 09bb 22       		.uleb128 0x22
 1557 09bc 02030000 		.4byte	.LASF138
 1558 09c0 01       		.byte	0x1
 1559 09c1 AA       		.byte	0xaa
 1560 09c2 92090000 		.4byte	0x992
 1561 09c6 02       		.uleb128 0x2
 1562 09c7 91       		.byte	0x91
 1563 09c8 6C       		.sleb128 -20
 1564 09c9 23       		.uleb128 0x23
 1565 09ca E3040000 		.4byte	.LASF139
 1566 09ce 01       		.byte	0x1
 1567 09cf AE       		.byte	0xae
 1568 09d0 DE090000 		.4byte	0x9de
 1569 09d4 02       		.uleb128 0x2
 1570 09d5 91       		.byte	0x91
 1571 09d6 74       		.sleb128 -12
ARM GAS  /tmp/cc7JgLA7.s 			page 32


 1572 09d7 00       		.byte	0
 1573 09d8 0D       		.uleb128 0xd
 1574 09d9 04       		.byte	0x4
 1575 09da 97090000 		.4byte	0x997
 1576 09de 0E       		.uleb128 0xe
 1577 09df D8090000 		.4byte	0x9d8
 1578 09e3 24       		.uleb128 0x24
 1579 09e4 C3040000 		.4byte	.LASF143
 1580 09e8 01       		.byte	0x1
 1581 09e9 67       		.byte	0x67
 1582 09ea 9C000000 		.4byte	.LFB8
 1583 09ee 70000000 		.4byte	.LFE8-.LFB8
 1584 09f2 01       		.uleb128 0x1
 1585 09f3 9C       		.byte	0x9c
 1586 09f4 310A0000 		.4byte	0xa31
 1587 09f8 22       		.uleb128 0x22
 1588 09f9 E3040000 		.4byte	.LASF139
 1589 09fd 01       		.byte	0x1
 1590 09fe 67       		.byte	0x67
 1591 09ff DE090000 		.4byte	0x9de
 1592 0a03 02       		.uleb128 0x2
 1593 0a04 91       		.byte	0x91
 1594 0a05 6C       		.sleb128 -20
 1595 0a06 22       		.uleb128 0x22
 1596 0a07 83000000 		.4byte	.LASF140
 1597 0a0b 01       		.byte	0x1
 1598 0a0c 67       		.byte	0x67
 1599 0a0d 92090000 		.4byte	0x992
 1600 0a11 02       		.uleb128 0x2
 1601 0a12 91       		.byte	0x91
 1602 0a13 68       		.sleb128 -24
 1603 0a14 23       		.uleb128 0x23
 1604 0a15 25050000 		.4byte	.LASF141
 1605 0a19 01       		.byte	0x1
 1606 0a1a 69       		.byte	0x69
 1607 0a1b 8C090000 		.4byte	0x98c
 1608 0a1f 02       		.uleb128 0x2
 1609 0a20 91       		.byte	0x91
 1610 0a21 74       		.sleb128 -12
 1611 0a22 23       		.uleb128 0x23
 1612 0a23 CD050000 		.4byte	.LASF142
 1613 0a27 01       		.byte	0x1
 1614 0a28 6A       		.byte	0x6a
 1615 0a29 BA080000 		.4byte	0x8ba
 1616 0a2d 02       		.uleb128 0x2
 1617 0a2e 91       		.byte	0x91
 1618 0a2f 70       		.sleb128 -16
 1619 0a30 00       		.byte	0
 1620 0a31 24       		.uleb128 0x24
 1621 0a32 49010000 		.4byte	.LASF144
 1622 0a36 01       		.byte	0x1
 1623 0a37 4A       		.byte	0x4a
 1624 0a38 56000000 		.4byte	.LFB7
 1625 0a3c 46000000 		.4byte	.LFE7-.LFB7
 1626 0a40 01       		.uleb128 0x1
 1627 0a41 9C       		.byte	0x9c
 1628 0a42 710A0000 		.4byte	0xa71
ARM GAS  /tmp/cc7JgLA7.s 			page 33


 1629 0a46 22       		.uleb128 0x22
 1630 0a47 E3040000 		.4byte	.LASF139
 1631 0a4b 01       		.byte	0x1
 1632 0a4c 4A       		.byte	0x4a
 1633 0a4d DE090000 		.4byte	0x9de
 1634 0a51 02       		.uleb128 0x2
 1635 0a52 91       		.byte	0x91
 1636 0a53 6C       		.sleb128 -20
 1637 0a54 22       		.uleb128 0x22
 1638 0a55 83000000 		.4byte	.LASF140
 1639 0a59 01       		.byte	0x1
 1640 0a5a 4A       		.byte	0x4a
 1641 0a5b 92090000 		.4byte	0x992
 1642 0a5f 02       		.uleb128 0x2
 1643 0a60 91       		.byte	0x91
 1644 0a61 68       		.sleb128 -24
 1645 0a62 23       		.uleb128 0x23
 1646 0a63 B7030000 		.4byte	.LASF132
 1647 0a67 01       		.byte	0x1
 1648 0a68 4C       		.byte	0x4c
 1649 0a69 92090000 		.4byte	0x992
 1650 0a6d 02       		.uleb128 0x2
 1651 0a6e 91       		.byte	0x91
 1652 0a6f 74       		.sleb128 -12
 1653 0a70 00       		.byte	0
 1654 0a71 24       		.uleb128 0x24
 1655 0a72 E5020000 		.4byte	.LASF145
 1656 0a76 01       		.byte	0x1
 1657 0a77 3E       		.byte	0x3e
 1658 0a78 3E000000 		.4byte	.LFB6
 1659 0a7c 18000000 		.4byte	.LFE6-.LFB6
 1660 0a80 01       		.uleb128 0x1
 1661 0a81 9C       		.byte	0x9c
 1662 0a82 950A0000 		.4byte	0xa95
 1663 0a86 22       		.uleb128 0x22
 1664 0a87 42010000 		.4byte	.LASF146
 1665 0a8b 01       		.byte	0x1
 1666 0a8c 3E       		.byte	0x3e
 1667 0a8d 92090000 		.4byte	0x992
 1668 0a91 02       		.uleb128 0x2
 1669 0a92 91       		.byte	0x91
 1670 0a93 74       		.sleb128 -12
 1671 0a94 00       		.byte	0
 1672 0a95 25       		.uleb128 0x25
 1673 0a96 8B050000 		.4byte	.LASF151
 1674 0a9a 01       		.byte	0x1
 1675 0a9b 25       		.byte	0x25
 1676 0a9c 00000000 		.4byte	.LFB5
 1677 0aa0 3E000000 		.4byte	.LFE5-.LFB5
 1678 0aa4 01       		.uleb128 0x1
 1679 0aa5 9C       		.byte	0x9c
 1680 0aa6 22       		.uleb128 0x22
 1681 0aa7 E3040000 		.4byte	.LASF139
 1682 0aab 01       		.byte	0x1
 1683 0aac 25       		.byte	0x25
 1684 0aad DE090000 		.4byte	0x9de
 1685 0ab1 02       		.uleb128 0x2
ARM GAS  /tmp/cc7JgLA7.s 			page 34


 1686 0ab2 91       		.byte	0x91
 1687 0ab3 74       		.sleb128 -12
 1688 0ab4 00       		.byte	0
 1689 0ab5 00       		.byte	0
 1690              		.section	.debug_abbrev,"",%progbits
 1691              	.Ldebug_abbrev0:
 1692 0000 01       		.uleb128 0x1
 1693 0001 11       		.uleb128 0x11
 1694 0002 01       		.byte	0x1
 1695 0003 25       		.uleb128 0x25
 1696 0004 0E       		.uleb128 0xe
 1697 0005 13       		.uleb128 0x13
 1698 0006 0B       		.uleb128 0xb
 1699 0007 03       		.uleb128 0x3
 1700 0008 0E       		.uleb128 0xe
 1701 0009 1B       		.uleb128 0x1b
 1702 000a 0E       		.uleb128 0xe
 1703 000b 11       		.uleb128 0x11
 1704 000c 01       		.uleb128 0x1
 1705 000d 12       		.uleb128 0x12
 1706 000e 06       		.uleb128 0x6
 1707 000f 10       		.uleb128 0x10
 1708 0010 17       		.uleb128 0x17
 1709 0011 00       		.byte	0
 1710 0012 00       		.byte	0
 1711 0013 02       		.uleb128 0x2
 1712 0014 24       		.uleb128 0x24
 1713 0015 00       		.byte	0
 1714 0016 0B       		.uleb128 0xb
 1715 0017 0B       		.uleb128 0xb
 1716 0018 3E       		.uleb128 0x3e
 1717 0019 0B       		.uleb128 0xb
 1718 001a 03       		.uleb128 0x3
 1719 001b 0E       		.uleb128 0xe
 1720 001c 00       		.byte	0
 1721 001d 00       		.byte	0
 1722 001e 03       		.uleb128 0x3
 1723 001f 24       		.uleb128 0x24
 1724 0020 00       		.byte	0
 1725 0021 0B       		.uleb128 0xb
 1726 0022 0B       		.uleb128 0xb
 1727 0023 3E       		.uleb128 0x3e
 1728 0024 0B       		.uleb128 0xb
 1729 0025 03       		.uleb128 0x3
 1730 0026 08       		.uleb128 0x8
 1731 0027 00       		.byte	0
 1732 0028 00       		.byte	0
 1733 0029 04       		.uleb128 0x4
 1734 002a 16       		.uleb128 0x16
 1735 002b 00       		.byte	0
 1736 002c 03       		.uleb128 0x3
 1737 002d 0E       		.uleb128 0xe
 1738 002e 3A       		.uleb128 0x3a
 1739 002f 0B       		.uleb128 0xb
 1740 0030 3B       		.uleb128 0x3b
 1741 0031 0B       		.uleb128 0xb
 1742 0032 49       		.uleb128 0x49
ARM GAS  /tmp/cc7JgLA7.s 			page 35


 1743 0033 13       		.uleb128 0x13
 1744 0034 00       		.byte	0
 1745 0035 00       		.byte	0
 1746 0036 05       		.uleb128 0x5
 1747 0037 16       		.uleb128 0x16
 1748 0038 00       		.byte	0
 1749 0039 03       		.uleb128 0x3
 1750 003a 0E       		.uleb128 0xe
 1751 003b 3A       		.uleb128 0x3a
 1752 003c 0B       		.uleb128 0xb
 1753 003d 3B       		.uleb128 0x3b
 1754 003e 05       		.uleb128 0x5
 1755 003f 49       		.uleb128 0x49
 1756 0040 13       		.uleb128 0x13
 1757 0041 00       		.byte	0
 1758 0042 00       		.byte	0
 1759 0043 06       		.uleb128 0x6
 1760 0044 17       		.uleb128 0x17
 1761 0045 01       		.byte	0x1
 1762 0046 0B       		.uleb128 0xb
 1763 0047 0B       		.uleb128 0xb
 1764 0048 3A       		.uleb128 0x3a
 1765 0049 0B       		.uleb128 0xb
 1766 004a 3B       		.uleb128 0x3b
 1767 004b 0B       		.uleb128 0xb
 1768 004c 01       		.uleb128 0x1
 1769 004d 13       		.uleb128 0x13
 1770 004e 00       		.byte	0
 1771 004f 00       		.byte	0
 1772 0050 07       		.uleb128 0x7
 1773 0051 0D       		.uleb128 0xd
 1774 0052 00       		.byte	0
 1775 0053 03       		.uleb128 0x3
 1776 0054 0E       		.uleb128 0xe
 1777 0055 3A       		.uleb128 0x3a
 1778 0056 0B       		.uleb128 0xb
 1779 0057 3B       		.uleb128 0x3b
 1780 0058 0B       		.uleb128 0xb
 1781 0059 49       		.uleb128 0x49
 1782 005a 13       		.uleb128 0x13
 1783 005b 00       		.byte	0
 1784 005c 00       		.byte	0
 1785 005d 08       		.uleb128 0x8
 1786 005e 01       		.uleb128 0x1
 1787 005f 01       		.byte	0x1
 1788 0060 49       		.uleb128 0x49
 1789 0061 13       		.uleb128 0x13
 1790 0062 01       		.uleb128 0x1
 1791 0063 13       		.uleb128 0x13
 1792 0064 00       		.byte	0
 1793 0065 00       		.byte	0
 1794 0066 09       		.uleb128 0x9
 1795 0067 21       		.uleb128 0x21
 1796 0068 00       		.byte	0
 1797 0069 49       		.uleb128 0x49
 1798 006a 13       		.uleb128 0x13
 1799 006b 2F       		.uleb128 0x2f
ARM GAS  /tmp/cc7JgLA7.s 			page 36


 1800 006c 0B       		.uleb128 0xb
 1801 006d 00       		.byte	0
 1802 006e 00       		.byte	0
 1803 006f 0A       		.uleb128 0xa
 1804 0070 13       		.uleb128 0x13
 1805 0071 01       		.byte	0x1
 1806 0072 0B       		.uleb128 0xb
 1807 0073 0B       		.uleb128 0xb
 1808 0074 3A       		.uleb128 0x3a
 1809 0075 0B       		.uleb128 0xb
 1810 0076 3B       		.uleb128 0x3b
 1811 0077 0B       		.uleb128 0xb
 1812 0078 01       		.uleb128 0x1
 1813 0079 13       		.uleb128 0x13
 1814 007a 00       		.byte	0
 1815 007b 00       		.byte	0
 1816 007c 0B       		.uleb128 0xb
 1817 007d 0D       		.uleb128 0xd
 1818 007e 00       		.byte	0
 1819 007f 03       		.uleb128 0x3
 1820 0080 0E       		.uleb128 0xe
 1821 0081 3A       		.uleb128 0x3a
 1822 0082 0B       		.uleb128 0xb
 1823 0083 3B       		.uleb128 0x3b
 1824 0084 0B       		.uleb128 0xb
 1825 0085 49       		.uleb128 0x49
 1826 0086 13       		.uleb128 0x13
 1827 0087 38       		.uleb128 0x38
 1828 0088 0B       		.uleb128 0xb
 1829 0089 00       		.byte	0
 1830 008a 00       		.byte	0
 1831 008b 0C       		.uleb128 0xc
 1832 008c 0F       		.uleb128 0xf
 1833 008d 00       		.byte	0
 1834 008e 0B       		.uleb128 0xb
 1835 008f 0B       		.uleb128 0xb
 1836 0090 00       		.byte	0
 1837 0091 00       		.byte	0
 1838 0092 0D       		.uleb128 0xd
 1839 0093 0F       		.uleb128 0xf
 1840 0094 00       		.byte	0
 1841 0095 0B       		.uleb128 0xb
 1842 0096 0B       		.uleb128 0xb
 1843 0097 49       		.uleb128 0x49
 1844 0098 13       		.uleb128 0x13
 1845 0099 00       		.byte	0
 1846 009a 00       		.byte	0
 1847 009b 0E       		.uleb128 0xe
 1848 009c 26       		.uleb128 0x26
 1849 009d 00       		.byte	0
 1850 009e 49       		.uleb128 0x49
 1851 009f 13       		.uleb128 0x13
 1852 00a0 00       		.byte	0
 1853 00a1 00       		.byte	0
 1854 00a2 0F       		.uleb128 0xf
 1855 00a3 13       		.uleb128 0x13
 1856 00a4 01       		.byte	0x1
ARM GAS  /tmp/cc7JgLA7.s 			page 37


 1857 00a5 03       		.uleb128 0x3
 1858 00a6 0E       		.uleb128 0xe
 1859 00a7 0B       		.uleb128 0xb
 1860 00a8 0B       		.uleb128 0xb
 1861 00a9 3A       		.uleb128 0x3a
 1862 00aa 0B       		.uleb128 0xb
 1863 00ab 3B       		.uleb128 0x3b
 1864 00ac 0B       		.uleb128 0xb
 1865 00ad 01       		.uleb128 0x1
 1866 00ae 13       		.uleb128 0x13
 1867 00af 00       		.byte	0
 1868 00b0 00       		.byte	0
 1869 00b1 10       		.uleb128 0x10
 1870 00b2 0D       		.uleb128 0xd
 1871 00b3 00       		.byte	0
 1872 00b4 03       		.uleb128 0x3
 1873 00b5 08       		.uleb128 0x8
 1874 00b6 3A       		.uleb128 0x3a
 1875 00b7 0B       		.uleb128 0xb
 1876 00b8 3B       		.uleb128 0x3b
 1877 00b9 0B       		.uleb128 0xb
 1878 00ba 49       		.uleb128 0x49
 1879 00bb 13       		.uleb128 0x13
 1880 00bc 38       		.uleb128 0x38
 1881 00bd 0B       		.uleb128 0xb
 1882 00be 00       		.byte	0
 1883 00bf 00       		.byte	0
 1884 00c0 11       		.uleb128 0x11
 1885 00c1 13       		.uleb128 0x13
 1886 00c2 01       		.byte	0x1
 1887 00c3 03       		.uleb128 0x3
 1888 00c4 0E       		.uleb128 0xe
 1889 00c5 0B       		.uleb128 0xb
 1890 00c6 05       		.uleb128 0x5
 1891 00c7 3A       		.uleb128 0x3a
 1892 00c8 0B       		.uleb128 0xb
 1893 00c9 3B       		.uleb128 0x3b
 1894 00ca 0B       		.uleb128 0xb
 1895 00cb 01       		.uleb128 0x1
 1896 00cc 13       		.uleb128 0x13
 1897 00cd 00       		.byte	0
 1898 00ce 00       		.byte	0
 1899 00cf 12       		.uleb128 0x12
 1900 00d0 0D       		.uleb128 0xd
 1901 00d1 00       		.byte	0
 1902 00d2 03       		.uleb128 0x3
 1903 00d3 0E       		.uleb128 0xe
 1904 00d4 3A       		.uleb128 0x3a
 1905 00d5 0B       		.uleb128 0xb
 1906 00d6 3B       		.uleb128 0x3b
 1907 00d7 0B       		.uleb128 0xb
 1908 00d8 49       		.uleb128 0x49
 1909 00d9 13       		.uleb128 0x13
 1910 00da 38       		.uleb128 0x38
 1911 00db 05       		.uleb128 0x5
 1912 00dc 00       		.byte	0
 1913 00dd 00       		.byte	0
ARM GAS  /tmp/cc7JgLA7.s 			page 38


 1914 00de 13       		.uleb128 0x13
 1915 00df 15       		.uleb128 0x15
 1916 00e0 00       		.byte	0
 1917 00e1 27       		.uleb128 0x27
 1918 00e2 19       		.uleb128 0x19
 1919 00e3 00       		.byte	0
 1920 00e4 00       		.byte	0
 1921 00e5 14       		.uleb128 0x14
 1922 00e6 15       		.uleb128 0x15
 1923 00e7 01       		.byte	0x1
 1924 00e8 27       		.uleb128 0x27
 1925 00e9 19       		.uleb128 0x19
 1926 00ea 49       		.uleb128 0x49
 1927 00eb 13       		.uleb128 0x13
 1928 00ec 01       		.uleb128 0x1
 1929 00ed 13       		.uleb128 0x13
 1930 00ee 00       		.byte	0
 1931 00ef 00       		.byte	0
 1932 00f0 15       		.uleb128 0x15
 1933 00f1 05       		.uleb128 0x5
 1934 00f2 00       		.byte	0
 1935 00f3 49       		.uleb128 0x49
 1936 00f4 13       		.uleb128 0x13
 1937 00f5 00       		.byte	0
 1938 00f6 00       		.byte	0
 1939 00f7 16       		.uleb128 0x16
 1940 00f8 13       		.uleb128 0x13
 1941 00f9 01       		.byte	0x1
 1942 00fa 03       		.uleb128 0x3
 1943 00fb 0E       		.uleb128 0xe
 1944 00fc 0B       		.uleb128 0xb
 1945 00fd 05       		.uleb128 0x5
 1946 00fe 3A       		.uleb128 0x3a
 1947 00ff 0B       		.uleb128 0xb
 1948 0100 3B       		.uleb128 0x3b
 1949 0101 05       		.uleb128 0x5
 1950 0102 01       		.uleb128 0x1
 1951 0103 13       		.uleb128 0x13
 1952 0104 00       		.byte	0
 1953 0105 00       		.byte	0
 1954 0106 17       		.uleb128 0x17
 1955 0107 0D       		.uleb128 0xd
 1956 0108 00       		.byte	0
 1957 0109 03       		.uleb128 0x3
 1958 010a 0E       		.uleb128 0xe
 1959 010b 3A       		.uleb128 0x3a
 1960 010c 0B       		.uleb128 0xb
 1961 010d 3B       		.uleb128 0x3b
 1962 010e 05       		.uleb128 0x5
 1963 010f 49       		.uleb128 0x49
 1964 0110 13       		.uleb128 0x13
 1965 0111 38       		.uleb128 0x38
 1966 0112 0B       		.uleb128 0xb
 1967 0113 00       		.byte	0
 1968 0114 00       		.byte	0
 1969 0115 18       		.uleb128 0x18
 1970 0116 0D       		.uleb128 0xd
ARM GAS  /tmp/cc7JgLA7.s 			page 39


 1971 0117 00       		.byte	0
 1972 0118 03       		.uleb128 0x3
 1973 0119 0E       		.uleb128 0xe
 1974 011a 3A       		.uleb128 0x3a
 1975 011b 0B       		.uleb128 0xb
 1976 011c 3B       		.uleb128 0x3b
 1977 011d 05       		.uleb128 0x5
 1978 011e 49       		.uleb128 0x49
 1979 011f 13       		.uleb128 0x13
 1980 0120 38       		.uleb128 0x38
 1981 0121 05       		.uleb128 0x5
 1982 0122 00       		.byte	0
 1983 0123 00       		.byte	0
 1984 0124 19       		.uleb128 0x19
 1985 0125 13       		.uleb128 0x13
 1986 0126 01       		.byte	0x1
 1987 0127 03       		.uleb128 0x3
 1988 0128 0E       		.uleb128 0xe
 1989 0129 0B       		.uleb128 0xb
 1990 012a 0B       		.uleb128 0xb
 1991 012b 3A       		.uleb128 0x3a
 1992 012c 0B       		.uleb128 0xb
 1993 012d 3B       		.uleb128 0x3b
 1994 012e 05       		.uleb128 0x5
 1995 012f 01       		.uleb128 0x1
 1996 0130 13       		.uleb128 0x13
 1997 0131 00       		.byte	0
 1998 0132 00       		.byte	0
 1999 0133 1A       		.uleb128 0x1a
 2000 0134 13       		.uleb128 0x13
 2001 0135 01       		.byte	0x1
 2002 0136 0B       		.uleb128 0xb
 2003 0137 0B       		.uleb128 0xb
 2004 0138 3A       		.uleb128 0x3a
 2005 0139 0B       		.uleb128 0xb
 2006 013a 3B       		.uleb128 0x3b
 2007 013b 05       		.uleb128 0x5
 2008 013c 01       		.uleb128 0x1
 2009 013d 13       		.uleb128 0x13
 2010 013e 00       		.byte	0
 2011 013f 00       		.byte	0
 2012 0140 1B       		.uleb128 0x1b
 2013 0141 17       		.uleb128 0x17
 2014 0142 01       		.byte	0x1
 2015 0143 0B       		.uleb128 0xb
 2016 0144 0B       		.uleb128 0xb
 2017 0145 3A       		.uleb128 0x3a
 2018 0146 0B       		.uleb128 0xb
 2019 0147 3B       		.uleb128 0x3b
 2020 0148 05       		.uleb128 0x5
 2021 0149 01       		.uleb128 0x1
 2022 014a 13       		.uleb128 0x13
 2023 014b 00       		.byte	0
 2024 014c 00       		.byte	0
 2025 014d 1C       		.uleb128 0x1c
 2026 014e 0D       		.uleb128 0xd
 2027 014f 00       		.byte	0
ARM GAS  /tmp/cc7JgLA7.s 			page 40


 2028 0150 03       		.uleb128 0x3
 2029 0151 0E       		.uleb128 0xe
 2030 0152 3A       		.uleb128 0x3a
 2031 0153 0B       		.uleb128 0xb
 2032 0154 3B       		.uleb128 0x3b
 2033 0155 05       		.uleb128 0x5
 2034 0156 49       		.uleb128 0x49
 2035 0157 13       		.uleb128 0x13
 2036 0158 00       		.byte	0
 2037 0159 00       		.byte	0
 2038 015a 1D       		.uleb128 0x1d
 2039 015b 15       		.uleb128 0x15
 2040 015c 01       		.byte	0x1
 2041 015d 27       		.uleb128 0x27
 2042 015e 19       		.uleb128 0x19
 2043 015f 01       		.uleb128 0x1
 2044 0160 13       		.uleb128 0x13
 2045 0161 00       		.byte	0
 2046 0162 00       		.byte	0
 2047 0163 1E       		.uleb128 0x1e
 2048 0164 34       		.uleb128 0x34
 2049 0165 00       		.byte	0
 2050 0166 03       		.uleb128 0x3
 2051 0167 0E       		.uleb128 0xe
 2052 0168 3A       		.uleb128 0x3a
 2053 0169 0B       		.uleb128 0xb
 2054 016a 3B       		.uleb128 0x3b
 2055 016b 05       		.uleb128 0x5
 2056 016c 49       		.uleb128 0x49
 2057 016d 13       		.uleb128 0x13
 2058 016e 3F       		.uleb128 0x3f
 2059 016f 19       		.uleb128 0x19
 2060 0170 3C       		.uleb128 0x3c
 2061 0171 19       		.uleb128 0x19
 2062 0172 00       		.byte	0
 2063 0173 00       		.byte	0
 2064 0174 1F       		.uleb128 0x1f
 2065 0175 34       		.uleb128 0x34
 2066 0176 00       		.byte	0
 2067 0177 03       		.uleb128 0x3
 2068 0178 0E       		.uleb128 0xe
 2069 0179 3A       		.uleb128 0x3a
 2070 017a 0B       		.uleb128 0xb
 2071 017b 3B       		.uleb128 0x3b
 2072 017c 0B       		.uleb128 0xb
 2073 017d 49       		.uleb128 0x49
 2074 017e 13       		.uleb128 0x13
 2075 017f 3F       		.uleb128 0x3f
 2076 0180 19       		.uleb128 0x19
 2077 0181 3C       		.uleb128 0x3c
 2078 0182 19       		.uleb128 0x19
 2079 0183 00       		.byte	0
 2080 0184 00       		.byte	0
 2081 0185 20       		.uleb128 0x20
 2082 0186 35       		.uleb128 0x35
 2083 0187 00       		.byte	0
 2084 0188 49       		.uleb128 0x49
ARM GAS  /tmp/cc7JgLA7.s 			page 41


 2085 0189 13       		.uleb128 0x13
 2086 018a 00       		.byte	0
 2087 018b 00       		.byte	0
 2088 018c 21       		.uleb128 0x21
 2089 018d 2E       		.uleb128 0x2e
 2090 018e 01       		.byte	0x1
 2091 018f 3F       		.uleb128 0x3f
 2092 0190 19       		.uleb128 0x19
 2093 0191 03       		.uleb128 0x3
 2094 0192 0E       		.uleb128 0xe
 2095 0193 3A       		.uleb128 0x3a
 2096 0194 0B       		.uleb128 0xb
 2097 0195 3B       		.uleb128 0x3b
 2098 0196 0B       		.uleb128 0xb
 2099 0197 27       		.uleb128 0x27
 2100 0198 19       		.uleb128 0x19
 2101 0199 49       		.uleb128 0x49
 2102 019a 13       		.uleb128 0x13
 2103 019b 11       		.uleb128 0x11
 2104 019c 01       		.uleb128 0x1
 2105 019d 12       		.uleb128 0x12
 2106 019e 06       		.uleb128 0x6
 2107 019f 40       		.uleb128 0x40
 2108 01a0 18       		.uleb128 0x18
 2109 01a1 9742     		.uleb128 0x2117
 2110 01a3 19       		.uleb128 0x19
 2111 01a4 01       		.uleb128 0x1
 2112 01a5 13       		.uleb128 0x13
 2113 01a6 00       		.byte	0
 2114 01a7 00       		.byte	0
 2115 01a8 22       		.uleb128 0x22
 2116 01a9 05       		.uleb128 0x5
 2117 01aa 00       		.byte	0
 2118 01ab 03       		.uleb128 0x3
 2119 01ac 0E       		.uleb128 0xe
 2120 01ad 3A       		.uleb128 0x3a
 2121 01ae 0B       		.uleb128 0xb
 2122 01af 3B       		.uleb128 0x3b
 2123 01b0 0B       		.uleb128 0xb
 2124 01b1 49       		.uleb128 0x49
 2125 01b2 13       		.uleb128 0x13
 2126 01b3 02       		.uleb128 0x2
 2127 01b4 18       		.uleb128 0x18
 2128 01b5 00       		.byte	0
 2129 01b6 00       		.byte	0
 2130 01b7 23       		.uleb128 0x23
 2131 01b8 34       		.uleb128 0x34
 2132 01b9 00       		.byte	0
 2133 01ba 03       		.uleb128 0x3
 2134 01bb 0E       		.uleb128 0xe
 2135 01bc 3A       		.uleb128 0x3a
 2136 01bd 0B       		.uleb128 0xb
 2137 01be 3B       		.uleb128 0x3b
 2138 01bf 0B       		.uleb128 0xb
 2139 01c0 49       		.uleb128 0x49
 2140 01c1 13       		.uleb128 0x13
 2141 01c2 02       		.uleb128 0x2
ARM GAS  /tmp/cc7JgLA7.s 			page 42


 2142 01c3 18       		.uleb128 0x18
 2143 01c4 00       		.byte	0
 2144 01c5 00       		.byte	0
 2145 01c6 24       		.uleb128 0x24
 2146 01c7 2E       		.uleb128 0x2e
 2147 01c8 01       		.byte	0x1
 2148 01c9 3F       		.uleb128 0x3f
 2149 01ca 19       		.uleb128 0x19
 2150 01cb 03       		.uleb128 0x3
 2151 01cc 0E       		.uleb128 0xe
 2152 01cd 3A       		.uleb128 0x3a
 2153 01ce 0B       		.uleb128 0xb
 2154 01cf 3B       		.uleb128 0x3b
 2155 01d0 0B       		.uleb128 0xb
 2156 01d1 27       		.uleb128 0x27
 2157 01d2 19       		.uleb128 0x19
 2158 01d3 11       		.uleb128 0x11
 2159 01d4 01       		.uleb128 0x1
 2160 01d5 12       		.uleb128 0x12
 2161 01d6 06       		.uleb128 0x6
 2162 01d7 40       		.uleb128 0x40
 2163 01d8 18       		.uleb128 0x18
 2164 01d9 9742     		.uleb128 0x2117
 2165 01db 19       		.uleb128 0x19
 2166 01dc 01       		.uleb128 0x1
 2167 01dd 13       		.uleb128 0x13
 2168 01de 00       		.byte	0
 2169 01df 00       		.byte	0
 2170 01e0 25       		.uleb128 0x25
 2171 01e1 2E       		.uleb128 0x2e
 2172 01e2 01       		.byte	0x1
 2173 01e3 3F       		.uleb128 0x3f
 2174 01e4 19       		.uleb128 0x19
 2175 01e5 03       		.uleb128 0x3
 2176 01e6 0E       		.uleb128 0xe
 2177 01e7 3A       		.uleb128 0x3a
 2178 01e8 0B       		.uleb128 0xb
 2179 01e9 3B       		.uleb128 0x3b
 2180 01ea 0B       		.uleb128 0xb
 2181 01eb 27       		.uleb128 0x27
 2182 01ec 19       		.uleb128 0x19
 2183 01ed 11       		.uleb128 0x11
 2184 01ee 01       		.uleb128 0x1
 2185 01ef 12       		.uleb128 0x12
 2186 01f0 06       		.uleb128 0x6
 2187 01f1 40       		.uleb128 0x40
 2188 01f2 18       		.uleb128 0x18
 2189 01f3 9742     		.uleb128 0x2117
 2190 01f5 19       		.uleb128 0x19
 2191 01f6 00       		.byte	0
 2192 01f7 00       		.byte	0
 2193 01f8 00       		.byte	0
 2194              		.section	.debug_aranges,"",%progbits
 2195 0000 1C000000 		.4byte	0x1c
 2196 0004 0200     		.2byte	0x2
 2197 0006 00000000 		.4byte	.Ldebug_info0
 2198 000a 04       		.byte	0x4
ARM GAS  /tmp/cc7JgLA7.s 			page 43


 2199 000b 00       		.byte	0
 2200 000c 0000     		.2byte	0
 2201 000e 0000     		.2byte	0
 2202 0010 00000000 		.4byte	.Ltext0
 2203 0014 5E010000 		.4byte	.Letext0-.Ltext0
 2204 0018 00000000 		.4byte	0
 2205 001c 00000000 		.4byte	0
 2206              		.section	.debug_line,"",%progbits
 2207              	.Ldebug_line0:
 2208 0000 99010000 		.section	.debug_str,"MS",%progbits,1
 2208      02004A01 
 2208      00000201 
 2208      FB0E0D00 
 2208      01010101 
 2209              	.LASF40:
 2210 0000 5F64736F 		.ascii	"_dso_handle\000"
 2210      5F68616E 
 2210      646C6500 
 2211              	.LASF48:
 2212 000c 5F73697A 		.ascii	"_size\000"
 2212      6500
 2213              	.LASF136:
 2214 0012 4D696E69 		.ascii	"MiniListItem_t\000"
 2214      4C697374 
 2214      4974656D 
 2214      5F7400
 2215              	.LASF92:
 2216 0021 5F72616E 		.ascii	"_rand48\000"
 2216      64343800 
 2217              	.LASF72:
 2218 0029 5F656D65 		.ascii	"_emergency\000"
 2218      7267656E 
 2218      637900
 2219              	.LASF62:
 2220 0034 5F646174 		.ascii	"_data\000"
 2220      6100
 2221              	.LASF112:
 2222 003a 5F776372 		.ascii	"_wcrtomb_state\000"
 2222      746F6D62 
 2222      5F737461 
 2222      746500
 2223              	.LASF113:
 2224 0049 5F776373 		.ascii	"_wcsrtombs_state\000"
 2224      72746F6D 
 2224      62735F73 
 2224      74617465 
 2224      00
 2225              	.LASF8:
 2226 005a 6C6F6E67 		.ascii	"long long unsigned int\000"
 2226      206C6F6E 
 2226      6720756E 
 2226      7369676E 
 2226      65642069 
 2227              	.LASF52:
 2228 0071 5F6C6266 		.ascii	"_lbfsize\000"
 2228      73697A65 
 2228      00
ARM GAS  /tmp/cc7JgLA7.s 			page 44


 2229              	.LASF133:
 2230 007a 784C6973 		.ascii	"xListEnd\000"
 2230      74456E64 
 2230      00
 2231              	.LASF140:
 2232 0083 70784E65 		.ascii	"pxNewListItem\000"
 2232      774C6973 
 2232      74497465 
 2232      6D00
 2233              	.LASF110:
 2234 0091 5F6D6272 		.ascii	"_mbrtowc_state\000"
 2234      746F7763 
 2234      5F737461 
 2234      746500
 2235              	.LASF105:
 2236 00a0 5F776374 		.ascii	"_wctomb_state\000"
 2236      6F6D625F 
 2236      73746174 
 2236      6500
 2237              	.LASF29:
 2238 00ae 5F5F746D 		.ascii	"__tm_sec\000"
 2238      5F736563 
 2238      00
 2239              	.LASF7:
 2240 00b7 6C6F6E67 		.ascii	"long long int\000"
 2240      206C6F6E 
 2240      6720696E 
 2240      7400
 2241              	.LASF1:
 2242 00c5 7369676E 		.ascii	"signed char\000"
 2242      65642063 
 2242      68617200 
 2243              	.LASF58:
 2244 00d1 5F756275 		.ascii	"_ubuf\000"
 2244      6600
 2245              	.LASF47:
 2246 00d7 5F626173 		.ascii	"_base\000"
 2246      6500
 2247              	.LASF31:
 2248 00dd 5F5F746D 		.ascii	"__tm_hour\000"
 2248      5F686F75 
 2248      7200
 2249              	.LASF87:
 2250 00e7 5F5F7366 		.ascii	"__sf\000"
 2250      00
 2251              	.LASF38:
 2252 00ec 5F6F6E5F 		.ascii	"_on_exit_args\000"
 2252      65786974 
 2252      5F617267 
 2252      7300
 2253              	.LASF53:
 2254 00fa 5F636F6F 		.ascii	"_cookie\000"
 2254      6B696500 
 2255              	.LASF86:
 2256 0102 5F5F7367 		.ascii	"__sglue\000"
 2256      6C756500 
 2257              	.LASF5:
ARM GAS  /tmp/cc7JgLA7.s 			page 45


 2258 010a 6C6F6E67 		.ascii	"long int\000"
 2258      20696E74 
 2258      00
 2259              	.LASF50:
 2260 0113 5F666C61 		.ascii	"_flags\000"
 2260      677300
 2261              	.LASF42:
 2262 011a 5F69735F 		.ascii	"_is_cxa\000"
 2262      63786100 
 2263              	.LASF68:
 2264 0122 5F737464 		.ascii	"_stdin\000"
 2264      696E00
 2265              	.LASF60:
 2266 0129 5F626C6B 		.ascii	"_blksize\000"
 2266      73697A65 
 2266      00
 2267              	.LASF82:
 2268 0132 5F637674 		.ascii	"_cvtbuf\000"
 2268      62756600 
 2269              	.LASF61:
 2270 013a 5F6F6666 		.ascii	"_offset\000"
 2270      73657400 
 2271              	.LASF146:
 2272 0142 70784974 		.ascii	"pxItem\000"
 2272      656D00
 2273              	.LASF144:
 2274 0149 764C6973 		.ascii	"vListInsertEnd\000"
 2274      74496E73 
 2274      65727445 
 2274      6E6400
 2275              	.LASF111:
 2276 0158 5F6D6273 		.ascii	"_mbsrtowcs_state\000"
 2276      72746F77 
 2276      63735F73 
 2276      74617465 
 2276      00
 2277              	.LASF109:
 2278 0169 5F6D6272 		.ascii	"_mbrlen_state\000"
 2278      6C656E5F 
 2278      73746174 
 2278      6500
 2279              	.LASF39:
 2280 0177 5F666E61 		.ascii	"_fnargs\000"
 2280      72677300 
 2281              	.LASF45:
 2282 017f 5F666E73 		.ascii	"_fns\000"
 2282      00
 2283              	.LASF9:
 2284 0184 5F5F7569 		.ascii	"__uint32_t\000"
 2284      6E743332 
 2284      5F7400
 2285              	.LASF25:
 2286 018f 5F736967 		.ascii	"_sign\000"
 2286      6E00
 2287              	.LASF20:
 2288 0195 5F666C6F 		.ascii	"_flock_t\000"
 2288      636B5F74 
ARM GAS  /tmp/cc7JgLA7.s 			page 46


 2288      00
 2289              	.LASF70:
 2290 019e 5F737464 		.ascii	"_stderr\000"
 2290      65727200 
 2291              	.LASF27:
 2292 01a6 5F426967 		.ascii	"_Bigint\000"
 2292      696E7400 
 2293              	.LASF100:
 2294 01ae 5F67616D 		.ascii	"_gamma_signgam\000"
 2294      6D615F73 
 2294      69676E67 
 2294      616D00
 2295              	.LASF149:
 2296 01bd 2F686F6D 		.ascii	"/home/sls/workspace/stm32f103c8-blink\000"
 2296      652F736C 
 2296      732F776F 
 2296      726B7370 
 2296      6163652F 
 2297              	.LASF78:
 2298 01e3 5F726573 		.ascii	"_result_k\000"
 2298      756C745F 
 2298      6B00
 2299              	.LASF28:
 2300 01ed 5F5F746D 		.ascii	"__tm\000"
 2300      00
 2301              	.LASF0:
 2302 01f2 756E7369 		.ascii	"unsigned int\000"
 2302      676E6564 
 2302      20696E74 
 2302      00
 2303              	.LASF15:
 2304 01ff 5F5F7763 		.ascii	"__wchb\000"
 2304      686200
 2305              	.LASF121:
 2306 0206 53797374 		.ascii	"SystemCoreClock\000"
 2306      656D436F 
 2306      7265436C 
 2306      6F636B00 
 2307              	.LASF69:
 2308 0216 5F737464 		.ascii	"_stdout\000"
 2308      6F757400 
 2309              	.LASF81:
 2310 021e 5F637674 		.ascii	"_cvtlen\000"
 2310      6C656E00 
 2311              	.LASF131:
 2312 0226 75784E75 		.ascii	"uxNumberOfItems\000"
 2312      6D626572 
 2312      4F664974 
 2312      656D7300 
 2313              	.LASF6:
 2314 0236 6C6F6E67 		.ascii	"long unsigned int\000"
 2314      20756E73 
 2314      69676E65 
 2314      6420696E 
 2314      7400
 2315              	.LASF51:
 2316 0248 5F66696C 		.ascii	"_file\000"
ARM GAS  /tmp/cc7JgLA7.s 			page 47


 2316      6500
 2317              	.LASF90:
 2318 024e 5F6E696F 		.ascii	"_niobs\000"
 2318      627300
 2319              	.LASF4:
 2320 0255 73686F72 		.ascii	"short unsigned int\000"
 2320      7420756E 
 2320      7369676E 
 2320      65642069 
 2320      6E7400
 2321              	.LASF84:
 2322 0268 5F617465 		.ascii	"_atexit0\000"
 2322      78697430 
 2322      00
 2323              	.LASF107:
 2324 0271 5F736967 		.ascii	"_signal_buf\000"
 2324      6E616C5F 
 2324      62756600 
 2325              	.LASF98:
 2326 027d 5F617363 		.ascii	"_asctime_buf\000"
 2326      74696D65 
 2326      5F627566 
 2326      00
 2327              	.LASF77:
 2328 028a 5F726573 		.ascii	"_result\000"
 2328      756C7400 
 2329              	.LASF14:
 2330 0292 5F5F7763 		.ascii	"__wch\000"
 2330      6800
 2331              	.LASF13:
 2332 0298 77696E74 		.ascii	"wint_t\000"
 2332      5F7400
 2333              	.LASF63:
 2334 029f 5F6C6F63 		.ascii	"_lock\000"
 2334      6B00
 2335              	.LASF65:
 2336 02a5 5F666C61 		.ascii	"_flags2\000"
 2336      67733200 
 2337              	.LASF55:
 2338 02ad 5F777269 		.ascii	"_write\000"
 2338      746500
 2339              	.LASF34:
 2340 02b4 5F5F746D 		.ascii	"__tm_year\000"
 2340      5F796561 
 2340      7200
 2341              	.LASF148:
 2342 02be 46726565 		.ascii	"FreeRTOS/Source/list.c\000"
 2342      52544F53 
 2342      2F536F75 
 2342      7263652F 
 2342      6C697374 
 2343              	.LASF135:
 2344 02d5 784D494E 		.ascii	"xMINI_LIST_ITEM\000"
 2344      495F4C49 
 2344      53545F49 
 2344      54454D00 
 2345              	.LASF145:
ARM GAS  /tmp/cc7JgLA7.s 			page 48


 2346 02e5 764C6973 		.ascii	"vListInitialiseItem\000"
 2346      74496E69 
 2346      7469616C 
 2346      69736549 
 2346      74656D00 
 2347              	.LASF16:
 2348 02f9 73697A65 		.ascii	"sizetype\000"
 2348      74797065 
 2348      00
 2349              	.LASF138:
 2350 0302 70784974 		.ascii	"pxItemToRemove\000"
 2350      656D546F 
 2350      52656D6F 
 2350      766500
 2351              	.LASF123:
 2352 0311 5469636B 		.ascii	"TickType_t\000"
 2352      54797065 
 2352      5F7400
 2353              	.LASF115:
 2354 031c 5F6E6578 		.ascii	"_nextf\000"
 2354      746600
 2355              	.LASF33:
 2356 0323 5F5F746D 		.ascii	"__tm_mon\000"
 2356      5F6D6F6E 
 2356      00
 2357              	.LASF43:
 2358 032c 5F617465 		.ascii	"_atexit\000"
 2358      78697400 
 2359              	.LASF75:
 2360 0334 5F5F7364 		.ascii	"__sdidinit\000"
 2360      6964696E 
 2360      697400
 2361              	.LASF11:
 2362 033f 5F6F6666 		.ascii	"_off_t\000"
 2362      5F7400
 2363              	.LASF147:
 2364 0346 474E5520 		.ascii	"GNU C99 6.3.1 20170620 -mthumb -mcpu=cortex-m3 -g -"
 2364      43393920 
 2364      362E332E 
 2364      31203230 
 2364      31373036 
 2365 0379 7374643D 		.ascii	"std=c99 -fno-common\000"
 2365      63393920 
 2365      2D666E6F 
 2365      2D636F6D 
 2365      6D6F6E00 
 2366              	.LASF127:
 2367 038d 70785072 		.ascii	"pxPrevious\000"
 2367      6576696F 
 2367      757300
 2368              	.LASF128:
 2369 0398 70764F77 		.ascii	"pvOwner\000"
 2369      6E657200 
 2370              	.LASF80:
 2371 03a0 5F667265 		.ascii	"_freelist\000"
 2371      656C6973 
 2371      7400
ARM GAS  /tmp/cc7JgLA7.s 			page 49


 2372              	.LASF150:
 2373 03aa 75784C69 		.ascii	"uxListRemove\000"
 2373      73745265 
 2373      6D6F7665 
 2373      00
 2374              	.LASF132:
 2375 03b7 7078496E 		.ascii	"pxIndex\000"
 2375      64657800 
 2376              	.LASF129:
 2377 03bf 7076436F 		.ascii	"pvContainer\000"
 2377      6E746169 
 2377      6E657200 
 2378              	.LASF10:
 2379 03cb 5F4C4F43 		.ascii	"_LOCK_RECURSIVE_T\000"
 2379      4B5F5245 
 2379      43555253 
 2379      4956455F 
 2379      5400
 2380              	.LASF54:
 2381 03dd 5F726561 		.ascii	"_read\000"
 2381      6400
 2382              	.LASF2:
 2383 03e3 756E7369 		.ascii	"unsigned char\000"
 2383      676E6564 
 2383      20636861 
 2383      7200
 2384              	.LASF83:
 2385 03f1 5F6E6577 		.ascii	"_new\000"
 2385      00
 2386              	.LASF114:
 2387 03f6 5F685F65 		.ascii	"_h_errno\000"
 2387      72726E6F 
 2387      00
 2388              	.LASF3:
 2389 03ff 73686F72 		.ascii	"short int\000"
 2389      7420696E 
 2389      7400
 2390              	.LASF36:
 2391 0409 5F5F746D 		.ascii	"__tm_yday\000"
 2391      5F796461 
 2391      7900
 2392              	.LASF46:
 2393 0413 5F5F7362 		.ascii	"__sbuf\000"
 2393      756600
 2394              	.LASF91:
 2395 041a 5F696F62 		.ascii	"_iobs\000"
 2395      7300
 2396              	.LASF88:
 2397 0420 5F5F4649 		.ascii	"__FILE\000"
 2397      4C4500
 2398              	.LASF19:
 2399 0427 5F6D6273 		.ascii	"_mbstate_t\000"
 2399      74617465 
 2399      5F7400
 2400              	.LASF49:
 2401 0432 5F5F7346 		.ascii	"__sFILE\000"
 2401      494C4500 
ARM GAS  /tmp/cc7JgLA7.s 			page 50


 2402              	.LASF64:
 2403 043a 5F6D6273 		.ascii	"_mbstate\000"
 2403      74617465 
 2403      00
 2404              	.LASF101:
 2405 0443 5F72616E 		.ascii	"_rand_next\000"
 2405      645F6E65 
 2405      787400
 2406              	.LASF130:
 2407 044e 784C4953 		.ascii	"xLIST\000"
 2407      5400
 2408              	.LASF103:
 2409 0454 5F6D626C 		.ascii	"_mblen_state\000"
 2409      656E5F73 
 2409      74617465 
 2409      00
 2410              	.LASF71:
 2411 0461 5F696E63 		.ascii	"_inc\000"
 2411      00
 2412              	.LASF44:
 2413 0466 5F696E64 		.ascii	"_ind\000"
 2413      00
 2414              	.LASF74:
 2415 046b 5F637572 		.ascii	"_current_locale\000"
 2415      72656E74 
 2415      5F6C6F63 
 2415      616C6500 
 2416              	.LASF137:
 2417 047b 4C697374 		.ascii	"List_t\000"
 2417      5F7400
 2418              	.LASF76:
 2419 0482 5F5F636C 		.ascii	"__cleanup\000"
 2419      65616E75 
 2419      7000
 2420              	.LASF24:
 2421 048c 5F6D6178 		.ascii	"_maxwds\000"
 2421      77647300 
 2422              	.LASF66:
 2423 0494 5F726565 		.ascii	"_reent\000"
 2423      6E7400
 2424              	.LASF93:
 2425 049b 5F736565 		.ascii	"_seed\000"
 2425      6400
 2426              	.LASF17:
 2427 04a1 5F5F636F 		.ascii	"__count\000"
 2427      756E7400 
 2428              	.LASF18:
 2429 04a9 5F5F7661 		.ascii	"__value\000"
 2429      6C756500 
 2430              	.LASF56:
 2431 04b1 5F736565 		.ascii	"_seek\000"
 2431      6B00
 2432              	.LASF118:
 2433 04b7 5F696D70 		.ascii	"_impure_ptr\000"
 2433      7572655F 
 2433      70747200 
 2434              	.LASF143:
ARM GAS  /tmp/cc7JgLA7.s 			page 51


 2435 04c3 764C6973 		.ascii	"vListInsert\000"
 2435      74496E73 
 2435      65727400 
 2436              	.LASF12:
 2437 04cf 5F66706F 		.ascii	"_fpos_t\000"
 2437      735F7400 
 2438              	.LASF67:
 2439 04d7 5F657272 		.ascii	"_errno\000"
 2439      6E6F00
 2440              	.LASF21:
 2441 04de 63686172 		.ascii	"char\000"
 2441      00
 2442              	.LASF139:
 2443 04e3 70784C69 		.ascii	"pxList\000"
 2443      737400
 2444              	.LASF30:
 2445 04ea 5F5F746D 		.ascii	"__tm_min\000"
 2445      5F6D696E 
 2445      00
 2446              	.LASF134:
 2447 04f3 4C697374 		.ascii	"ListItem_t\000"
 2447      4974656D 
 2447      5F7400
 2448              	.LASF94:
 2449 04fe 5F6D756C 		.ascii	"_mult\000"
 2449      7400
 2450              	.LASF23:
 2451 0504 5F6E6578 		.ascii	"_next\000"
 2451      7400
 2452              	.LASF97:
 2453 050a 5F737472 		.ascii	"_strtok_last\000"
 2453      746F6B5F 
 2453      6C617374 
 2453      00
 2454              	.LASF41:
 2455 0517 5F666E74 		.ascii	"_fntypes\000"
 2455      79706573 
 2455      00
 2456              	.LASF95:
 2457 0520 5F616464 		.ascii	"_add\000"
 2457      00
 2458              	.LASF141:
 2459 0525 70784974 		.ascii	"pxIterator\000"
 2459      65726174 
 2459      6F7200
 2460              	.LASF22:
 2461 0530 5F5F554C 		.ascii	"__ULong\000"
 2461      6F6E6700 
 2462              	.LASF108:
 2463 0538 5F676574 		.ascii	"_getdate_err\000"
 2463      64617465 
 2463      5F657272 
 2463      00
 2464              	.LASF119:
 2465 0545 5F676C6F 		.ascii	"_global_impure_ptr\000"
 2465      62616C5F 
 2465      696D7075 
ARM GAS  /tmp/cc7JgLA7.s 			page 52


 2465      72655F70 
 2465      747200
 2466              	.LASF73:
 2467 0558 5F637572 		.ascii	"_current_category\000"
 2467      72656E74 
 2467      5F636174 
 2467      65676F72 
 2467      7900
 2468              	.LASF120:
 2469 056a 75696E74 		.ascii	"uint32_t\000"
 2469      33325F74 
 2469      00
 2470              	.LASF125:
 2471 0573 78497465 		.ascii	"xItemValue\000"
 2471      6D56616C 
 2471      756500
 2472              	.LASF96:
 2473 057e 5F756E75 		.ascii	"_unused_rand\000"
 2473      7365645F 
 2473      72616E64 
 2473      00
 2474              	.LASF151:
 2475 058b 764C6973 		.ascii	"vListInitialise\000"
 2475      74496E69 
 2475      7469616C 
 2475      69736500 
 2476              	.LASF26:
 2477 059b 5F776473 		.ascii	"_wds\000"
 2477      00
 2478              	.LASF35:
 2479 05a0 5F5F746D 		.ascii	"__tm_wday\000"
 2479      5F776461 
 2479      7900
 2480              	.LASF89:
 2481 05aa 5F676C75 		.ascii	"_glue\000"
 2481      6500
 2482              	.LASF116:
 2483 05b0 5F6E6D61 		.ascii	"_nmalloc\000"
 2483      6C6C6F63 
 2483      00
 2484              	.LASF106:
 2485 05b9 5F6C3634 		.ascii	"_l64a_buf\000"
 2485      615F6275 
 2485      6600
 2486              	.LASF85:
 2487 05c3 5F736967 		.ascii	"_sig_func\000"
 2487      5F66756E 
 2487      6300
 2488              	.LASF142:
 2489 05cd 7856616C 		.ascii	"xValueOfInsertion\000"
 2489      75654F66 
 2489      496E7365 
 2489      7274696F 
 2489      6E00
 2490              	.LASF126:
 2491 05df 70784E65 		.ascii	"pxNext\000"
 2491      787400
ARM GAS  /tmp/cc7JgLA7.s 			page 53


 2492              	.LASF59:
 2493 05e6 5F6E6275 		.ascii	"_nbuf\000"
 2493      6600
 2494              	.LASF117:
 2495 05ec 5F756E75 		.ascii	"_unused\000"
 2495      73656400 
 2496              	.LASF37:
 2497 05f4 5F5F746D 		.ascii	"__tm_isdst\000"
 2497      5F697364 
 2497      737400
 2498              	.LASF99:
 2499 05ff 5F6C6F63 		.ascii	"_localtime_buf\000"
 2499      616C7469 
 2499      6D655F62 
 2499      756600
 2500              	.LASF57:
 2501 060e 5F636C6F 		.ascii	"_close\000"
 2501      736500
 2502              	.LASF102:
 2503 0615 5F723438 		.ascii	"_r48\000"
 2503      00
 2504              	.LASF124:
 2505 061a 784C4953 		.ascii	"xLIST_ITEM\000"
 2505      545F4954 
 2505      454D00
 2506              	.LASF104:
 2507 0625 5F6D6274 		.ascii	"_mbtowc_state\000"
 2507      6F77635F 
 2507      73746174 
 2507      6500
 2508              	.LASF79:
 2509 0633 5F703573 		.ascii	"_p5s\000"
 2509      00
 2510              	.LASF122:
 2511 0638 55426173 		.ascii	"UBaseType_t\000"
 2511      65547970 
 2511      655F7400 
 2512              	.LASF32:
 2513 0644 5F5F746D 		.ascii	"__tm_mday\000"
 2513      5F6D6461 
 2513      7900
 2514              		.ident	"GCC: (15:6.3.1+svn253039-1build1) 6.3.1 20170620"
ARM GAS  /tmp/cc7JgLA7.s 			page 54


DEFINED SYMBOLS
                            *ABS*:0000000000000000 list.c
     /tmp/cc7JgLA7.s:15     .text:0000000000000000 $t
     /tmp/cc7JgLA7.s:22     .text:0000000000000000 vListInitialise
     /tmp/cc7JgLA7.s:82     .text:000000000000003e vListInitialiseItem
     /tmp/cc7JgLA7.s:122    .text:0000000000000056 vListInsertEnd
     /tmp/cc7JgLA7.s:191    .text:000000000000009c vListInsert
     /tmp/cc7JgLA7.s:289    .text:000000000000010c uxListRemove
                     .debug_frame:0000000000000010 $d

NO UNDEFINED SYMBOLS
