ARM GAS  /tmp/cccYustO.s 			page 1


   1              		.cpu cortex-m3
   2              		.eabi_attribute 20, 1
   3              		.eabi_attribute 21, 1
   4              		.eabi_attribute 23, 3
   5              		.eabi_attribute 24, 1
   6              		.eabi_attribute 25, 1
   7              		.eabi_attribute 26, 1
   8              		.eabi_attribute 30, 6
   9              		.eabi_attribute 34, 1
  10              		.eabi_attribute 18, 4
  11              		.file	"system_stm32f1xx.c"
  12              		.text
  13              	.Ltext0:
  14              		.cfi_sections	.debug_frame
  15              		.global	SystemCoreClock
  16              		.data
  17              		.align	2
  18              		.type	SystemCoreClock, %object
  19              		.size	SystemCoreClock, 4
  20              	SystemCoreClock:
  21 0000 00A24A04 		.word	72000000
  22              		.global	AHBPrescTable
  23              		.section	.rodata
  24              		.align	2
  25              		.type	AHBPrescTable, %object
  26              		.size	AHBPrescTable, 16
  27              	AHBPrescTable:
  28 0000 00       		.byte	0
  29 0001 00       		.byte	0
  30 0002 00       		.byte	0
  31 0003 00       		.byte	0
  32 0004 00       		.byte	0
  33 0005 00       		.byte	0
  34 0006 00       		.byte	0
  35 0007 00       		.byte	0
  36 0008 01       		.byte	1
  37 0009 02       		.byte	2
  38 000a 03       		.byte	3
  39 000b 04       		.byte	4
  40 000c 06       		.byte	6
  41 000d 07       		.byte	7
  42 000e 08       		.byte	8
  43 000f 09       		.byte	9
  44              		.text
  45              		.align	1
  46              		.global	SystemInit
  47              		.syntax unified
  48              		.thumb
  49              		.thumb_func
  50              		.fpu softvfp
  51              		.type	SystemInit, %function
  52              	SystemInit:
  53              	.LFB63:
  54              		.file 1 "src/system_stm32f1xx.c"
   1:src/system_stm32f1xx.c **** /**
   2:src/system_stm32f1xx.c ****   ******************************************************************************
   3:src/system_stm32f1xx.c ****   * @file    system_stm32f1xx.c
ARM GAS  /tmp/cccYustO.s 			page 2


   4:src/system_stm32f1xx.c ****   * @author  MCD Application Team
   5:src/system_stm32f1xx.c ****   * @version V4.0.2
   6:src/system_stm32f1xx.c ****   * @date    18-December-2015
   7:src/system_stm32f1xx.c ****   * @brief   CMSIS Cortex-M3 Device Peripheral Access Layer System Source File.
   8:src/system_stm32f1xx.c ****   *
   9:src/system_stm32f1xx.c ****   * 1.  This file provides two functions and one global variable to be called from
  10:src/system_stm32f1xx.c ****   *     user application:
  11:src/system_stm32f1xx.c ****   *      - SystemInit(): Setups the system clock (System clock source, PLL Multiplier
  12:src/system_stm32f1xx.c ****   *                      factors, AHB/APBx prescalers and Flash settings).
  13:src/system_stm32f1xx.c ****   *                      This function is called at startup just after reset and
  14:src/system_stm32f1xx.c ****   *                      before branch to main program. This call is made inside
  15:src/system_stm32f1xx.c ****   *                      the "startup_stm32f1xx_xx.s" file.
  16:src/system_stm32f1xx.c ****   *
  17:src/system_stm32f1xx.c ****   *      - SystemCoreClock variable: Contains the core clock (HCLK), it can be used
  18:src/system_stm32f1xx.c ****   *                                  by the user application to setup the SysTick
  19:src/system_stm32f1xx.c ****   *                                  timer or configure other parameters.
  20:src/system_stm32f1xx.c ****   *
  21:src/system_stm32f1xx.c ****   *      - SystemCoreClockUpdate(): Updates the variable SystemCoreClock and must
  22:src/system_stm32f1xx.c ****   *                                 be called whenever the core clock is changed
  23:src/system_stm32f1xx.c ****   *                                 during program execution.
  24:src/system_stm32f1xx.c ****   *
  25:src/system_stm32f1xx.c ****   * 2. After each device reset the HSI (8 MHz) is used as system clock source.
  26:src/system_stm32f1xx.c ****   *    Then SystemInit() function is called, in "startup_stm32f1xx_xx.s" file, to
  27:src/system_stm32f1xx.c ****   *    configure the system clock before to branch to main program.
  28:src/system_stm32f1xx.c ****   *
  29:src/system_stm32f1xx.c ****   * 4. The default value of HSE crystal is set to 8 MHz (or 25 MHz, depending on
  30:src/system_stm32f1xx.c ****   *    the product used), refer to "HSE_VALUE".
  31:src/system_stm32f1xx.c ****   *    When HSE is used as system clock source, directly or through PLL, and you
  32:src/system_stm32f1xx.c ****   *    are using different crystal you have to adapt the HSE value to your own
  33:src/system_stm32f1xx.c ****   *    configuration.
  34:src/system_stm32f1xx.c ****   *
  35:src/system_stm32f1xx.c ****   ******************************************************************************
  36:src/system_stm32f1xx.c ****   * @attention
  37:src/system_stm32f1xx.c ****   *
  38:src/system_stm32f1xx.c ****   * <h2><center>&copy; COPYRIGHT(c) 2015 STMicroelectronics</center></h2>
  39:src/system_stm32f1xx.c ****   *
  40:src/system_stm32f1xx.c ****   * Redistribution and use in source and binary forms, with or without modification,
  41:src/system_stm32f1xx.c ****   * are permitted provided that the following conditions are met:
  42:src/system_stm32f1xx.c ****   *   1. Redistributions of source code must retain the above copyright notice,
  43:src/system_stm32f1xx.c ****   *      this list of conditions and the following disclaimer.
  44:src/system_stm32f1xx.c ****   *   2. Redistributions in binary form must reproduce the above copyright notice,
  45:src/system_stm32f1xx.c ****   *      this list of conditions and the following disclaimer in the documentation
  46:src/system_stm32f1xx.c ****   *      and/or other materials provided with the distribution.
  47:src/system_stm32f1xx.c ****   *   3. Neither the name of STMicroelectronics nor the names of its contributors
  48:src/system_stm32f1xx.c ****   *      may be used to endorse or promote products derived from this software
  49:src/system_stm32f1xx.c ****   *      without specific prior written permission.
  50:src/system_stm32f1xx.c ****   *
  51:src/system_stm32f1xx.c ****   * THIS SOFTWARE IS PROVIDED BY THE COPYRIGHT HOLDERS AND CONTRIBUTORS "AS IS"
  52:src/system_stm32f1xx.c ****   * AND ANY EXPRESS OR IMPLIED WARRANTIES, INCLUDING, BUT NOT LIMITED TO, THE
  53:src/system_stm32f1xx.c ****   * IMPLIED WARRANTIES OF MERCHANTABILITY AND FITNESS FOR A PARTICULAR PURPOSE ARE
  54:src/system_stm32f1xx.c ****   * DISCLAIMED. IN NO EVENT SHALL THE COPYRIGHT HOLDER OR CONTRIBUTORS BE LIABLE
  55:src/system_stm32f1xx.c ****   * FOR ANY DIRECT, INDIRECT, INCIDENTAL, SPECIAL, EXEMPLARY, OR CONSEQUENTIAL
  56:src/system_stm32f1xx.c ****   * DAMAGES (INCLUDING, BUT NOT LIMITED TO, PROCUREMENT OF SUBSTITUTE GOODS OR
  57:src/system_stm32f1xx.c ****   * SERVICES; LOSS OF USE, DATA, OR PROFITS; OR BUSINESS INTERRUPTION) HOWEVER
  58:src/system_stm32f1xx.c ****   * CAUSED AND ON ANY THEORY OF LIABILITY, WHETHER IN CONTRACT, STRICT LIABILITY,
  59:src/system_stm32f1xx.c ****   * OR TORT (INCLUDING NEGLIGENCE OR OTHERWISE) ARISING IN ANY WAY OUT OF THE USE
  60:src/system_stm32f1xx.c ****   * OF THIS SOFTWARE, EVEN IF ADVISED OF THE POSSIBILITY OF SUCH DAMAGE.
ARM GAS  /tmp/cccYustO.s 			page 3


  61:src/system_stm32f1xx.c ****   *
  62:src/system_stm32f1xx.c ****   ******************************************************************************
  63:src/system_stm32f1xx.c ****   */
  64:src/system_stm32f1xx.c **** 
  65:src/system_stm32f1xx.c **** /** @addtogroup CMSIS
  66:src/system_stm32f1xx.c ****   * @{
  67:src/system_stm32f1xx.c ****   */
  68:src/system_stm32f1xx.c **** 
  69:src/system_stm32f1xx.c **** /** @addtogroup stm32f1xx_system
  70:src/system_stm32f1xx.c ****   * @{
  71:src/system_stm32f1xx.c ****   */
  72:src/system_stm32f1xx.c **** 
  73:src/system_stm32f1xx.c **** /** @addtogroup STM32F1xx_System_Private_Includes
  74:src/system_stm32f1xx.c ****   * @{
  75:src/system_stm32f1xx.c ****   */
  76:src/system_stm32f1xx.c **** 
  77:src/system_stm32f1xx.c **** #include "stm32f1xx.h"
  78:src/system_stm32f1xx.c **** 
  79:src/system_stm32f1xx.c **** /**
  80:src/system_stm32f1xx.c ****   * @}
  81:src/system_stm32f1xx.c ****   */
  82:src/system_stm32f1xx.c **** 
  83:src/system_stm32f1xx.c **** /** @addtogroup STM32F1xx_System_Private_TypesDefinitions
  84:src/system_stm32f1xx.c ****   * @{
  85:src/system_stm32f1xx.c ****   */
  86:src/system_stm32f1xx.c **** 
  87:src/system_stm32f1xx.c **** /**
  88:src/system_stm32f1xx.c ****   * @}
  89:src/system_stm32f1xx.c ****   */
  90:src/system_stm32f1xx.c **** 
  91:src/system_stm32f1xx.c **** /** @addtogroup STM32F1xx_System_Private_Defines
  92:src/system_stm32f1xx.c ****   * @{
  93:src/system_stm32f1xx.c ****   */
  94:src/system_stm32f1xx.c **** 
  95:src/system_stm32f1xx.c **** #if !defined  (HSE_VALUE)
  96:src/system_stm32f1xx.c ****   #define HSE_VALUE    ((uint32_t)8000000) /*!< Default value of the External oscillator in Hz.
  97:src/system_stm32f1xx.c ****                                                 This value can be provided and adapted by the user 
  98:src/system_stm32f1xx.c **** #endif /* HSE_VALUE */
  99:src/system_stm32f1xx.c **** 
 100:src/system_stm32f1xx.c **** #if !defined  (HSI_VALUE)
 101:src/system_stm32f1xx.c ****   #define HSI_VALUE    ((uint32_t)8000000) /*!< Default value of the Internal oscillator in Hz.
 102:src/system_stm32f1xx.c ****                                                 This value can be provided and adapted by the user 
 103:src/system_stm32f1xx.c **** #endif /* HSI_VALUE */
 104:src/system_stm32f1xx.c **** 
 105:src/system_stm32f1xx.c **** /*!< Uncomment the following line if you need to use external SRAM  */
 106:src/system_stm32f1xx.c **** #if defined(STM32F100xE) || defined(STM32F101xE) || defined(STM32F101xG) || defined(STM32F103xE) ||
 107:src/system_stm32f1xx.c **** /* #define DATA_IN_ExtSRAM */
 108:src/system_stm32f1xx.c **** #endif /* STM32F100xE || STM32F101xE || STM32F101xG || STM32F103xE || STM32F103xG */
 109:src/system_stm32f1xx.c **** 
 110:src/system_stm32f1xx.c **** /*!< Uncomment the following line if you need to relocate your vector Table in
 111:src/system_stm32f1xx.c ****      Internal SRAM. */
 112:src/system_stm32f1xx.c **** /* #define VECT_TAB_SRAM */
 113:src/system_stm32f1xx.c **** #define VECT_TAB_OFFSET  0x0 /*!< Vector Table base offset field.
 114:src/system_stm32f1xx.c ****                                   This value must be a multiple of 0x200. */
 115:src/system_stm32f1xx.c **** 
 116:src/system_stm32f1xx.c **** 
 117:src/system_stm32f1xx.c **** /**
ARM GAS  /tmp/cccYustO.s 			page 4


 118:src/system_stm32f1xx.c ****   * @}
 119:src/system_stm32f1xx.c ****   */
 120:src/system_stm32f1xx.c **** 
 121:src/system_stm32f1xx.c **** /** @addtogroup STM32F1xx_System_Private_Macros
 122:src/system_stm32f1xx.c ****   * @{
 123:src/system_stm32f1xx.c ****   */
 124:src/system_stm32f1xx.c **** 
 125:src/system_stm32f1xx.c **** /**
 126:src/system_stm32f1xx.c ****   * @}
 127:src/system_stm32f1xx.c ****   */
 128:src/system_stm32f1xx.c **** 
 129:src/system_stm32f1xx.c **** /** @addtogroup STM32F1xx_System_Private_Variables
 130:src/system_stm32f1xx.c ****   * @{
 131:src/system_stm32f1xx.c ****   */
 132:src/system_stm32f1xx.c **** 
 133:src/system_stm32f1xx.c **** /*******************************************************************************
 134:src/system_stm32f1xx.c **** *  Clock Definitions
 135:src/system_stm32f1xx.c **** *******************************************************************************/
 136:src/system_stm32f1xx.c **** #if defined(STM32F100xB) ||defined(STM32F100xE)
 137:src/system_stm32f1xx.c ****   uint32_t SystemCoreClock         = 24000000;        /*!< System Clock Frequency (Core Clock) */
 138:src/system_stm32f1xx.c **** #else /*!< HSI Selected as System Clock source */
 139:src/system_stm32f1xx.c ****   uint32_t SystemCoreClock         = 72000000;        /*!< System Clock Frequency (Core Clock) */
 140:src/system_stm32f1xx.c **** #endif
 141:src/system_stm32f1xx.c **** 
 142:src/system_stm32f1xx.c **** const uint8_t AHBPrescTable[16] = {0, 0, 0, 0, 0, 0, 0, 0, 1, 2, 3, 4, 6, 7, 8, 9};
 143:src/system_stm32f1xx.c **** /**
 144:src/system_stm32f1xx.c ****   * @}
 145:src/system_stm32f1xx.c ****   */
 146:src/system_stm32f1xx.c **** 
 147:src/system_stm32f1xx.c **** /** @addtogroup STM32F1xx_System_Private_FunctionPrototypes
 148:src/system_stm32f1xx.c ****   * @{
 149:src/system_stm32f1xx.c ****   */
 150:src/system_stm32f1xx.c **** 
 151:src/system_stm32f1xx.c **** #if defined(STM32F100xE) || defined(STM32F101xE) || defined(STM32F101xG) || defined(STM32F103xE) ||
 152:src/system_stm32f1xx.c **** #ifdef DATA_IN_ExtSRAM
 153:src/system_stm32f1xx.c ****   static void SystemInit_ExtMemCtl(void);
 154:src/system_stm32f1xx.c **** #endif /* DATA_IN_ExtSRAM */
 155:src/system_stm32f1xx.c **** #endif /* STM32F100xE || STM32F101xE || STM32F101xG || STM32F103xE || STM32F103xG */
 156:src/system_stm32f1xx.c **** 
 157:src/system_stm32f1xx.c **** /**
 158:src/system_stm32f1xx.c ****   * @}
 159:src/system_stm32f1xx.c ****   */
 160:src/system_stm32f1xx.c **** 
 161:src/system_stm32f1xx.c **** /** @addtogroup STM32F1xx_System_Private_Functions
 162:src/system_stm32f1xx.c ****   * @{
 163:src/system_stm32f1xx.c ****   */
 164:src/system_stm32f1xx.c **** 
 165:src/system_stm32f1xx.c **** /**
 166:src/system_stm32f1xx.c ****   * @brief  Setup the microcontroller system
 167:src/system_stm32f1xx.c ****   *         Initialize the Embedded Flash Interface, the PLL and update the
 168:src/system_stm32f1xx.c ****   *         SystemCoreClock variable.
 169:src/system_stm32f1xx.c ****   * @note   This function should be used only after reset.
 170:src/system_stm32f1xx.c ****   * @param  None
 171:src/system_stm32f1xx.c ****   * @retval None
 172:src/system_stm32f1xx.c ****   */
 173:src/system_stm32f1xx.c **** void SystemInit (void)
 174:src/system_stm32f1xx.c **** {
ARM GAS  /tmp/cccYustO.s 			page 5


  55              		.loc 1 174 0
  56              		.cfi_startproc
  57              		@ args = 0, pretend = 0, frame = 0
  58              		@ frame_needed = 1, uses_anonymous_args = 0
  59              		@ link register save eliminated.
  60 0000 80B4     		push	{r7}
  61              		.cfi_def_cfa_offset 4
  62              		.cfi_offset 7, -4
  63 0002 00AF     		add	r7, sp, #0
  64              		.cfi_def_cfa_register 7
 175:src/system_stm32f1xx.c ****   /* Reset the RCC clock configuration to the default reset state(for debug purpose) */
 176:src/system_stm32f1xx.c ****   /* Set HSION bit */
 177:src/system_stm32f1xx.c ****   RCC->CR |= (uint32_t)0x00000001;
  65              		.loc 1 177 0
  66 0004 154A     		ldr	r2, .L2
  67 0006 154B     		ldr	r3, .L2
  68 0008 1B68     		ldr	r3, [r3]
  69 000a 43F00103 		orr	r3, r3, #1
  70 000e 1360     		str	r3, [r2]
 178:src/system_stm32f1xx.c **** 
 179:src/system_stm32f1xx.c ****   /* Reset SW, HPRE, PPRE1, PPRE2, ADCPRE and MCO bits */
 180:src/system_stm32f1xx.c **** #if !defined(STM32F105xC) && !defined(STM32F107xC)
 181:src/system_stm32f1xx.c ****   RCC->CFGR &= (uint32_t)0xF8FF0000;
  71              		.loc 1 181 0
  72 0010 1249     		ldr	r1, .L2
  73 0012 124B     		ldr	r3, .L2
  74 0014 5A68     		ldr	r2, [r3, #4]
  75 0016 124B     		ldr	r3, .L2+4
  76 0018 1340     		ands	r3, r3, r2
  77 001a 4B60     		str	r3, [r1, #4]
 182:src/system_stm32f1xx.c **** #else
 183:src/system_stm32f1xx.c ****   RCC->CFGR &= (uint32_t)0xF0FF0000;
 184:src/system_stm32f1xx.c **** #endif /* STM32F105xC */
 185:src/system_stm32f1xx.c **** 
 186:src/system_stm32f1xx.c ****   /* Reset HSEON, CSSON and PLLON bits */
 187:src/system_stm32f1xx.c ****   RCC->CR &= (uint32_t)0xFEF6FFFF;
  78              		.loc 1 187 0
  79 001c 0F4A     		ldr	r2, .L2
  80 001e 0F4B     		ldr	r3, .L2
  81 0020 1B68     		ldr	r3, [r3]
  82 0022 23F08473 		bic	r3, r3, #17301504
  83 0026 23F48033 		bic	r3, r3, #65536
  84 002a 1360     		str	r3, [r2]
 188:src/system_stm32f1xx.c **** 
 189:src/system_stm32f1xx.c ****   /* Reset HSEBYP bit */
 190:src/system_stm32f1xx.c ****   RCC->CR &= (uint32_t)0xFFFBFFFF;
  85              		.loc 1 190 0
  86 002c 0B4A     		ldr	r2, .L2
  87 002e 0B4B     		ldr	r3, .L2
  88 0030 1B68     		ldr	r3, [r3]
  89 0032 23F48023 		bic	r3, r3, #262144
  90 0036 1360     		str	r3, [r2]
 191:src/system_stm32f1xx.c **** 
 192:src/system_stm32f1xx.c ****   /* Reset PLLSRC, PLLXTPRE, PLLMUL and USBPRE/OTGFSPRE bits */
 193:src/system_stm32f1xx.c ****   RCC->CFGR &= (uint32_t)0xFF80FFFF;
  91              		.loc 1 193 0
  92 0038 084A     		ldr	r2, .L2
ARM GAS  /tmp/cccYustO.s 			page 6


  93 003a 084B     		ldr	r3, .L2
  94 003c 5B68     		ldr	r3, [r3, #4]
  95 003e 23F4FE03 		bic	r3, r3, #8323072
  96 0042 5360     		str	r3, [r2, #4]
 194:src/system_stm32f1xx.c **** 
 195:src/system_stm32f1xx.c **** #if defined(STM32F105xC) || defined(STM32F107xC)
 196:src/system_stm32f1xx.c ****   /* Reset PLL2ON and PLL3ON bits */
 197:src/system_stm32f1xx.c ****   RCC->CR &= (uint32_t)0xEBFFFFFF;
 198:src/system_stm32f1xx.c **** 
 199:src/system_stm32f1xx.c ****   /* Disable all interrupts and clear pending bits  */
 200:src/system_stm32f1xx.c ****   RCC->CIR = 0x00FF0000;
 201:src/system_stm32f1xx.c **** 
 202:src/system_stm32f1xx.c ****   /* Reset CFGR2 register */
 203:src/system_stm32f1xx.c ****   RCC->CFGR2 = 0x00000000;
 204:src/system_stm32f1xx.c **** #elif defined(STM32F100xB) || defined(STM32F100xE)
 205:src/system_stm32f1xx.c ****   /* Disable all interrupts and clear pending bits  */
 206:src/system_stm32f1xx.c ****   RCC->CIR = 0x009F0000;
 207:src/system_stm32f1xx.c **** 
 208:src/system_stm32f1xx.c ****   /* Reset CFGR2 register */
 209:src/system_stm32f1xx.c ****   RCC->CFGR2 = 0x00000000;
 210:src/system_stm32f1xx.c **** #else
 211:src/system_stm32f1xx.c ****   /* Disable all interrupts and clear pending bits  */
 212:src/system_stm32f1xx.c ****   RCC->CIR = 0x009F0000;
  97              		.loc 1 212 0
  98 0044 054B     		ldr	r3, .L2
  99 0046 4FF41F02 		mov	r2, #10420224
 100 004a 9A60     		str	r2, [r3, #8]
 213:src/system_stm32f1xx.c **** #endif /* STM32F105xC */
 214:src/system_stm32f1xx.c **** 
 215:src/system_stm32f1xx.c **** #if defined(STM32F100xE) || defined(STM32F101xE) || defined(STM32F101xG) || defined(STM32F103xE) ||
 216:src/system_stm32f1xx.c ****   #ifdef DATA_IN_ExtSRAM
 217:src/system_stm32f1xx.c ****     SystemInit_ExtMemCtl();
 218:src/system_stm32f1xx.c ****   #endif /* DATA_IN_ExtSRAM */
 219:src/system_stm32f1xx.c **** #endif
 220:src/system_stm32f1xx.c **** 
 221:src/system_stm32f1xx.c **** #ifdef VECT_TAB_SRAM
 222:src/system_stm32f1xx.c ****   SCB->VTOR = SRAM_BASE | VECT_TAB_OFFSET; /* Vector Table Relocation in Internal SRAM. */
 223:src/system_stm32f1xx.c **** #else
 224:src/system_stm32f1xx.c ****   SCB->VTOR = FLASH_BASE | VECT_TAB_OFFSET; /* Vector Table Relocation in Internal FLASH. */
 101              		.loc 1 224 0
 102 004c 054B     		ldr	r3, .L2+8
 103 004e 4FF00062 		mov	r2, #134217728
 104 0052 9A60     		str	r2, [r3, #8]
 225:src/system_stm32f1xx.c **** #endif
 226:src/system_stm32f1xx.c **** }
 105              		.loc 1 226 0
 106 0054 00BF     		nop
 107 0056 BD46     		mov	sp, r7
 108              		.cfi_def_cfa_register 13
 109              		@ sp needed
 110 0058 80BC     		pop	{r7}
 111              		.cfi_restore 7
 112              		.cfi_def_cfa_offset 0
 113 005a 7047     		bx	lr
 114              	.L3:
 115              		.align	2
 116              	.L2:
ARM GAS  /tmp/cccYustO.s 			page 7


 117 005c 00100240 		.word	1073876992
 118 0060 0000FFF8 		.word	-117506048
 119 0064 00ED00E0 		.word	-536810240
 120              		.cfi_endproc
 121              	.LFE63:
 122              		.size	SystemInit, .-SystemInit
 123              		.align	1
 124              		.global	SystemCoreClockUpdate
 125              		.syntax unified
 126              		.thumb
 127              		.thumb_func
 128              		.fpu softvfp
 129              		.type	SystemCoreClockUpdate, %function
 130              	SystemCoreClockUpdate:
 131              	.LFB64:
 227:src/system_stm32f1xx.c **** 
 228:src/system_stm32f1xx.c **** /**
 229:src/system_stm32f1xx.c ****   * @brief  Update SystemCoreClock variable according to Clock Register Values.
 230:src/system_stm32f1xx.c ****   *         The SystemCoreClock variable contains the core clock (HCLK), it can
 231:src/system_stm32f1xx.c ****   *         be used by the user application to setup the SysTick timer or configure
 232:src/system_stm32f1xx.c ****   *         other parameters.
 233:src/system_stm32f1xx.c ****   *
 234:src/system_stm32f1xx.c ****   * @note   Each time the core clock (HCLK) changes, this function must be called
 235:src/system_stm32f1xx.c ****   *         to update SystemCoreClock variable value. Otherwise, any configuration
 236:src/system_stm32f1xx.c ****   *         based on this variable will be incorrect.
 237:src/system_stm32f1xx.c ****   *
 238:src/system_stm32f1xx.c ****   * @note   - The system frequency computed by this function is not the real
 239:src/system_stm32f1xx.c ****   *           frequency in the chip. It is calculated based on the predefined
 240:src/system_stm32f1xx.c ****   *           constant and the selected clock source:
 241:src/system_stm32f1xx.c ****   *
 242:src/system_stm32f1xx.c ****   *           - If SYSCLK source is HSI, SystemCoreClock will contain the HSI_VALUE(*)
 243:src/system_stm32f1xx.c ****   *
 244:src/system_stm32f1xx.c ****   *           - If SYSCLK source is HSE, SystemCoreClock will contain the HSE_VALUE(**)
 245:src/system_stm32f1xx.c ****   *
 246:src/system_stm32f1xx.c ****   *           - If SYSCLK source is PLL, SystemCoreClock will contain the HSE_VALUE(**)
 247:src/system_stm32f1xx.c ****   *             or HSI_VALUE(*) multiplied by the PLL factors.
 248:src/system_stm32f1xx.c ****   *
 249:src/system_stm32f1xx.c ****   *         (*) HSI_VALUE is a constant defined in stm32f1xx.h file (default value
 250:src/system_stm32f1xx.c ****   *             8 MHz) but the real value may vary depending on the variations
 251:src/system_stm32f1xx.c ****   *             in voltage and temperature.
 252:src/system_stm32f1xx.c ****   *
 253:src/system_stm32f1xx.c ****   *         (**) HSE_VALUE is a constant defined in stm32f1xx.h file (default value
 254:src/system_stm32f1xx.c ****   *              8 MHz or 25 MHz, depending on the product used), user has to ensure
 255:src/system_stm32f1xx.c ****   *              that HSE_VALUE is same as the real frequency of the crystal used.
 256:src/system_stm32f1xx.c ****   *              Otherwise, this function may have wrong result.
 257:src/system_stm32f1xx.c ****   *
 258:src/system_stm32f1xx.c ****   *         - The result of this function could be not correct when using fractional
 259:src/system_stm32f1xx.c ****   *           value for HSE crystal.
 260:src/system_stm32f1xx.c ****   * @param  None
 261:src/system_stm32f1xx.c ****   * @retval None
 262:src/system_stm32f1xx.c ****   */
 263:src/system_stm32f1xx.c **** void SystemCoreClockUpdate (void)
 264:src/system_stm32f1xx.c **** {
 132              		.loc 1 264 0
 133              		.cfi_startproc
 134              		@ args = 0, pretend = 0, frame = 16
 135              		@ frame_needed = 1, uses_anonymous_args = 0
ARM GAS  /tmp/cccYustO.s 			page 8


 136              		@ link register save eliminated.
 137 0068 80B4     		push	{r7}
 138              		.cfi_def_cfa_offset 4
 139              		.cfi_offset 7, -4
 140 006a 85B0     		sub	sp, sp, #20
 141              		.cfi_def_cfa_offset 24
 142 006c 00AF     		add	r7, sp, #0
 143              		.cfi_def_cfa_register 7
 265:src/system_stm32f1xx.c ****   uint32_t tmp = 0, pllmull = 0, pllsource = 0;
 144              		.loc 1 265 0
 145 006e 0023     		movs	r3, #0
 146 0070 FB60     		str	r3, [r7, #12]
 147 0072 0023     		movs	r3, #0
 148 0074 BB60     		str	r3, [r7, #8]
 149 0076 0023     		movs	r3, #0
 150 0078 7B60     		str	r3, [r7, #4]
 266:src/system_stm32f1xx.c **** 
 267:src/system_stm32f1xx.c **** #if defined(STM32F105xC) || defined(STM32F107xC)
 268:src/system_stm32f1xx.c ****   uint32_t prediv1source = 0, prediv1factor = 0, prediv2factor = 0, pll2mull = 0;
 269:src/system_stm32f1xx.c **** #endif /* STM32F105xC */
 270:src/system_stm32f1xx.c **** 
 271:src/system_stm32f1xx.c **** #if defined(STM32F100xB) || defined(STM32F100xE)
 272:src/system_stm32f1xx.c ****   uint32_t prediv1factor = 0;
 273:src/system_stm32f1xx.c **** #endif /* STM32F100xB or STM32F100xE */
 274:src/system_stm32f1xx.c **** 
 275:src/system_stm32f1xx.c ****   /* Get SYSCLK source -------------------------------------------------------*/
 276:src/system_stm32f1xx.c ****   tmp = RCC->CFGR & RCC_CFGR_SWS;
 151              		.loc 1 276 0
 152 007a 2C4B     		ldr	r3, .L14
 153 007c 5B68     		ldr	r3, [r3, #4]
 154 007e 03F00C03 		and	r3, r3, #12
 155 0082 FB60     		str	r3, [r7, #12]
 277:src/system_stm32f1xx.c **** 
 278:src/system_stm32f1xx.c ****   switch (tmp)
 156              		.loc 1 278 0
 157 0084 FB68     		ldr	r3, [r7, #12]
 158 0086 042B     		cmp	r3, #4
 159 0088 07D0     		beq	.L6
 160 008a 082B     		cmp	r3, #8
 161 008c 09D0     		beq	.L7
 162 008e 002B     		cmp	r3, #0
 163 0090 33D1     		bne	.L13
 279:src/system_stm32f1xx.c ****   {
 280:src/system_stm32f1xx.c ****     case 0x00:  /* HSI used as system clock */
 281:src/system_stm32f1xx.c ****       SystemCoreClock = HSI_VALUE;
 164              		.loc 1 281 0
 165 0092 274B     		ldr	r3, .L14+4
 166 0094 274A     		ldr	r2, .L14+8
 167 0096 1A60     		str	r2, [r3]
 282:src/system_stm32f1xx.c ****       break;
 168              		.loc 1 282 0
 169 0098 33E0     		b	.L9
 170              	.L6:
 283:src/system_stm32f1xx.c ****     case 0x04:  /* HSE used as system clock */
 284:src/system_stm32f1xx.c ****       SystemCoreClock = HSE_VALUE;
 171              		.loc 1 284 0
 172 009a 254B     		ldr	r3, .L14+4
ARM GAS  /tmp/cccYustO.s 			page 9


 173 009c 254A     		ldr	r2, .L14+8
 174 009e 1A60     		str	r2, [r3]
 285:src/system_stm32f1xx.c ****       break;
 175              		.loc 1 285 0
 176 00a0 2FE0     		b	.L9
 177              	.L7:
 286:src/system_stm32f1xx.c ****     case 0x08:  /* PLL used as system clock */
 287:src/system_stm32f1xx.c **** 
 288:src/system_stm32f1xx.c ****       /* Get PLL clock source and multiplication factor ----------------------*/
 289:src/system_stm32f1xx.c ****       pllmull = RCC->CFGR & RCC_CFGR_PLLMULL;
 178              		.loc 1 289 0
 179 00a2 224B     		ldr	r3, .L14
 180 00a4 5B68     		ldr	r3, [r3, #4]
 181 00a6 03F47013 		and	r3, r3, #3932160
 182 00aa BB60     		str	r3, [r7, #8]
 290:src/system_stm32f1xx.c ****       pllsource = RCC->CFGR & RCC_CFGR_PLLSRC;
 183              		.loc 1 290 0
 184 00ac 1F4B     		ldr	r3, .L14
 185 00ae 5B68     		ldr	r3, [r3, #4]
 186 00b0 03F48033 		and	r3, r3, #65536
 187 00b4 7B60     		str	r3, [r7, #4]
 291:src/system_stm32f1xx.c **** 
 292:src/system_stm32f1xx.c **** #if !defined(STM32F105xC) && !defined(STM32F107xC)
 293:src/system_stm32f1xx.c ****       pllmull = ( pllmull >> 18) + 2;
 188              		.loc 1 293 0
 189 00b6 BB68     		ldr	r3, [r7, #8]
 190 00b8 9B0C     		lsrs	r3, r3, #18
 191 00ba 0233     		adds	r3, r3, #2
 192 00bc BB60     		str	r3, [r7, #8]
 294:src/system_stm32f1xx.c **** 
 295:src/system_stm32f1xx.c ****       if (pllsource == 0x00)
 193              		.loc 1 295 0
 194 00be 7B68     		ldr	r3, [r7, #4]
 195 00c0 002B     		cmp	r3, #0
 196 00c2 06D1     		bne	.L10
 296:src/system_stm32f1xx.c ****       {
 297:src/system_stm32f1xx.c ****         /* HSI oscillator clock divided by 2 selected as PLL clock entry */
 298:src/system_stm32f1xx.c ****         SystemCoreClock = (HSI_VALUE >> 1) * pllmull;
 197              		.loc 1 298 0
 198 00c4 BB68     		ldr	r3, [r7, #8]
 199 00c6 1C4A     		ldr	r2, .L14+12
 200 00c8 02FB03F3 		mul	r3, r2, r3
 201 00cc 184A     		ldr	r2, .L14+4
 202 00ce 1360     		str	r3, [r2]
 299:src/system_stm32f1xx.c ****       }
 300:src/system_stm32f1xx.c ****       else
 301:src/system_stm32f1xx.c ****       {
 302:src/system_stm32f1xx.c ****  #if defined(STM32F100xB) || defined(STM32F100xE)
 303:src/system_stm32f1xx.c ****        prediv1factor = (RCC->CFGR2 & RCC_CFGR2_PREDIV1) + 1;
 304:src/system_stm32f1xx.c ****        /* HSE oscillator clock selected as PREDIV1 clock entry */
 305:src/system_stm32f1xx.c ****        SystemCoreClock = (HSE_VALUE / prediv1factor) * pllmull;
 306:src/system_stm32f1xx.c ****  #else
 307:src/system_stm32f1xx.c ****         /* HSE selected as PLL clock entry */
 308:src/system_stm32f1xx.c ****         if ((RCC->CFGR & RCC_CFGR_PLLXTPRE) != (uint32_t)RESET)
 309:src/system_stm32f1xx.c ****         {/* HSE oscillator clock divided by 2 */
 310:src/system_stm32f1xx.c ****           SystemCoreClock = (HSE_VALUE >> 1) * pllmull;
 311:src/system_stm32f1xx.c ****         }
ARM GAS  /tmp/cccYustO.s 			page 10


 312:src/system_stm32f1xx.c ****         else
 313:src/system_stm32f1xx.c ****         {
 314:src/system_stm32f1xx.c ****           SystemCoreClock = HSE_VALUE * pllmull;
 315:src/system_stm32f1xx.c ****         }
 316:src/system_stm32f1xx.c ****  #endif
 317:src/system_stm32f1xx.c ****       }
 318:src/system_stm32f1xx.c **** #else
 319:src/system_stm32f1xx.c ****       pllmull = pllmull >> 18;
 320:src/system_stm32f1xx.c **** 
 321:src/system_stm32f1xx.c ****       if (pllmull != 0x0D)
 322:src/system_stm32f1xx.c ****       {
 323:src/system_stm32f1xx.c ****          pllmull += 2;
 324:src/system_stm32f1xx.c ****       }
 325:src/system_stm32f1xx.c ****       else
 326:src/system_stm32f1xx.c ****       { /* PLL multiplication factor = PLL input clock * 6.5 */
 327:src/system_stm32f1xx.c ****         pllmull = 13 / 2;
 328:src/system_stm32f1xx.c ****       }
 329:src/system_stm32f1xx.c **** 
 330:src/system_stm32f1xx.c ****       if (pllsource == 0x00)
 331:src/system_stm32f1xx.c ****       {
 332:src/system_stm32f1xx.c ****         /* HSI oscillator clock divided by 2 selected as PLL clock entry */
 333:src/system_stm32f1xx.c ****         SystemCoreClock = (HSI_VALUE >> 1) * pllmull;
 334:src/system_stm32f1xx.c ****       }
 335:src/system_stm32f1xx.c ****       else
 336:src/system_stm32f1xx.c ****       {/* PREDIV1 selected as PLL clock entry */
 337:src/system_stm32f1xx.c **** 
 338:src/system_stm32f1xx.c ****         /* Get PREDIV1 clock source and division factor */
 339:src/system_stm32f1xx.c ****         prediv1source = RCC->CFGR2 & RCC_CFGR2_PREDIV1SRC;
 340:src/system_stm32f1xx.c ****         prediv1factor = (RCC->CFGR2 & RCC_CFGR2_PREDIV1) + 1;
 341:src/system_stm32f1xx.c **** 
 342:src/system_stm32f1xx.c ****         if (prediv1source == 0)
 343:src/system_stm32f1xx.c ****         {
 344:src/system_stm32f1xx.c ****           /* HSE oscillator clock selected as PREDIV1 clock entry */
 345:src/system_stm32f1xx.c ****           SystemCoreClock = (HSE_VALUE / prediv1factor) * pllmull;
 346:src/system_stm32f1xx.c ****         }
 347:src/system_stm32f1xx.c ****         else
 348:src/system_stm32f1xx.c ****         {/* PLL2 clock selected as PREDIV1 clock entry */
 349:src/system_stm32f1xx.c **** 
 350:src/system_stm32f1xx.c ****           /* Get PREDIV2 division factor and PLL2 multiplication factor */
 351:src/system_stm32f1xx.c ****           prediv2factor = ((RCC->CFGR2 & RCC_CFGR2_PREDIV2) >> 4) + 1;
 352:src/system_stm32f1xx.c ****           pll2mull = ((RCC->CFGR2 & RCC_CFGR2_PLL2MUL) >> 8 ) + 2;
 353:src/system_stm32f1xx.c ****           SystemCoreClock = (((HSE_VALUE / prediv2factor) * pll2mull) / prediv1factor) * pllmull;
 354:src/system_stm32f1xx.c ****         }
 355:src/system_stm32f1xx.c ****       }
 356:src/system_stm32f1xx.c **** #endif /* STM32F105xC */
 357:src/system_stm32f1xx.c ****       break;
 203              		.loc 1 357 0
 204 00d0 17E0     		b	.L9
 205              	.L10:
 308:src/system_stm32f1xx.c ****         {/* HSE oscillator clock divided by 2 */
 206              		.loc 1 308 0
 207 00d2 164B     		ldr	r3, .L14
 208 00d4 5B68     		ldr	r3, [r3, #4]
 209 00d6 03F40033 		and	r3, r3, #131072
 210 00da 002B     		cmp	r3, #0
 211 00dc 06D0     		beq	.L12
 310:src/system_stm32f1xx.c ****         }
ARM GAS  /tmp/cccYustO.s 			page 11


 212              		.loc 1 310 0
 213 00de BB68     		ldr	r3, [r7, #8]
 214 00e0 154A     		ldr	r2, .L14+12
 215 00e2 02FB03F3 		mul	r3, r2, r3
 216 00e6 124A     		ldr	r2, .L14+4
 217 00e8 1360     		str	r3, [r2]
 218              		.loc 1 357 0
 219 00ea 0AE0     		b	.L9
 220              	.L12:
 314:src/system_stm32f1xx.c ****         }
 221              		.loc 1 314 0
 222 00ec BB68     		ldr	r3, [r7, #8]
 223 00ee 114A     		ldr	r2, .L14+8
 224 00f0 02FB03F3 		mul	r3, r2, r3
 225 00f4 0E4A     		ldr	r2, .L14+4
 226 00f6 1360     		str	r3, [r2]
 227              		.loc 1 357 0
 228 00f8 03E0     		b	.L9
 229              	.L13:
 358:src/system_stm32f1xx.c **** 
 359:src/system_stm32f1xx.c ****     default:
 360:src/system_stm32f1xx.c ****       SystemCoreClock = HSI_VALUE;
 230              		.loc 1 360 0
 231 00fa 0D4B     		ldr	r3, .L14+4
 232 00fc 0D4A     		ldr	r2, .L14+8
 233 00fe 1A60     		str	r2, [r3]
 361:src/system_stm32f1xx.c ****       break;
 234              		.loc 1 361 0
 235 0100 00BF     		nop
 236              	.L9:
 362:src/system_stm32f1xx.c ****   }
 363:src/system_stm32f1xx.c **** 
 364:src/system_stm32f1xx.c ****   /* Compute HCLK clock frequency ----------------*/
 365:src/system_stm32f1xx.c ****   /* Get HCLK prescaler */
 366:src/system_stm32f1xx.c ****   tmp = AHBPrescTable[((RCC->CFGR & RCC_CFGR_HPRE) >> 4)];
 237              		.loc 1 366 0
 238 0102 0A4B     		ldr	r3, .L14
 239 0104 5B68     		ldr	r3, [r3, #4]
 240 0106 1B09     		lsrs	r3, r3, #4
 241 0108 03F00F03 		and	r3, r3, #15
 242 010c 0B4A     		ldr	r2, .L14+16
 243 010e D35C     		ldrb	r3, [r2, r3]	@ zero_extendqisi2
 244 0110 FB60     		str	r3, [r7, #12]
 367:src/system_stm32f1xx.c ****   /* HCLK clock frequency */
 368:src/system_stm32f1xx.c ****   SystemCoreClock >>= tmp;
 245              		.loc 1 368 0
 246 0112 074B     		ldr	r3, .L14+4
 247 0114 1A68     		ldr	r2, [r3]
 248 0116 FB68     		ldr	r3, [r7, #12]
 249 0118 22FA03F3 		lsr	r3, r2, r3
 250 011c 044A     		ldr	r2, .L14+4
 251 011e 1360     		str	r3, [r2]
 369:src/system_stm32f1xx.c **** }
 252              		.loc 1 369 0
 253 0120 00BF     		nop
 254 0122 1437     		adds	r7, r7, #20
 255              		.cfi_def_cfa_offset 4
ARM GAS  /tmp/cccYustO.s 			page 12


 256 0124 BD46     		mov	sp, r7
 257              		.cfi_def_cfa_register 13
 258              		@ sp needed
 259 0126 80BC     		pop	{r7}
 260              		.cfi_restore 7
 261              		.cfi_def_cfa_offset 0
 262 0128 7047     		bx	lr
 263              	.L15:
 264 012a 00BF     		.align	2
 265              	.L14:
 266 012c 00100240 		.word	1073876992
 267 0130 00000000 		.word	SystemCoreClock
 268 0134 00127A00 		.word	8000000
 269 0138 00093D00 		.word	4000000
 270 013c 00000000 		.word	AHBPrescTable
 271              		.cfi_endproc
 272              	.LFE64:
 273              		.size	SystemCoreClockUpdate, .-SystemCoreClockUpdate
 274              	.Letext0:
 275              		.file 2 "/usr/include/newlib/machine/_default_types.h"
 276              		.file 3 "/usr/include/newlib/sys/_stdint.h"
 277              		.file 4 "cmsis/core_cm3.h"
 278              		.file 5 "include/system_stm32f1xx.h"
 279              		.file 6 "include/stm32f103xb.h"
 280              		.file 7 "include/stm32f1xx.h"