ARM GAS  /tmp/cckqXCjj.s 			page 1


   1              		.cpu cortex-m3
   2              		.eabi_attribute 20, 1
   3              		.eabi_attribute 21, 1
   4              		.eabi_attribute 23, 3
   5              		.eabi_attribute 24, 1
   6              		.eabi_attribute 25, 1
   7              		.eabi_attribute 26, 1
   8              		.eabi_attribute 30, 6
   9              		.eabi_attribute 34, 1
  10              		.eabi_attribute 18, 4
  11              		.file	"tasks.c"
  12              		.text
  13              	.Ltext0:
  14              		.cfi_sections	.debug_frame
  15              		.global	pxCurrentTCB
  16              		.bss
  17              		.align	2
  18              		.type	pxCurrentTCB, %object
  19              		.size	pxCurrentTCB, 4
  20              	pxCurrentTCB:
  21 0000 00000000 		.space	4
  22              		.align	2
  23              	pxReadyTasksLists:
  24 0004 00000000 		.space	100
  24      00000000 
  24      00000000 
  24      00000000 
  24      00000000 
  25              		.size	pxReadyTasksLists, 100
  26              		.align	2
  27              	xDelayedTaskList1:
  28 0068 00000000 		.space	20
  28      00000000 
  28      00000000 
  28      00000000 
  28      00000000 
  29              		.size	xDelayedTaskList1, 20
  30              		.align	2
  31              	xDelayedTaskList2:
  32 007c 00000000 		.space	20
  32      00000000 
  32      00000000 
  32      00000000 
  32      00000000 
  33              		.size	xDelayedTaskList2, 20
  34              		.align	2
  35              	pxDelayedTaskList:
  36 0090 00000000 		.space	4
  37              		.size	pxDelayedTaskList, 4
  38              		.align	2
  39              	pxOverflowDelayedTaskList:
  40 0094 00000000 		.space	4
  41              		.size	pxOverflowDelayedTaskList, 4
  42              		.align	2
  43              	xPendingReadyList:
  44 0098 00000000 		.space	20
  44      00000000 
ARM GAS  /tmp/cckqXCjj.s 			page 2


  44      00000000 
  44      00000000 
  44      00000000 
  45              		.size	xPendingReadyList, 20
  46              		.align	2
  47              	xTasksWaitingTermination:
  48 00ac 00000000 		.space	20
  48      00000000 
  48      00000000 
  48      00000000 
  48      00000000 
  49              		.size	xTasksWaitingTermination, 20
  50              		.align	2
  51              	uxDeletedTasksWaitingCleanUp:
  52 00c0 00000000 		.space	4
  53              		.size	uxDeletedTasksWaitingCleanUp, 4
  54              		.align	2
  55              	xSuspendedTaskList:
  56 00c4 00000000 		.space	20
  56      00000000 
  56      00000000 
  56      00000000 
  56      00000000 
  57              		.size	xSuspendedTaskList, 20
  58              		.align	2
  59              	uxCurrentNumberOfTasks:
  60 00d8 00000000 		.space	4
  61              		.size	uxCurrentNumberOfTasks, 4
  62              		.align	2
  63              	xTickCount:
  64 00dc 00000000 		.space	4
  65              		.size	xTickCount, 4
  66              		.align	2
  67              	uxTopReadyPriority:
  68 00e0 00000000 		.space	4
  69              		.size	uxTopReadyPriority, 4
  70              		.align	2
  71              	xSchedulerRunning:
  72 00e4 00000000 		.space	4
  73              		.size	xSchedulerRunning, 4
  74              		.align	2
  75              	xPendedTicks:
  76 00e8 00000000 		.space	4
  77              		.size	xPendedTicks, 4
  78              		.align	2
  79              	xYieldPending:
  80 00ec 00000000 		.space	4
  81              		.size	xYieldPending, 4
  82              		.align	2
  83              	xNumOfOverflows:
  84 00f0 00000000 		.space	4
  85              		.size	xNumOfOverflows, 4
  86              		.align	2
  87              	uxTaskNumber:
  88 00f4 00000000 		.space	4
  89              		.size	uxTaskNumber, 4
  90              		.align	2
ARM GAS  /tmp/cckqXCjj.s 			page 3


  91              	xNextTaskUnblockTime:
  92 00f8 00000000 		.space	4
  93              		.size	xNextTaskUnblockTime, 4
  94              		.align	2
  95              	xIdleTaskHandle:
  96 00fc 00000000 		.space	4
  97              		.size	xIdleTaskHandle, 4
  98              		.align	2
  99              	uxSchedulerSuspended:
 100 0100 00000000 		.space	4
 101              		.size	uxSchedulerSuspended, 4
 102              		.text
 103              		.align	1
 104              		.global	xTaskCreate
 105              		.syntax unified
 106              		.thumb
 107              		.thumb_func
 108              		.fpu softvfp
 109              		.type	xTaskCreate, %function
 110              	xTaskCreate:
 111              	.LFB5:
 112              		.file 1 "FreeRTOS/Source/tasks.c"
   1:FreeRTOS/Source/tasks.c **** /*
   2:FreeRTOS/Source/tasks.c ****  * FreeRTOS Kernel V10.3.1
   3:FreeRTOS/Source/tasks.c ****  * Copyright (C) 2020 Amazon.com, Inc. or its affiliates.  All Rights Reserved.
   4:FreeRTOS/Source/tasks.c ****  *
   5:FreeRTOS/Source/tasks.c ****  * Permission is hereby granted, free of charge, to any person obtaining a copy of
   6:FreeRTOS/Source/tasks.c ****  * this software and associated documentation files (the "Software"), to deal in
   7:FreeRTOS/Source/tasks.c ****  * the Software without restriction, including without limitation the rights to
   8:FreeRTOS/Source/tasks.c ****  * use, copy, modify, merge, publish, distribute, sublicense, and/or sell copies of
   9:FreeRTOS/Source/tasks.c ****  * the Software, and to permit persons to whom the Software is furnished to do so,
  10:FreeRTOS/Source/tasks.c ****  * subject to the following conditions:
  11:FreeRTOS/Source/tasks.c ****  *
  12:FreeRTOS/Source/tasks.c ****  * The above copyright notice and this permission notice shall be included in all
  13:FreeRTOS/Source/tasks.c ****  * copies or substantial portions of the Software.
  14:FreeRTOS/Source/tasks.c ****  *
  15:FreeRTOS/Source/tasks.c ****  * THE SOFTWARE IS PROVIDED "AS IS", WITHOUT WARRANTY OF ANY KIND, EXPRESS OR
  16:FreeRTOS/Source/tasks.c ****  * IMPLIED, INCLUDING BUT NOT LIMITED TO THE WARRANTIES OF MERCHANTABILITY, FITNESS
  17:FreeRTOS/Source/tasks.c ****  * FOR A PARTICULAR PURPOSE AND NONINFRINGEMENT. IN NO EVENT SHALL THE AUTHORS OR
  18:FreeRTOS/Source/tasks.c ****  * COPYRIGHT HOLDERS BE LIABLE FOR ANY CLAIM, DAMAGES OR OTHER LIABILITY, WHETHER
  19:FreeRTOS/Source/tasks.c ****  * IN AN ACTION OF CONTRACT, TORT OR OTHERWISE, ARISING FROM, OUT OF OR IN
  20:FreeRTOS/Source/tasks.c ****  * CONNECTION WITH THE SOFTWARE OR THE USE OR OTHER DEALINGS IN THE SOFTWARE.
  21:FreeRTOS/Source/tasks.c ****  *
  22:FreeRTOS/Source/tasks.c ****  * http://www.FreeRTOS.org
  23:FreeRTOS/Source/tasks.c ****  * http://aws.amazon.com/freertos
  24:FreeRTOS/Source/tasks.c ****  *
  25:FreeRTOS/Source/tasks.c ****  * 1 tab == 4 spaces!
  26:FreeRTOS/Source/tasks.c ****  */
  27:FreeRTOS/Source/tasks.c **** 
  28:FreeRTOS/Source/tasks.c **** /* Standard includes. */
  29:FreeRTOS/Source/tasks.c **** #include <stdlib.h>
  30:FreeRTOS/Source/tasks.c **** #include <string.h>
  31:FreeRTOS/Source/tasks.c **** 
  32:FreeRTOS/Source/tasks.c **** /* Defining MPU_WRAPPERS_INCLUDED_FROM_API_FILE prevents task.h from redefining
  33:FreeRTOS/Source/tasks.c **** all the API functions to use the MPU wrappers.  That should only be done when
  34:FreeRTOS/Source/tasks.c **** task.h is included from an application file. */
  35:FreeRTOS/Source/tasks.c **** #define MPU_WRAPPERS_INCLUDED_FROM_API_FILE
ARM GAS  /tmp/cckqXCjj.s 			page 4


  36:FreeRTOS/Source/tasks.c **** 
  37:FreeRTOS/Source/tasks.c **** /* FreeRTOS includes. */
  38:FreeRTOS/Source/tasks.c **** #include "FreeRTOS.h"
  39:FreeRTOS/Source/tasks.c **** #include "task.h"
  40:FreeRTOS/Source/tasks.c **** #include "timers.h"
  41:FreeRTOS/Source/tasks.c **** #include "stack_macros.h"
  42:FreeRTOS/Source/tasks.c **** 
  43:FreeRTOS/Source/tasks.c **** /* Lint e9021, e961 and e750 are suppressed as a MISRA exception justified
  44:FreeRTOS/Source/tasks.c **** because the MPU ports require MPU_WRAPPERS_INCLUDED_FROM_API_FILE to be defined
  45:FreeRTOS/Source/tasks.c **** for the header files above, but not in this file, in order to generate the
  46:FreeRTOS/Source/tasks.c **** correct privileged Vs unprivileged linkage and placement. */
  47:FreeRTOS/Source/tasks.c **** #undef MPU_WRAPPERS_INCLUDED_FROM_API_FILE /*lint !e961 !e750 !e9021. */
  48:FreeRTOS/Source/tasks.c **** 
  49:FreeRTOS/Source/tasks.c **** /* Set configUSE_STATS_FORMATTING_FUNCTIONS to 2 to include the stats formatting
  50:FreeRTOS/Source/tasks.c **** functions but without including stdio.h here. */
  51:FreeRTOS/Source/tasks.c **** #if ( configUSE_STATS_FORMATTING_FUNCTIONS == 1 )
  52:FreeRTOS/Source/tasks.c **** 	/* At the bottom of this file are two optional functions that can be used
  53:FreeRTOS/Source/tasks.c **** 	to generate human readable text from the raw data generated by the
  54:FreeRTOS/Source/tasks.c **** 	uxTaskGetSystemState() function.  Note the formatting functions are provided
  55:FreeRTOS/Source/tasks.c **** 	for convenience only, and are NOT considered part of the kernel. */
  56:FreeRTOS/Source/tasks.c **** 	#include <stdio.h>
  57:FreeRTOS/Source/tasks.c **** #endif /* configUSE_STATS_FORMATTING_FUNCTIONS == 1 ) */
  58:FreeRTOS/Source/tasks.c **** 
  59:FreeRTOS/Source/tasks.c **** #if( configUSE_PREEMPTION == 0 )
  60:FreeRTOS/Source/tasks.c **** 	/* If the cooperative scheduler is being used then a yield should not be
  61:FreeRTOS/Source/tasks.c **** 	performed just because a higher priority task has been woken. */
  62:FreeRTOS/Source/tasks.c **** 	#define taskYIELD_IF_USING_PREEMPTION()
  63:FreeRTOS/Source/tasks.c **** #else
  64:FreeRTOS/Source/tasks.c **** 	#define taskYIELD_IF_USING_PREEMPTION() portYIELD_WITHIN_API()
  65:FreeRTOS/Source/tasks.c **** #endif
  66:FreeRTOS/Source/tasks.c **** 
  67:FreeRTOS/Source/tasks.c **** /* Values that can be assigned to the ucNotifyState member of the TCB. */
  68:FreeRTOS/Source/tasks.c **** #define taskNOT_WAITING_NOTIFICATION	( ( uint8_t ) 0 )
  69:FreeRTOS/Source/tasks.c **** #define taskWAITING_NOTIFICATION		( ( uint8_t ) 1 )
  70:FreeRTOS/Source/tasks.c **** #define taskNOTIFICATION_RECEIVED		( ( uint8_t ) 2 )
  71:FreeRTOS/Source/tasks.c **** 
  72:FreeRTOS/Source/tasks.c **** /*
  73:FreeRTOS/Source/tasks.c ****  * The value used to fill the stack of a task when the task is created.  This
  74:FreeRTOS/Source/tasks.c ****  * is used purely for checking the high water mark for tasks.
  75:FreeRTOS/Source/tasks.c ****  */
  76:FreeRTOS/Source/tasks.c **** #define tskSTACK_FILL_BYTE	( 0xa5U )
  77:FreeRTOS/Source/tasks.c **** 
  78:FreeRTOS/Source/tasks.c **** /* Bits used to recored how a task's stack and TCB were allocated. */
  79:FreeRTOS/Source/tasks.c **** #define tskDYNAMICALLY_ALLOCATED_STACK_AND_TCB 		( ( uint8_t ) 0 )
  80:FreeRTOS/Source/tasks.c **** #define tskSTATICALLY_ALLOCATED_STACK_ONLY 			( ( uint8_t ) 1 )
  81:FreeRTOS/Source/tasks.c **** #define tskSTATICALLY_ALLOCATED_STACK_AND_TCB		( ( uint8_t ) 2 )
  82:FreeRTOS/Source/tasks.c **** 
  83:FreeRTOS/Source/tasks.c **** /* If any of the following are set then task stacks are filled with a known
  84:FreeRTOS/Source/tasks.c **** value so the high water mark can be determined.  If none of the following are
  85:FreeRTOS/Source/tasks.c **** set then don't fill the stack so there is no unnecessary dependency on memset. */
  86:FreeRTOS/Source/tasks.c **** #if( ( configCHECK_FOR_STACK_OVERFLOW > 1 ) || ( configUSE_TRACE_FACILITY == 1 ) || ( INCLUDE_uxTas
  87:FreeRTOS/Source/tasks.c **** 	#define tskSET_NEW_STACKS_TO_KNOWN_VALUE	1
  88:FreeRTOS/Source/tasks.c **** #else
  89:FreeRTOS/Source/tasks.c **** 	#define tskSET_NEW_STACKS_TO_KNOWN_VALUE	0
  90:FreeRTOS/Source/tasks.c **** #endif
  91:FreeRTOS/Source/tasks.c **** 
  92:FreeRTOS/Source/tasks.c **** /*
ARM GAS  /tmp/cckqXCjj.s 			page 5


  93:FreeRTOS/Source/tasks.c ****  * Macros used by vListTask to indicate which state a task is in.
  94:FreeRTOS/Source/tasks.c ****  */
  95:FreeRTOS/Source/tasks.c **** #define tskRUNNING_CHAR		( 'X' )
  96:FreeRTOS/Source/tasks.c **** #define tskBLOCKED_CHAR		( 'B' )
  97:FreeRTOS/Source/tasks.c **** #define tskREADY_CHAR		( 'R' )
  98:FreeRTOS/Source/tasks.c **** #define tskDELETED_CHAR		( 'D' )
  99:FreeRTOS/Source/tasks.c **** #define tskSUSPENDED_CHAR	( 'S' )
 100:FreeRTOS/Source/tasks.c **** 
 101:FreeRTOS/Source/tasks.c **** /*
 102:FreeRTOS/Source/tasks.c ****  * Some kernel aware debuggers require the data the debugger needs access to be
 103:FreeRTOS/Source/tasks.c ****  * global, rather than file scope.
 104:FreeRTOS/Source/tasks.c ****  */
 105:FreeRTOS/Source/tasks.c **** #ifdef portREMOVE_STATIC_QUALIFIER
 106:FreeRTOS/Source/tasks.c **** 	#define static
 107:FreeRTOS/Source/tasks.c **** #endif
 108:FreeRTOS/Source/tasks.c **** 
 109:FreeRTOS/Source/tasks.c **** /* The name allocated to the Idle task.  This can be overridden by defining
 110:FreeRTOS/Source/tasks.c **** configIDLE_TASK_NAME in FreeRTOSConfig.h. */
 111:FreeRTOS/Source/tasks.c **** #ifndef configIDLE_TASK_NAME
 112:FreeRTOS/Source/tasks.c **** 	#define configIDLE_TASK_NAME "IDLE"
 113:FreeRTOS/Source/tasks.c **** #endif
 114:FreeRTOS/Source/tasks.c **** 
 115:FreeRTOS/Source/tasks.c **** #if ( configUSE_PORT_OPTIMISED_TASK_SELECTION == 0 )
 116:FreeRTOS/Source/tasks.c **** 
 117:FreeRTOS/Source/tasks.c **** 	/* If configUSE_PORT_OPTIMISED_TASK_SELECTION is 0 then task selection is
 118:FreeRTOS/Source/tasks.c **** 	performed in a generic way that is not optimised to any particular
 119:FreeRTOS/Source/tasks.c **** 	microcontroller architecture. */
 120:FreeRTOS/Source/tasks.c **** 
 121:FreeRTOS/Source/tasks.c **** 	/* uxTopReadyPriority holds the priority of the highest priority ready
 122:FreeRTOS/Source/tasks.c **** 	state task. */
 123:FreeRTOS/Source/tasks.c **** 	#define taskRECORD_READY_PRIORITY( uxPriority )														\
 124:FreeRTOS/Source/tasks.c **** 	{																									\
 125:FreeRTOS/Source/tasks.c **** 		if( ( uxPriority ) > uxTopReadyPriority )														\
 126:FreeRTOS/Source/tasks.c **** 		{																								\
 127:FreeRTOS/Source/tasks.c **** 			uxTopReadyPriority = ( uxPriority );														\
 128:FreeRTOS/Source/tasks.c **** 		}																								\
 129:FreeRTOS/Source/tasks.c **** 	} /* taskRECORD_READY_PRIORITY */
 130:FreeRTOS/Source/tasks.c **** 
 131:FreeRTOS/Source/tasks.c **** 	/*-----------------------------------------------------------*/
 132:FreeRTOS/Source/tasks.c **** 
 133:FreeRTOS/Source/tasks.c **** 	#define taskSELECT_HIGHEST_PRIORITY_TASK()															\
 134:FreeRTOS/Source/tasks.c **** 	{																									\
 135:FreeRTOS/Source/tasks.c **** 	UBaseType_t uxTopPriority = uxTopReadyPriority;														\
 136:FreeRTOS/Source/tasks.c **** 																										\
 137:FreeRTOS/Source/tasks.c **** 		/* Find the highest priority queue that contains ready tasks. */								\
 138:FreeRTOS/Source/tasks.c **** 		while( listLIST_IS_EMPTY( &( pxReadyTasksLists[ uxTopPriority ] ) ) )							\
 139:FreeRTOS/Source/tasks.c **** 		{																								\
 140:FreeRTOS/Source/tasks.c **** 			configASSERT( uxTopPriority );																\
 141:FreeRTOS/Source/tasks.c **** 			--uxTopPriority;																			\
 142:FreeRTOS/Source/tasks.c **** 		}																								\
 143:FreeRTOS/Source/tasks.c **** 																										\
 144:FreeRTOS/Source/tasks.c **** 		/* listGET_OWNER_OF_NEXT_ENTRY indexes through the list, so the tasks of						\
 145:FreeRTOS/Source/tasks.c **** 		the	same priority get an equal share of the processor time. */									\
 146:FreeRTOS/Source/tasks.c **** 		listGET_OWNER_OF_NEXT_ENTRY( pxCurrentTCB, &( pxReadyTasksLists[ uxTopPriority ] ) );			\
 147:FreeRTOS/Source/tasks.c **** 		uxTopReadyPriority = uxTopPriority;																\
 148:FreeRTOS/Source/tasks.c **** 	} /* taskSELECT_HIGHEST_PRIORITY_TASK */
 149:FreeRTOS/Source/tasks.c **** 
ARM GAS  /tmp/cckqXCjj.s 			page 6


 150:FreeRTOS/Source/tasks.c **** 	/*-----------------------------------------------------------*/
 151:FreeRTOS/Source/tasks.c **** 
 152:FreeRTOS/Source/tasks.c **** 	/* Define away taskRESET_READY_PRIORITY() and portRESET_READY_PRIORITY() as
 153:FreeRTOS/Source/tasks.c **** 	they are only required when a port optimised method of task selection is
 154:FreeRTOS/Source/tasks.c **** 	being used. */
 155:FreeRTOS/Source/tasks.c **** 	#define taskRESET_READY_PRIORITY( uxPriority )
 156:FreeRTOS/Source/tasks.c **** 	#define portRESET_READY_PRIORITY( uxPriority, uxTopReadyPriority )
 157:FreeRTOS/Source/tasks.c **** 
 158:FreeRTOS/Source/tasks.c **** #else /* configUSE_PORT_OPTIMISED_TASK_SELECTION */
 159:FreeRTOS/Source/tasks.c **** 
 160:FreeRTOS/Source/tasks.c **** 	/* If configUSE_PORT_OPTIMISED_TASK_SELECTION is 1 then task selection is
 161:FreeRTOS/Source/tasks.c **** 	performed in a way that is tailored to the particular microcontroller
 162:FreeRTOS/Source/tasks.c **** 	architecture being used. */
 163:FreeRTOS/Source/tasks.c **** 
 164:FreeRTOS/Source/tasks.c **** 	/* A port optimised version is provided.  Call the port defined macros. */
 165:FreeRTOS/Source/tasks.c **** 	#define taskRECORD_READY_PRIORITY( uxPriority )	portRECORD_READY_PRIORITY( uxPriority, uxTopReadyP
 166:FreeRTOS/Source/tasks.c **** 
 167:FreeRTOS/Source/tasks.c **** 	/*-----------------------------------------------------------*/
 168:FreeRTOS/Source/tasks.c **** 
 169:FreeRTOS/Source/tasks.c **** 	#define taskSELECT_HIGHEST_PRIORITY_TASK()														\
 170:FreeRTOS/Source/tasks.c **** 	{																								\
 171:FreeRTOS/Source/tasks.c **** 	UBaseType_t uxTopPriority;																		\
 172:FreeRTOS/Source/tasks.c **** 																									\
 173:FreeRTOS/Source/tasks.c **** 		/* Find the highest priority list that contains ready tasks. */								\
 174:FreeRTOS/Source/tasks.c **** 		portGET_HIGHEST_PRIORITY( uxTopPriority, uxTopReadyPriority );								\
 175:FreeRTOS/Source/tasks.c **** 		configASSERT( listCURRENT_LIST_LENGTH( &( pxReadyTasksLists[ uxTopPriority ] ) ) > 0 );		\
 176:FreeRTOS/Source/tasks.c **** 		listGET_OWNER_OF_NEXT_ENTRY( pxCurrentTCB, &( pxReadyTasksLists[ uxTopPriority ] ) );		\
 177:FreeRTOS/Source/tasks.c **** 	} /* taskSELECT_HIGHEST_PRIORITY_TASK() */
 178:FreeRTOS/Source/tasks.c **** 
 179:FreeRTOS/Source/tasks.c **** 	/*-----------------------------------------------------------*/
 180:FreeRTOS/Source/tasks.c **** 
 181:FreeRTOS/Source/tasks.c **** 	/* A port optimised version is provided, call it only if the TCB being reset
 182:FreeRTOS/Source/tasks.c **** 	is being referenced from a ready list.  If it is referenced from a delayed
 183:FreeRTOS/Source/tasks.c **** 	or suspended list then it won't be in a ready list. */
 184:FreeRTOS/Source/tasks.c **** 	#define taskRESET_READY_PRIORITY( uxPriority )														\
 185:FreeRTOS/Source/tasks.c **** 	{																									\
 186:FreeRTOS/Source/tasks.c **** 		if( listCURRENT_LIST_LENGTH( &( pxReadyTasksLists[ ( uxPriority ) ] ) ) == ( UBaseType_t ) 0 )	\
 187:FreeRTOS/Source/tasks.c **** 		{																								\
 188:FreeRTOS/Source/tasks.c **** 			portRESET_READY_PRIORITY( ( uxPriority ), ( uxTopReadyPriority ) );							\
 189:FreeRTOS/Source/tasks.c **** 		}																								\
 190:FreeRTOS/Source/tasks.c **** 	}
 191:FreeRTOS/Source/tasks.c **** 
 192:FreeRTOS/Source/tasks.c **** #endif /* configUSE_PORT_OPTIMISED_TASK_SELECTION */
 193:FreeRTOS/Source/tasks.c **** 
 194:FreeRTOS/Source/tasks.c **** /*-----------------------------------------------------------*/
 195:FreeRTOS/Source/tasks.c **** 
 196:FreeRTOS/Source/tasks.c **** /* pxDelayedTaskList and pxOverflowDelayedTaskList are switched when the tick
 197:FreeRTOS/Source/tasks.c **** count overflows. */
 198:FreeRTOS/Source/tasks.c **** #define taskSWITCH_DELAYED_LISTS()																	\
 199:FreeRTOS/Source/tasks.c **** {																									\
 200:FreeRTOS/Source/tasks.c **** 	List_t *pxTemp;																					\
 201:FreeRTOS/Source/tasks.c **** 																									\
 202:FreeRTOS/Source/tasks.c **** 	/* The delayed tasks list should be empty when the lists are switched. */						\
 203:FreeRTOS/Source/tasks.c **** 	configASSERT( ( listLIST_IS_EMPTY( pxDelayedTaskList ) ) );										\
 204:FreeRTOS/Source/tasks.c **** 																									\
 205:FreeRTOS/Source/tasks.c **** 	pxTemp = pxDelayedTaskList;																		\
 206:FreeRTOS/Source/tasks.c **** 	pxDelayedTaskList = pxOverflowDelayedTaskList;													\
ARM GAS  /tmp/cckqXCjj.s 			page 7


 207:FreeRTOS/Source/tasks.c **** 	pxOverflowDelayedTaskList = pxTemp;																\
 208:FreeRTOS/Source/tasks.c **** 	xNumOfOverflows++;																				\
 209:FreeRTOS/Source/tasks.c **** 	prvResetNextTaskUnblockTime();																	\
 210:FreeRTOS/Source/tasks.c **** }
 211:FreeRTOS/Source/tasks.c **** 
 212:FreeRTOS/Source/tasks.c **** /*-----------------------------------------------------------*/
 213:FreeRTOS/Source/tasks.c **** 
 214:FreeRTOS/Source/tasks.c **** /*
 215:FreeRTOS/Source/tasks.c ****  * Place the task represented by pxTCB into the appropriate ready list for
 216:FreeRTOS/Source/tasks.c ****  * the task.  It is inserted at the end of the list.
 217:FreeRTOS/Source/tasks.c ****  */
 218:FreeRTOS/Source/tasks.c **** #define prvAddTaskToReadyList( pxTCB )																\
 219:FreeRTOS/Source/tasks.c **** 	traceMOVED_TASK_TO_READY_STATE( pxTCB );														\
 220:FreeRTOS/Source/tasks.c **** 	taskRECORD_READY_PRIORITY( ( pxTCB )->uxPriority );												\
 221:FreeRTOS/Source/tasks.c **** 	vListInsertEnd( &( pxReadyTasksLists[ ( pxTCB )->uxPriority ] ), &( ( pxTCB )->xStateListItem ) );
 222:FreeRTOS/Source/tasks.c **** 	tracePOST_MOVED_TASK_TO_READY_STATE( pxTCB )
 223:FreeRTOS/Source/tasks.c **** /*-----------------------------------------------------------*/
 224:FreeRTOS/Source/tasks.c **** 
 225:FreeRTOS/Source/tasks.c **** /*
 226:FreeRTOS/Source/tasks.c ****  * Several functions take an TaskHandle_t parameter that can optionally be NULL,
 227:FreeRTOS/Source/tasks.c ****  * where NULL is used to indicate that the handle of the currently executing
 228:FreeRTOS/Source/tasks.c ****  * task should be used in place of the parameter.  This macro simply checks to
 229:FreeRTOS/Source/tasks.c ****  * see if the parameter is NULL and returns a pointer to the appropriate TCB.
 230:FreeRTOS/Source/tasks.c ****  */
 231:FreeRTOS/Source/tasks.c **** #define prvGetTCBFromHandle( pxHandle ) ( ( ( pxHandle ) == NULL ) ? pxCurrentTCB : ( pxHandle ) )
 232:FreeRTOS/Source/tasks.c **** 
 233:FreeRTOS/Source/tasks.c **** /* The item value of the event list item is normally used to hold the priority
 234:FreeRTOS/Source/tasks.c **** of the task to which it belongs (coded to allow it to be held in reverse
 235:FreeRTOS/Source/tasks.c **** priority order).  However, it is occasionally borrowed for other purposes.  It
 236:FreeRTOS/Source/tasks.c **** is important its value is not updated due to a task priority change while it is
 237:FreeRTOS/Source/tasks.c **** being used for another purpose.  The following bit definition is used to inform
 238:FreeRTOS/Source/tasks.c **** the scheduler that the value should not be changed - in which case it is the
 239:FreeRTOS/Source/tasks.c **** responsibility of whichever module is using the value to ensure it gets set back
 240:FreeRTOS/Source/tasks.c **** to its original value when it is released. */
 241:FreeRTOS/Source/tasks.c **** #if( configUSE_16_BIT_TICKS == 1 )
 242:FreeRTOS/Source/tasks.c **** 	#define taskEVENT_LIST_ITEM_VALUE_IN_USE	0x8000U
 243:FreeRTOS/Source/tasks.c **** #else
 244:FreeRTOS/Source/tasks.c **** 	#define taskEVENT_LIST_ITEM_VALUE_IN_USE	0x80000000UL
 245:FreeRTOS/Source/tasks.c **** #endif
 246:FreeRTOS/Source/tasks.c **** 
 247:FreeRTOS/Source/tasks.c **** /*
 248:FreeRTOS/Source/tasks.c ****  * Task control block.  A task control block (TCB) is allocated for each task,
 249:FreeRTOS/Source/tasks.c ****  * and stores task state information, including a pointer to the task's context
 250:FreeRTOS/Source/tasks.c ****  * (the task's run time environment, including register values)
 251:FreeRTOS/Source/tasks.c ****  */
 252:FreeRTOS/Source/tasks.c **** typedef struct tskTaskControlBlock 			/* The old naming convention is used to prevent breaking kern
 253:FreeRTOS/Source/tasks.c **** {
 254:FreeRTOS/Source/tasks.c **** 	volatile StackType_t	*pxTopOfStack;	/*< Points to the location of the last item placed on the task
 255:FreeRTOS/Source/tasks.c **** 
 256:FreeRTOS/Source/tasks.c **** 	#if ( portUSING_MPU_WRAPPERS == 1 )
 257:FreeRTOS/Source/tasks.c **** 		xMPU_SETTINGS	xMPUSettings;		/*< The MPU settings are defined as part of the port layer.  THIS MU
 258:FreeRTOS/Source/tasks.c **** 	#endif
 259:FreeRTOS/Source/tasks.c **** 
 260:FreeRTOS/Source/tasks.c **** 	ListItem_t			xStateListItem;	/*< The list that the state list item of a task is reference from den
 261:FreeRTOS/Source/tasks.c **** 	ListItem_t			xEventListItem;		/*< Used to reference a task from an event list. */
 262:FreeRTOS/Source/tasks.c **** 	UBaseType_t			uxPriority;			/*< The priority of the task.  0 is the lowest priority. */
 263:FreeRTOS/Source/tasks.c **** 	StackType_t			*pxStack;			/*< Points to the start of the stack. */
ARM GAS  /tmp/cckqXCjj.s 			page 8


 264:FreeRTOS/Source/tasks.c **** 	char				pcTaskName[ configMAX_TASK_NAME_LEN ];/*< Descriptive name given to the task when created.
 265:FreeRTOS/Source/tasks.c **** 
 266:FreeRTOS/Source/tasks.c **** 	#if ( ( portSTACK_GROWTH > 0 ) || ( configRECORD_STACK_HIGH_ADDRESS == 1 ) )
 267:FreeRTOS/Source/tasks.c **** 		StackType_t		*pxEndOfStack;		/*< Points to the highest valid address for the stack. */
 268:FreeRTOS/Source/tasks.c **** 	#endif
 269:FreeRTOS/Source/tasks.c **** 
 270:FreeRTOS/Source/tasks.c **** 	#if ( portCRITICAL_NESTING_IN_TCB == 1 )
 271:FreeRTOS/Source/tasks.c **** 		UBaseType_t		uxCriticalNesting;	/*< Holds the critical section nesting depth for ports that do no
 272:FreeRTOS/Source/tasks.c **** 	#endif
 273:FreeRTOS/Source/tasks.c **** 
 274:FreeRTOS/Source/tasks.c **** 	#if ( configUSE_TRACE_FACILITY == 1 )
 275:FreeRTOS/Source/tasks.c **** 		UBaseType_t		uxTCBNumber;		/*< Stores a number that increments each time a TCB is created.  It al
 276:FreeRTOS/Source/tasks.c **** 		UBaseType_t		uxTaskNumber;		/*< Stores a number specifically for use by third party trace code. *
 277:FreeRTOS/Source/tasks.c **** 	#endif
 278:FreeRTOS/Source/tasks.c **** 
 279:FreeRTOS/Source/tasks.c **** 	#if ( configUSE_MUTEXES == 1 )
 280:FreeRTOS/Source/tasks.c **** 		UBaseType_t		uxBasePriority;		/*< The priority last assigned to the task - used by the priority i
 281:FreeRTOS/Source/tasks.c **** 		UBaseType_t		uxMutexesHeld;
 282:FreeRTOS/Source/tasks.c **** 	#endif
 283:FreeRTOS/Source/tasks.c **** 
 284:FreeRTOS/Source/tasks.c **** 	#if ( configUSE_APPLICATION_TASK_TAG == 1 )
 285:FreeRTOS/Source/tasks.c **** 		TaskHookFunction_t pxTaskTag;
 286:FreeRTOS/Source/tasks.c **** 	#endif
 287:FreeRTOS/Source/tasks.c **** 
 288:FreeRTOS/Source/tasks.c **** 	#if( configNUM_THREAD_LOCAL_STORAGE_POINTERS > 0 )
 289:FreeRTOS/Source/tasks.c **** 		void			*pvThreadLocalStoragePointers[ configNUM_THREAD_LOCAL_STORAGE_POINTERS ];
 290:FreeRTOS/Source/tasks.c **** 	#endif
 291:FreeRTOS/Source/tasks.c **** 
 292:FreeRTOS/Source/tasks.c **** 	#if( configGENERATE_RUN_TIME_STATS == 1 )
 293:FreeRTOS/Source/tasks.c **** 		uint32_t		ulRunTimeCounter;	/*< Stores the amount of time the task has spent in the Running state
 294:FreeRTOS/Source/tasks.c **** 	#endif
 295:FreeRTOS/Source/tasks.c **** 
 296:FreeRTOS/Source/tasks.c **** 	#if ( configUSE_NEWLIB_REENTRANT == 1 )
 297:FreeRTOS/Source/tasks.c **** 		/* Allocate a Newlib reent structure that is specific to this task.
 298:FreeRTOS/Source/tasks.c **** 		Note Newlib support has been included by popular demand, but is not
 299:FreeRTOS/Source/tasks.c **** 		used by the FreeRTOS maintainers themselves.  FreeRTOS is not
 300:FreeRTOS/Source/tasks.c **** 		responsible for resulting newlib operation.  User must be familiar with
 301:FreeRTOS/Source/tasks.c **** 		newlib and must provide system-wide implementations of the necessary
 302:FreeRTOS/Source/tasks.c **** 		stubs. Be warned that (at the time of writing) the current newlib design
 303:FreeRTOS/Source/tasks.c **** 		implements a system-wide malloc() that must be provided with locks.
 304:FreeRTOS/Source/tasks.c **** 
 305:FreeRTOS/Source/tasks.c **** 		See the third party link http://www.nadler.com/embedded/newlibAndFreeRTOS.html
 306:FreeRTOS/Source/tasks.c **** 		for additional information. */
 307:FreeRTOS/Source/tasks.c **** 		struct	_reent xNewLib_reent;
 308:FreeRTOS/Source/tasks.c **** 	#endif
 309:FreeRTOS/Source/tasks.c **** 
 310:FreeRTOS/Source/tasks.c **** 	#if( configUSE_TASK_NOTIFICATIONS == 1 )
 311:FreeRTOS/Source/tasks.c **** 		volatile uint32_t ulNotifiedValue;
 312:FreeRTOS/Source/tasks.c **** 		volatile uint8_t ucNotifyState;
 313:FreeRTOS/Source/tasks.c **** 	#endif
 314:FreeRTOS/Source/tasks.c **** 
 315:FreeRTOS/Source/tasks.c **** 	/* See the comments in FreeRTOS.h with the definition of
 316:FreeRTOS/Source/tasks.c **** 	tskSTATIC_AND_DYNAMIC_ALLOCATION_POSSIBLE. */
 317:FreeRTOS/Source/tasks.c **** 	#if( tskSTATIC_AND_DYNAMIC_ALLOCATION_POSSIBLE != 0 ) /*lint !e731 !e9029 Macro has been consolida
 318:FreeRTOS/Source/tasks.c **** 		uint8_t	ucStaticallyAllocated; 		/*< Set to pdTRUE if the task is a statically allocated to ensur
 319:FreeRTOS/Source/tasks.c **** 	#endif
 320:FreeRTOS/Source/tasks.c **** 
ARM GAS  /tmp/cckqXCjj.s 			page 9


 321:FreeRTOS/Source/tasks.c **** 	#if( INCLUDE_xTaskAbortDelay == 1 )
 322:FreeRTOS/Source/tasks.c **** 		uint8_t ucDelayAborted;
 323:FreeRTOS/Source/tasks.c **** 	#endif
 324:FreeRTOS/Source/tasks.c **** 
 325:FreeRTOS/Source/tasks.c **** 	#if( configUSE_POSIX_ERRNO == 1 )
 326:FreeRTOS/Source/tasks.c **** 		int iTaskErrno;
 327:FreeRTOS/Source/tasks.c **** 	#endif
 328:FreeRTOS/Source/tasks.c **** 
 329:FreeRTOS/Source/tasks.c **** } tskTCB;
 330:FreeRTOS/Source/tasks.c **** 
 331:FreeRTOS/Source/tasks.c **** /* The old tskTCB name is maintained above then typedefed to the new TCB_t name
 332:FreeRTOS/Source/tasks.c **** below to enable the use of older kernel aware debuggers. */
 333:FreeRTOS/Source/tasks.c **** typedef tskTCB TCB_t;
 334:FreeRTOS/Source/tasks.c **** 
 335:FreeRTOS/Source/tasks.c **** /*lint -save -e956 A manual analysis and inspection has been used to determine
 336:FreeRTOS/Source/tasks.c **** which static variables must be declared volatile. */
 337:FreeRTOS/Source/tasks.c **** PRIVILEGED_DATA TCB_t * volatile pxCurrentTCB = NULL;
 338:FreeRTOS/Source/tasks.c **** 
 339:FreeRTOS/Source/tasks.c **** /* Lists for ready and blocked tasks. --------------------
 340:FreeRTOS/Source/tasks.c **** xDelayedTaskList1 and xDelayedTaskList2 could be move to function scople but
 341:FreeRTOS/Source/tasks.c **** doing so breaks some kernel aware debuggers and debuggers that rely on removing
 342:FreeRTOS/Source/tasks.c **** the static qualifier. */
 343:FreeRTOS/Source/tasks.c **** PRIVILEGED_DATA static List_t pxReadyTasksLists[ configMAX_PRIORITIES ];/*< Prioritised ready tasks
 344:FreeRTOS/Source/tasks.c **** PRIVILEGED_DATA static List_t xDelayedTaskList1;						/*< Delayed tasks. */
 345:FreeRTOS/Source/tasks.c **** PRIVILEGED_DATA static List_t xDelayedTaskList2;						/*< Delayed tasks (two lists are used - one f
 346:FreeRTOS/Source/tasks.c **** PRIVILEGED_DATA static List_t * volatile pxDelayedTaskList;				/*< Points to the delayed task list 
 347:FreeRTOS/Source/tasks.c **** PRIVILEGED_DATA static List_t * volatile pxOverflowDelayedTaskList;		/*< Points to the delayed task
 348:FreeRTOS/Source/tasks.c **** PRIVILEGED_DATA static List_t xPendingReadyList;						/*< Tasks that have been readied while the sc
 349:FreeRTOS/Source/tasks.c **** 
 350:FreeRTOS/Source/tasks.c **** #if( INCLUDE_vTaskDelete == 1 )
 351:FreeRTOS/Source/tasks.c **** 
 352:FreeRTOS/Source/tasks.c **** 	PRIVILEGED_DATA static List_t xTasksWaitingTermination;				/*< Tasks that have been deleted - but 
 353:FreeRTOS/Source/tasks.c **** 	PRIVILEGED_DATA static volatile UBaseType_t uxDeletedTasksWaitingCleanUp = ( UBaseType_t ) 0U;
 354:FreeRTOS/Source/tasks.c **** 
 355:FreeRTOS/Source/tasks.c **** #endif
 356:FreeRTOS/Source/tasks.c **** 
 357:FreeRTOS/Source/tasks.c **** #if ( INCLUDE_vTaskSuspend == 1 )
 358:FreeRTOS/Source/tasks.c **** 
 359:FreeRTOS/Source/tasks.c **** 	PRIVILEGED_DATA static List_t xSuspendedTaskList;					/*< Tasks that are currently suspended. */
 360:FreeRTOS/Source/tasks.c **** 
 361:FreeRTOS/Source/tasks.c **** #endif
 362:FreeRTOS/Source/tasks.c **** 
 363:FreeRTOS/Source/tasks.c **** /* Global POSIX errno. Its value is changed upon context switching to match
 364:FreeRTOS/Source/tasks.c **** the errno of the currently running task. */
 365:FreeRTOS/Source/tasks.c **** #if ( configUSE_POSIX_ERRNO == 1 )
 366:FreeRTOS/Source/tasks.c **** 	int FreeRTOS_errno = 0;
 367:FreeRTOS/Source/tasks.c **** #endif
 368:FreeRTOS/Source/tasks.c **** 
 369:FreeRTOS/Source/tasks.c **** /* Other file private variables. --------------------------------*/
 370:FreeRTOS/Source/tasks.c **** PRIVILEGED_DATA static volatile UBaseType_t uxCurrentNumberOfTasks 	= ( UBaseType_t ) 0U;
 371:FreeRTOS/Source/tasks.c **** PRIVILEGED_DATA static volatile TickType_t xTickCount 				= ( TickType_t ) configINITIAL_TICK_COUNT
 372:FreeRTOS/Source/tasks.c **** PRIVILEGED_DATA static volatile UBaseType_t uxTopReadyPriority 		= tskIDLE_PRIORITY;
 373:FreeRTOS/Source/tasks.c **** PRIVILEGED_DATA static volatile BaseType_t xSchedulerRunning 		= pdFALSE;
 374:FreeRTOS/Source/tasks.c **** PRIVILEGED_DATA static volatile TickType_t xPendedTicks 			= ( TickType_t ) 0U;
 375:FreeRTOS/Source/tasks.c **** PRIVILEGED_DATA static volatile BaseType_t xYieldPending 			= pdFALSE;
 376:FreeRTOS/Source/tasks.c **** PRIVILEGED_DATA static volatile BaseType_t xNumOfOverflows 			= ( BaseType_t ) 0;
 377:FreeRTOS/Source/tasks.c **** PRIVILEGED_DATA static UBaseType_t uxTaskNumber 					= ( UBaseType_t ) 0U;
ARM GAS  /tmp/cckqXCjj.s 			page 10


 378:FreeRTOS/Source/tasks.c **** PRIVILEGED_DATA static volatile TickType_t xNextTaskUnblockTime		= ( TickType_t ) 0U; /* Initialise
 379:FreeRTOS/Source/tasks.c **** PRIVILEGED_DATA static TaskHandle_t xIdleTaskHandle					= NULL;			/*< Holds the handle of the idle 
 380:FreeRTOS/Source/tasks.c **** 
 381:FreeRTOS/Source/tasks.c **** /* Context switches are held pending while the scheduler is suspended.  Also,
 382:FreeRTOS/Source/tasks.c **** interrupts must not manipulate the xStateListItem of a TCB, or any of the
 383:FreeRTOS/Source/tasks.c **** lists the xStateListItem can be referenced from, if the scheduler is suspended.
 384:FreeRTOS/Source/tasks.c **** If an interrupt needs to unblock a task while the scheduler is suspended then it
 385:FreeRTOS/Source/tasks.c **** moves the task's event list item into the xPendingReadyList, ready for the
 386:FreeRTOS/Source/tasks.c **** kernel to move the task from the pending ready list into the real ready list
 387:FreeRTOS/Source/tasks.c **** when the scheduler is unsuspended.  The pending ready list itself can only be
 388:FreeRTOS/Source/tasks.c **** accessed from a critical section. */
 389:FreeRTOS/Source/tasks.c **** PRIVILEGED_DATA static volatile UBaseType_t uxSchedulerSuspended	= ( UBaseType_t ) pdFALSE;
 390:FreeRTOS/Source/tasks.c **** 
 391:FreeRTOS/Source/tasks.c **** #if ( configGENERATE_RUN_TIME_STATS == 1 )
 392:FreeRTOS/Source/tasks.c **** 
 393:FreeRTOS/Source/tasks.c **** 	/* Do not move these variables to function scope as doing so prevents the
 394:FreeRTOS/Source/tasks.c **** 	code working with debuggers that need to remove the static qualifier. */
 395:FreeRTOS/Source/tasks.c **** 	PRIVILEGED_DATA static uint32_t ulTaskSwitchedInTime = 0UL;	/*< Holds the value of a timer/counter
 396:FreeRTOS/Source/tasks.c **** 	PRIVILEGED_DATA static uint32_t ulTotalRunTime = 0UL;		/*< Holds the total amount of execution tim
 397:FreeRTOS/Source/tasks.c **** 
 398:FreeRTOS/Source/tasks.c **** #endif
 399:FreeRTOS/Source/tasks.c **** 
 400:FreeRTOS/Source/tasks.c **** /*lint -restore */
 401:FreeRTOS/Source/tasks.c **** 
 402:FreeRTOS/Source/tasks.c **** /*-----------------------------------------------------------*/
 403:FreeRTOS/Source/tasks.c **** 
 404:FreeRTOS/Source/tasks.c **** /* Callback function prototypes. --------------------------*/
 405:FreeRTOS/Source/tasks.c **** #if(  configCHECK_FOR_STACK_OVERFLOW > 0 )
 406:FreeRTOS/Source/tasks.c **** 
 407:FreeRTOS/Source/tasks.c **** 	extern void vApplicationStackOverflowHook( TaskHandle_t xTask, char *pcTaskName );
 408:FreeRTOS/Source/tasks.c **** 
 409:FreeRTOS/Source/tasks.c **** #endif
 410:FreeRTOS/Source/tasks.c **** 
 411:FreeRTOS/Source/tasks.c **** #if( configUSE_TICK_HOOK > 0 )
 412:FreeRTOS/Source/tasks.c **** 
 413:FreeRTOS/Source/tasks.c **** 	extern void vApplicationTickHook( void ); /*lint !e526 Symbol not defined as it is an application 
 414:FreeRTOS/Source/tasks.c **** 
 415:FreeRTOS/Source/tasks.c **** #endif
 416:FreeRTOS/Source/tasks.c **** 
 417:FreeRTOS/Source/tasks.c **** #if( configSUPPORT_STATIC_ALLOCATION == 1 )
 418:FreeRTOS/Source/tasks.c **** 
 419:FreeRTOS/Source/tasks.c **** 	extern void vApplicationGetIdleTaskMemory( StaticTask_t **ppxIdleTaskTCBBuffer, StackType_t **ppxI
 420:FreeRTOS/Source/tasks.c **** 
 421:FreeRTOS/Source/tasks.c **** #endif
 422:FreeRTOS/Source/tasks.c **** 
 423:FreeRTOS/Source/tasks.c **** /* File private functions. --------------------------------*/
 424:FreeRTOS/Source/tasks.c **** 
 425:FreeRTOS/Source/tasks.c **** /**
 426:FreeRTOS/Source/tasks.c ****  * Utility task that simply returns pdTRUE if the task referenced by xTask is
 427:FreeRTOS/Source/tasks.c ****  * currently in the Suspended state, or pdFALSE if the task referenced by xTask
 428:FreeRTOS/Source/tasks.c ****  * is in any other state.
 429:FreeRTOS/Source/tasks.c ****  */
 430:FreeRTOS/Source/tasks.c **** #if ( INCLUDE_vTaskSuspend == 1 )
 431:FreeRTOS/Source/tasks.c **** 
 432:FreeRTOS/Source/tasks.c **** 	static BaseType_t prvTaskIsTaskSuspended( const TaskHandle_t xTask ) PRIVILEGED_FUNCTION;
 433:FreeRTOS/Source/tasks.c **** 
 434:FreeRTOS/Source/tasks.c **** #endif /* INCLUDE_vTaskSuspend */
ARM GAS  /tmp/cckqXCjj.s 			page 11


 435:FreeRTOS/Source/tasks.c **** 
 436:FreeRTOS/Source/tasks.c **** /*
 437:FreeRTOS/Source/tasks.c ****  * Utility to ready all the lists used by the scheduler.  This is called
 438:FreeRTOS/Source/tasks.c ****  * automatically upon the creation of the first task.
 439:FreeRTOS/Source/tasks.c ****  */
 440:FreeRTOS/Source/tasks.c **** static void prvInitialiseTaskLists( void ) PRIVILEGED_FUNCTION;
 441:FreeRTOS/Source/tasks.c **** 
 442:FreeRTOS/Source/tasks.c **** /*
 443:FreeRTOS/Source/tasks.c ****  * The idle task, which as all tasks is implemented as a never ending loop.
 444:FreeRTOS/Source/tasks.c ****  * The idle task is automatically created and added to the ready lists upon
 445:FreeRTOS/Source/tasks.c ****  * creation of the first user task.
 446:FreeRTOS/Source/tasks.c ****  *
 447:FreeRTOS/Source/tasks.c ****  * The portTASK_FUNCTION_PROTO() macro is used to allow port/compiler specific
 448:FreeRTOS/Source/tasks.c ****  * language extensions.  The equivalent prototype for this function is:
 449:FreeRTOS/Source/tasks.c ****  *
 450:FreeRTOS/Source/tasks.c ****  * void prvIdleTask( void *pvParameters );
 451:FreeRTOS/Source/tasks.c ****  *
 452:FreeRTOS/Source/tasks.c ****  */
 453:FreeRTOS/Source/tasks.c **** static portTASK_FUNCTION_PROTO( prvIdleTask, pvParameters );
 454:FreeRTOS/Source/tasks.c **** 
 455:FreeRTOS/Source/tasks.c **** /*
 456:FreeRTOS/Source/tasks.c ****  * Utility to free all memory allocated by the scheduler to hold a TCB,
 457:FreeRTOS/Source/tasks.c ****  * including the stack pointed to by the TCB.
 458:FreeRTOS/Source/tasks.c ****  *
 459:FreeRTOS/Source/tasks.c ****  * This does not free memory allocated by the task itself (i.e. memory
 460:FreeRTOS/Source/tasks.c ****  * allocated by calls to pvPortMalloc from within the tasks application code).
 461:FreeRTOS/Source/tasks.c ****  */
 462:FreeRTOS/Source/tasks.c **** #if ( INCLUDE_vTaskDelete == 1 )
 463:FreeRTOS/Source/tasks.c **** 
 464:FreeRTOS/Source/tasks.c **** 	static void prvDeleteTCB( TCB_t *pxTCB ) PRIVILEGED_FUNCTION;
 465:FreeRTOS/Source/tasks.c **** 
 466:FreeRTOS/Source/tasks.c **** #endif
 467:FreeRTOS/Source/tasks.c **** 
 468:FreeRTOS/Source/tasks.c **** /*
 469:FreeRTOS/Source/tasks.c ****  * Used only by the idle task.  This checks to see if anything has been placed
 470:FreeRTOS/Source/tasks.c ****  * in the list of tasks waiting to be deleted.  If so the task is cleaned up
 471:FreeRTOS/Source/tasks.c ****  * and its TCB deleted.
 472:FreeRTOS/Source/tasks.c ****  */
 473:FreeRTOS/Source/tasks.c **** static void prvCheckTasksWaitingTermination( void ) PRIVILEGED_FUNCTION;
 474:FreeRTOS/Source/tasks.c **** 
 475:FreeRTOS/Source/tasks.c **** /*
 476:FreeRTOS/Source/tasks.c ****  * The currently executing task is entering the Blocked state.  Add the task to
 477:FreeRTOS/Source/tasks.c ****  * either the current or the overflow delayed task list.
 478:FreeRTOS/Source/tasks.c ****  */
 479:FreeRTOS/Source/tasks.c **** static void prvAddCurrentTaskToDelayedList( TickType_t xTicksToWait, const BaseType_t xCanBlockInde
 480:FreeRTOS/Source/tasks.c **** 
 481:FreeRTOS/Source/tasks.c **** /*
 482:FreeRTOS/Source/tasks.c ****  * Fills an TaskStatus_t structure with information on each task that is
 483:FreeRTOS/Source/tasks.c ****  * referenced from the pxList list (which may be a ready list, a delayed list,
 484:FreeRTOS/Source/tasks.c ****  * a suspended list, etc.).
 485:FreeRTOS/Source/tasks.c ****  *
 486:FreeRTOS/Source/tasks.c ****  * THIS FUNCTION IS INTENDED FOR DEBUGGING ONLY, AND SHOULD NOT BE CALLED FROM
 487:FreeRTOS/Source/tasks.c ****  * NORMAL APPLICATION CODE.
 488:FreeRTOS/Source/tasks.c ****  */
 489:FreeRTOS/Source/tasks.c **** #if ( configUSE_TRACE_FACILITY == 1 )
 490:FreeRTOS/Source/tasks.c **** 
 491:FreeRTOS/Source/tasks.c **** 	static UBaseType_t prvListTasksWithinSingleList( TaskStatus_t *pxTaskStatusArray, List_t *pxList, 
ARM GAS  /tmp/cckqXCjj.s 			page 12


 492:FreeRTOS/Source/tasks.c **** 
 493:FreeRTOS/Source/tasks.c **** #endif
 494:FreeRTOS/Source/tasks.c **** 
 495:FreeRTOS/Source/tasks.c **** /*
 496:FreeRTOS/Source/tasks.c ****  * Searches pxList for a task with name pcNameToQuery - returning a handle to
 497:FreeRTOS/Source/tasks.c ****  * the task if it is found, or NULL if the task is not found.
 498:FreeRTOS/Source/tasks.c ****  */
 499:FreeRTOS/Source/tasks.c **** #if ( INCLUDE_xTaskGetHandle == 1 )
 500:FreeRTOS/Source/tasks.c **** 
 501:FreeRTOS/Source/tasks.c **** 	static TCB_t *prvSearchForNameWithinSingleList( List_t *pxList, const char pcNameToQuery[] ) PRIVI
 502:FreeRTOS/Source/tasks.c **** 
 503:FreeRTOS/Source/tasks.c **** #endif
 504:FreeRTOS/Source/tasks.c **** 
 505:FreeRTOS/Source/tasks.c **** /*
 506:FreeRTOS/Source/tasks.c ****  * When a task is created, the stack of the task is filled with a known value.
 507:FreeRTOS/Source/tasks.c ****  * This function determines the 'high water mark' of the task stack by
 508:FreeRTOS/Source/tasks.c ****  * determining how much of the stack remains at the original preset value.
 509:FreeRTOS/Source/tasks.c ****  */
 510:FreeRTOS/Source/tasks.c **** #if ( ( configUSE_TRACE_FACILITY == 1 ) || ( INCLUDE_uxTaskGetStackHighWaterMark == 1 ) || ( INCLUD
 511:FreeRTOS/Source/tasks.c **** 
 512:FreeRTOS/Source/tasks.c **** 	static configSTACK_DEPTH_TYPE prvTaskCheckFreeStackSpace( const uint8_t * pucStackByte ) PRIVILEGE
 513:FreeRTOS/Source/tasks.c **** 
 514:FreeRTOS/Source/tasks.c **** #endif
 515:FreeRTOS/Source/tasks.c **** 
 516:FreeRTOS/Source/tasks.c **** /*
 517:FreeRTOS/Source/tasks.c ****  * Return the amount of time, in ticks, that will pass before the kernel will
 518:FreeRTOS/Source/tasks.c ****  * next move a task from the Blocked state to the Running state.
 519:FreeRTOS/Source/tasks.c ****  *
 520:FreeRTOS/Source/tasks.c ****  * This conditional compilation should use inequality to 0, not equality to 1.
 521:FreeRTOS/Source/tasks.c ****  * This is to ensure portSUPPRESS_TICKS_AND_SLEEP() can be called when user
 522:FreeRTOS/Source/tasks.c ****  * defined low power mode implementations require configUSE_TICKLESS_IDLE to be
 523:FreeRTOS/Source/tasks.c ****  * set to a value other than 1.
 524:FreeRTOS/Source/tasks.c ****  */
 525:FreeRTOS/Source/tasks.c **** #if ( configUSE_TICKLESS_IDLE != 0 )
 526:FreeRTOS/Source/tasks.c **** 
 527:FreeRTOS/Source/tasks.c **** 	static TickType_t prvGetExpectedIdleTime( void ) PRIVILEGED_FUNCTION;
 528:FreeRTOS/Source/tasks.c **** 
 529:FreeRTOS/Source/tasks.c **** #endif
 530:FreeRTOS/Source/tasks.c **** 
 531:FreeRTOS/Source/tasks.c **** /*
 532:FreeRTOS/Source/tasks.c ****  * Set xNextTaskUnblockTime to the time at which the next Blocked state task
 533:FreeRTOS/Source/tasks.c ****  * will exit the Blocked state.
 534:FreeRTOS/Source/tasks.c ****  */
 535:FreeRTOS/Source/tasks.c **** static void prvResetNextTaskUnblockTime( void );
 536:FreeRTOS/Source/tasks.c **** 
 537:FreeRTOS/Source/tasks.c **** #if ( ( configUSE_TRACE_FACILITY == 1 ) && ( configUSE_STATS_FORMATTING_FUNCTIONS > 0 ) )
 538:FreeRTOS/Source/tasks.c **** 
 539:FreeRTOS/Source/tasks.c **** 	/*
 540:FreeRTOS/Source/tasks.c **** 	 * Helper function used to pad task names with spaces when printing out
 541:FreeRTOS/Source/tasks.c **** 	 * human readable tables of task information.
 542:FreeRTOS/Source/tasks.c **** 	 */
 543:FreeRTOS/Source/tasks.c **** 	static char *prvWriteNameToBuffer( char *pcBuffer, const char *pcTaskName ) PRIVILEGED_FUNCTION;
 544:FreeRTOS/Source/tasks.c **** 
 545:FreeRTOS/Source/tasks.c **** #endif
 546:FreeRTOS/Source/tasks.c **** 
 547:FreeRTOS/Source/tasks.c **** /*
 548:FreeRTOS/Source/tasks.c ****  * Called after a Task_t structure has been allocated either statically or
ARM GAS  /tmp/cckqXCjj.s 			page 13


 549:FreeRTOS/Source/tasks.c ****  * dynamically to fill in the structure's members.
 550:FreeRTOS/Source/tasks.c ****  */
 551:FreeRTOS/Source/tasks.c **** static void prvInitialiseNewTask( 	TaskFunction_t pxTaskCode,
 552:FreeRTOS/Source/tasks.c **** 									const char * const pcName, 		/*lint !e971 Unqualified char types are allowed for strings a
 553:FreeRTOS/Source/tasks.c **** 									const uint32_t ulStackDepth,
 554:FreeRTOS/Source/tasks.c **** 									void * const pvParameters,
 555:FreeRTOS/Source/tasks.c **** 									UBaseType_t uxPriority,
 556:FreeRTOS/Source/tasks.c **** 									TaskHandle_t * const pxCreatedTask,
 557:FreeRTOS/Source/tasks.c **** 									TCB_t *pxNewTCB,
 558:FreeRTOS/Source/tasks.c **** 									const MemoryRegion_t * const xRegions ) PRIVILEGED_FUNCTION;
 559:FreeRTOS/Source/tasks.c **** 
 560:FreeRTOS/Source/tasks.c **** /*
 561:FreeRTOS/Source/tasks.c ****  * Called after a new task has been created and initialised to place the task
 562:FreeRTOS/Source/tasks.c ****  * under the control of the scheduler.
 563:FreeRTOS/Source/tasks.c ****  */
 564:FreeRTOS/Source/tasks.c **** static void prvAddNewTaskToReadyList( TCB_t *pxNewTCB ) PRIVILEGED_FUNCTION;
 565:FreeRTOS/Source/tasks.c **** 
 566:FreeRTOS/Source/tasks.c **** /*
 567:FreeRTOS/Source/tasks.c ****  * freertos_tasks_c_additions_init() should only be called if the user definable
 568:FreeRTOS/Source/tasks.c ****  * macro FREERTOS_TASKS_C_ADDITIONS_INIT() is defined, as that is the only macro
 569:FreeRTOS/Source/tasks.c ****  * called by the function.
 570:FreeRTOS/Source/tasks.c ****  */
 571:FreeRTOS/Source/tasks.c **** #ifdef FREERTOS_TASKS_C_ADDITIONS_INIT
 572:FreeRTOS/Source/tasks.c **** 
 573:FreeRTOS/Source/tasks.c **** 	static void freertos_tasks_c_additions_init( void ) PRIVILEGED_FUNCTION;
 574:FreeRTOS/Source/tasks.c **** 
 575:FreeRTOS/Source/tasks.c **** #endif
 576:FreeRTOS/Source/tasks.c **** 
 577:FreeRTOS/Source/tasks.c **** /*-----------------------------------------------------------*/
 578:FreeRTOS/Source/tasks.c **** 
 579:FreeRTOS/Source/tasks.c **** #if( configSUPPORT_STATIC_ALLOCATION == 1 )
 580:FreeRTOS/Source/tasks.c **** 
 581:FreeRTOS/Source/tasks.c **** 	TaskHandle_t xTaskCreateStatic(	TaskFunction_t pxTaskCode,
 582:FreeRTOS/Source/tasks.c **** 									const char * const pcName,		/*lint !e971 Unqualified char types are allowed for strings an
 583:FreeRTOS/Source/tasks.c **** 									const uint32_t ulStackDepth,
 584:FreeRTOS/Source/tasks.c **** 									void * const pvParameters,
 585:FreeRTOS/Source/tasks.c **** 									UBaseType_t uxPriority,
 586:FreeRTOS/Source/tasks.c **** 									StackType_t * const puxStackBuffer,
 587:FreeRTOS/Source/tasks.c **** 									StaticTask_t * const pxTaskBuffer )
 588:FreeRTOS/Source/tasks.c **** 	{
 589:FreeRTOS/Source/tasks.c **** 	TCB_t *pxNewTCB;
 590:FreeRTOS/Source/tasks.c **** 	TaskHandle_t xReturn;
 591:FreeRTOS/Source/tasks.c **** 
 592:FreeRTOS/Source/tasks.c **** 		configASSERT( puxStackBuffer != NULL );
 593:FreeRTOS/Source/tasks.c **** 		configASSERT( pxTaskBuffer != NULL );
 594:FreeRTOS/Source/tasks.c **** 
 595:FreeRTOS/Source/tasks.c **** 		#if( configASSERT_DEFINED == 1 )
 596:FreeRTOS/Source/tasks.c **** 		{
 597:FreeRTOS/Source/tasks.c **** 			/* Sanity check that the size of the structure used to declare a
 598:FreeRTOS/Source/tasks.c **** 			variable of type StaticTask_t equals the size of the real task
 599:FreeRTOS/Source/tasks.c **** 			structure. */
 600:FreeRTOS/Source/tasks.c **** 			volatile size_t xSize = sizeof( StaticTask_t );
 601:FreeRTOS/Source/tasks.c **** 			configASSERT( xSize == sizeof( TCB_t ) );
 602:FreeRTOS/Source/tasks.c **** 			( void ) xSize; /* Prevent lint warning when configASSERT() is not used. */
 603:FreeRTOS/Source/tasks.c **** 		}
 604:FreeRTOS/Source/tasks.c **** 		#endif /* configASSERT_DEFINED */
 605:FreeRTOS/Source/tasks.c **** 
ARM GAS  /tmp/cckqXCjj.s 			page 14


 606:FreeRTOS/Source/tasks.c **** 
 607:FreeRTOS/Source/tasks.c **** 		if( ( pxTaskBuffer != NULL ) && ( puxStackBuffer != NULL ) )
 608:FreeRTOS/Source/tasks.c **** 		{
 609:FreeRTOS/Source/tasks.c **** 			/* The memory used for the task's TCB and stack are passed into this
 610:FreeRTOS/Source/tasks.c **** 			function - use them. */
 611:FreeRTOS/Source/tasks.c **** 			pxNewTCB = ( TCB_t * ) pxTaskBuffer; /*lint !e740 !e9087 Unusual cast is ok as the structures ar
 612:FreeRTOS/Source/tasks.c **** 			pxNewTCB->pxStack = ( StackType_t * ) puxStackBuffer;
 613:FreeRTOS/Source/tasks.c **** 
 614:FreeRTOS/Source/tasks.c **** 			#if( tskSTATIC_AND_DYNAMIC_ALLOCATION_POSSIBLE != 0 ) /*lint !e731 !e9029 Macro has been consoli
 615:FreeRTOS/Source/tasks.c **** 			{
 616:FreeRTOS/Source/tasks.c **** 				/* Tasks can be created statically or dynamically, so note this
 617:FreeRTOS/Source/tasks.c **** 				task was created statically in case the task is later deleted. */
 618:FreeRTOS/Source/tasks.c **** 				pxNewTCB->ucStaticallyAllocated = tskSTATICALLY_ALLOCATED_STACK_AND_TCB;
 619:FreeRTOS/Source/tasks.c **** 			}
 620:FreeRTOS/Source/tasks.c **** 			#endif /* tskSTATIC_AND_DYNAMIC_ALLOCATION_POSSIBLE */
 621:FreeRTOS/Source/tasks.c **** 
 622:FreeRTOS/Source/tasks.c **** 			prvInitialiseNewTask( pxTaskCode, pcName, ulStackDepth, pvParameters, uxPriority, &xReturn, pxNe
 623:FreeRTOS/Source/tasks.c **** 			prvAddNewTaskToReadyList( pxNewTCB );
 624:FreeRTOS/Source/tasks.c **** 		}
 625:FreeRTOS/Source/tasks.c **** 		else
 626:FreeRTOS/Source/tasks.c **** 		{
 627:FreeRTOS/Source/tasks.c **** 			xReturn = NULL;
 628:FreeRTOS/Source/tasks.c **** 		}
 629:FreeRTOS/Source/tasks.c **** 
 630:FreeRTOS/Source/tasks.c **** 		return xReturn;
 631:FreeRTOS/Source/tasks.c **** 	}
 632:FreeRTOS/Source/tasks.c **** 
 633:FreeRTOS/Source/tasks.c **** #endif /* SUPPORT_STATIC_ALLOCATION */
 634:FreeRTOS/Source/tasks.c **** /*-----------------------------------------------------------*/
 635:FreeRTOS/Source/tasks.c **** 
 636:FreeRTOS/Source/tasks.c **** #if( ( portUSING_MPU_WRAPPERS == 1 ) && ( configSUPPORT_STATIC_ALLOCATION == 1 ) )
 637:FreeRTOS/Source/tasks.c **** 
 638:FreeRTOS/Source/tasks.c **** 	BaseType_t xTaskCreateRestrictedStatic( const TaskParameters_t * const pxTaskDefinition, TaskHandl
 639:FreeRTOS/Source/tasks.c **** 	{
 640:FreeRTOS/Source/tasks.c **** 	TCB_t *pxNewTCB;
 641:FreeRTOS/Source/tasks.c **** 	BaseType_t xReturn = errCOULD_NOT_ALLOCATE_REQUIRED_MEMORY;
 642:FreeRTOS/Source/tasks.c **** 
 643:FreeRTOS/Source/tasks.c **** 		configASSERT( pxTaskDefinition->puxStackBuffer != NULL );
 644:FreeRTOS/Source/tasks.c **** 		configASSERT( pxTaskDefinition->pxTaskBuffer != NULL );
 645:FreeRTOS/Source/tasks.c **** 
 646:FreeRTOS/Source/tasks.c **** 		if( ( pxTaskDefinition->puxStackBuffer != NULL ) && ( pxTaskDefinition->pxTaskBuffer != NULL ) )
 647:FreeRTOS/Source/tasks.c **** 		{
 648:FreeRTOS/Source/tasks.c **** 			/* Allocate space for the TCB.  Where the memory comes from depends
 649:FreeRTOS/Source/tasks.c **** 			on the implementation of the port malloc function and whether or
 650:FreeRTOS/Source/tasks.c **** 			not static allocation is being used. */
 651:FreeRTOS/Source/tasks.c **** 			pxNewTCB = ( TCB_t * ) pxTaskDefinition->pxTaskBuffer;
 652:FreeRTOS/Source/tasks.c **** 
 653:FreeRTOS/Source/tasks.c **** 			/* Store the stack location in the TCB. */
 654:FreeRTOS/Source/tasks.c **** 			pxNewTCB->pxStack = pxTaskDefinition->puxStackBuffer;
 655:FreeRTOS/Source/tasks.c **** 
 656:FreeRTOS/Source/tasks.c **** 			#if( tskSTATIC_AND_DYNAMIC_ALLOCATION_POSSIBLE != 0 )
 657:FreeRTOS/Source/tasks.c **** 			{
 658:FreeRTOS/Source/tasks.c **** 				/* Tasks can be created statically or dynamically, so note this
 659:FreeRTOS/Source/tasks.c **** 				task was created statically in case the task is later deleted. */
 660:FreeRTOS/Source/tasks.c **** 				pxNewTCB->ucStaticallyAllocated = tskSTATICALLY_ALLOCATED_STACK_AND_TCB;
 661:FreeRTOS/Source/tasks.c **** 			}
 662:FreeRTOS/Source/tasks.c **** 			#endif /* tskSTATIC_AND_DYNAMIC_ALLOCATION_POSSIBLE */
ARM GAS  /tmp/cckqXCjj.s 			page 15


 663:FreeRTOS/Source/tasks.c **** 
 664:FreeRTOS/Source/tasks.c **** 			prvInitialiseNewTask(	pxTaskDefinition->pvTaskCode,
 665:FreeRTOS/Source/tasks.c **** 									pxTaskDefinition->pcName,
 666:FreeRTOS/Source/tasks.c **** 									( uint32_t ) pxTaskDefinition->usStackDepth,
 667:FreeRTOS/Source/tasks.c **** 									pxTaskDefinition->pvParameters,
 668:FreeRTOS/Source/tasks.c **** 									pxTaskDefinition->uxPriority,
 669:FreeRTOS/Source/tasks.c **** 									pxCreatedTask, pxNewTCB,
 670:FreeRTOS/Source/tasks.c **** 									pxTaskDefinition->xRegions );
 671:FreeRTOS/Source/tasks.c **** 
 672:FreeRTOS/Source/tasks.c **** 			prvAddNewTaskToReadyList( pxNewTCB );
 673:FreeRTOS/Source/tasks.c **** 			xReturn = pdPASS;
 674:FreeRTOS/Source/tasks.c **** 		}
 675:FreeRTOS/Source/tasks.c **** 
 676:FreeRTOS/Source/tasks.c **** 		return xReturn;
 677:FreeRTOS/Source/tasks.c **** 	}
 678:FreeRTOS/Source/tasks.c **** 
 679:FreeRTOS/Source/tasks.c **** #endif /* ( portUSING_MPU_WRAPPERS == 1 ) && ( configSUPPORT_STATIC_ALLOCATION == 1 ) */
 680:FreeRTOS/Source/tasks.c **** /*-----------------------------------------------------------*/
 681:FreeRTOS/Source/tasks.c **** 
 682:FreeRTOS/Source/tasks.c **** #if( ( portUSING_MPU_WRAPPERS == 1 ) && ( configSUPPORT_DYNAMIC_ALLOCATION == 1 ) )
 683:FreeRTOS/Source/tasks.c **** 
 684:FreeRTOS/Source/tasks.c **** 	BaseType_t xTaskCreateRestricted( const TaskParameters_t * const pxTaskDefinition, TaskHandle_t *p
 685:FreeRTOS/Source/tasks.c **** 	{
 686:FreeRTOS/Source/tasks.c **** 	TCB_t *pxNewTCB;
 687:FreeRTOS/Source/tasks.c **** 	BaseType_t xReturn = errCOULD_NOT_ALLOCATE_REQUIRED_MEMORY;
 688:FreeRTOS/Source/tasks.c **** 
 689:FreeRTOS/Source/tasks.c **** 		configASSERT( pxTaskDefinition->puxStackBuffer );
 690:FreeRTOS/Source/tasks.c **** 
 691:FreeRTOS/Source/tasks.c **** 		if( pxTaskDefinition->puxStackBuffer != NULL )
 692:FreeRTOS/Source/tasks.c **** 		{
 693:FreeRTOS/Source/tasks.c **** 			/* Allocate space for the TCB.  Where the memory comes from depends
 694:FreeRTOS/Source/tasks.c **** 			on the implementation of the port malloc function and whether or
 695:FreeRTOS/Source/tasks.c **** 			not static allocation is being used. */
 696:FreeRTOS/Source/tasks.c **** 			pxNewTCB = ( TCB_t * ) pvPortMalloc( sizeof( TCB_t ) );
 697:FreeRTOS/Source/tasks.c **** 
 698:FreeRTOS/Source/tasks.c **** 			if( pxNewTCB != NULL )
 699:FreeRTOS/Source/tasks.c **** 			{
 700:FreeRTOS/Source/tasks.c **** 				/* Store the stack location in the TCB. */
 701:FreeRTOS/Source/tasks.c **** 				pxNewTCB->pxStack = pxTaskDefinition->puxStackBuffer;
 702:FreeRTOS/Source/tasks.c **** 
 703:FreeRTOS/Source/tasks.c **** 				#if( tskSTATIC_AND_DYNAMIC_ALLOCATION_POSSIBLE != 0 )
 704:FreeRTOS/Source/tasks.c **** 				{
 705:FreeRTOS/Source/tasks.c **** 					/* Tasks can be created statically or dynamically, so note
 706:FreeRTOS/Source/tasks.c **** 					this task had a statically allocated stack in case it is
 707:FreeRTOS/Source/tasks.c **** 					later deleted.  The TCB was allocated dynamically. */
 708:FreeRTOS/Source/tasks.c **** 					pxNewTCB->ucStaticallyAllocated = tskSTATICALLY_ALLOCATED_STACK_ONLY;
 709:FreeRTOS/Source/tasks.c **** 				}
 710:FreeRTOS/Source/tasks.c **** 				#endif /* tskSTATIC_AND_DYNAMIC_ALLOCATION_POSSIBLE */
 711:FreeRTOS/Source/tasks.c **** 
 712:FreeRTOS/Source/tasks.c **** 				prvInitialiseNewTask(	pxTaskDefinition->pvTaskCode,
 713:FreeRTOS/Source/tasks.c **** 										pxTaskDefinition->pcName,
 714:FreeRTOS/Source/tasks.c **** 										( uint32_t ) pxTaskDefinition->usStackDepth,
 715:FreeRTOS/Source/tasks.c **** 										pxTaskDefinition->pvParameters,
 716:FreeRTOS/Source/tasks.c **** 										pxTaskDefinition->uxPriority,
 717:FreeRTOS/Source/tasks.c **** 										pxCreatedTask, pxNewTCB,
 718:FreeRTOS/Source/tasks.c **** 										pxTaskDefinition->xRegions );
 719:FreeRTOS/Source/tasks.c **** 
ARM GAS  /tmp/cckqXCjj.s 			page 16


 720:FreeRTOS/Source/tasks.c **** 				prvAddNewTaskToReadyList( pxNewTCB );
 721:FreeRTOS/Source/tasks.c **** 				xReturn = pdPASS;
 722:FreeRTOS/Source/tasks.c **** 			}
 723:FreeRTOS/Source/tasks.c **** 		}
 724:FreeRTOS/Source/tasks.c **** 
 725:FreeRTOS/Source/tasks.c **** 		return xReturn;
 726:FreeRTOS/Source/tasks.c **** 	}
 727:FreeRTOS/Source/tasks.c **** 
 728:FreeRTOS/Source/tasks.c **** #endif /* portUSING_MPU_WRAPPERS */
 729:FreeRTOS/Source/tasks.c **** /*-----------------------------------------------------------*/
 730:FreeRTOS/Source/tasks.c **** 
 731:FreeRTOS/Source/tasks.c **** #if( configSUPPORT_DYNAMIC_ALLOCATION == 1 )
 732:FreeRTOS/Source/tasks.c **** 
 733:FreeRTOS/Source/tasks.c **** 	BaseType_t xTaskCreate(	TaskFunction_t pxTaskCode,
 734:FreeRTOS/Source/tasks.c **** 							const char * const pcName,		/*lint !e971 Unqualified char types are allowed for strings and 
 735:FreeRTOS/Source/tasks.c **** 							const configSTACK_DEPTH_TYPE usStackDepth,
 736:FreeRTOS/Source/tasks.c **** 							void * const pvParameters,
 737:FreeRTOS/Source/tasks.c **** 							UBaseType_t uxPriority,
 738:FreeRTOS/Source/tasks.c **** 							TaskHandle_t * const pxCreatedTask )
 739:FreeRTOS/Source/tasks.c **** 	{
 113              		.loc 1 739 0
 114              		.cfi_startproc
 115              		@ args = 8, pretend = 0, frame = 32
 116              		@ frame_needed = 1, uses_anonymous_args = 0
 117 0000 80B5     		push	{r7, lr}
 118              		.cfi_def_cfa_offset 8
 119              		.cfi_offset 7, -8
 120              		.cfi_offset 14, -4
 121 0002 8CB0     		sub	sp, sp, #48
 122              		.cfi_def_cfa_offset 56
 123 0004 04AF     		add	r7, sp, #16
 124              		.cfi_def_cfa 7, 40
 125 0006 F860     		str	r0, [r7, #12]
 126 0008 B960     		str	r1, [r7, #8]
 127 000a 3B60     		str	r3, [r7]
 128 000c 1346     		mov	r3, r2	@ movhi
 129 000e FB80     		strh	r3, [r7, #6]	@ movhi
 130              	.LBB26:
 740:FreeRTOS/Source/tasks.c **** 	TCB_t *pxNewTCB;
 741:FreeRTOS/Source/tasks.c **** 	BaseType_t xReturn;
 742:FreeRTOS/Source/tasks.c **** 
 743:FreeRTOS/Source/tasks.c **** 		/* If the stack grows down then allocate the stack then the TCB so the stack
 744:FreeRTOS/Source/tasks.c **** 		does not grow into the TCB.  Likewise if the stack grows up then allocate
 745:FreeRTOS/Source/tasks.c **** 		the TCB then the stack. */
 746:FreeRTOS/Source/tasks.c **** 		#if( portSTACK_GROWTH > 0 )
 747:FreeRTOS/Source/tasks.c **** 		{
 748:FreeRTOS/Source/tasks.c **** 			/* Allocate space for the TCB.  Where the memory comes from depends on
 749:FreeRTOS/Source/tasks.c **** 			the implementation of the port malloc function and whether or not static
 750:FreeRTOS/Source/tasks.c **** 			allocation is being used. */
 751:FreeRTOS/Source/tasks.c **** 			pxNewTCB = ( TCB_t * ) pvPortMalloc( sizeof( TCB_t ) );
 752:FreeRTOS/Source/tasks.c **** 
 753:FreeRTOS/Source/tasks.c **** 			if( pxNewTCB != NULL )
 754:FreeRTOS/Source/tasks.c **** 			{
 755:FreeRTOS/Source/tasks.c **** 				/* Allocate space for the stack used by the task being created.
 756:FreeRTOS/Source/tasks.c **** 				The base of the stack memory stored in the TCB so the task can
 757:FreeRTOS/Source/tasks.c **** 				be deleted later if required. */
 758:FreeRTOS/Source/tasks.c **** 				pxNewTCB->pxStack = ( StackType_t * ) pvPortMalloc( ( ( ( size_t ) usStackDepth ) * sizeof( Sta
ARM GAS  /tmp/cckqXCjj.s 			page 17


 759:FreeRTOS/Source/tasks.c **** 
 760:FreeRTOS/Source/tasks.c **** 				if( pxNewTCB->pxStack == NULL )
 761:FreeRTOS/Source/tasks.c **** 				{
 762:FreeRTOS/Source/tasks.c **** 					/* Could not allocate the stack.  Delete the allocated TCB. */
 763:FreeRTOS/Source/tasks.c **** 					vPortFree( pxNewTCB );
 764:FreeRTOS/Source/tasks.c **** 					pxNewTCB = NULL;
 765:FreeRTOS/Source/tasks.c **** 				}
 766:FreeRTOS/Source/tasks.c **** 			}
 767:FreeRTOS/Source/tasks.c **** 		}
 768:FreeRTOS/Source/tasks.c **** 		#else /* portSTACK_GROWTH */
 769:FreeRTOS/Source/tasks.c **** 		{
 770:FreeRTOS/Source/tasks.c **** 		StackType_t *pxStack;
 771:FreeRTOS/Source/tasks.c **** 
 772:FreeRTOS/Source/tasks.c **** 			/* Allocate space for the stack used by the task being created. */
 773:FreeRTOS/Source/tasks.c **** 			pxStack = pvPortMalloc( ( ( ( size_t ) usStackDepth ) * sizeof( StackType_t ) ) ); /*lint !e9079
 131              		.loc 1 773 0
 132 0010 FB88     		ldrh	r3, [r7, #6]
 133 0012 9B00     		lsls	r3, r3, #2
 134 0014 1846     		mov	r0, r3
 135 0016 FFF7FEFF 		bl	pvPortMalloc
 136 001a 7861     		str	r0, [r7, #20]
 774:FreeRTOS/Source/tasks.c **** 
 775:FreeRTOS/Source/tasks.c **** 			if( pxStack != NULL )
 137              		.loc 1 775 0
 138 001c 7B69     		ldr	r3, [r7, #20]
 139 001e 002B     		cmp	r3, #0
 140 0020 0ED0     		beq	.L2
 776:FreeRTOS/Source/tasks.c **** 			{
 777:FreeRTOS/Source/tasks.c **** 				/* Allocate space for the TCB. */
 778:FreeRTOS/Source/tasks.c **** 				pxNewTCB = ( TCB_t * ) pvPortMalloc( sizeof( TCB_t ) ); /*lint !e9087 !e9079 All values returne
 141              		.loc 1 778 0
 142 0022 4C20     		movs	r0, #76
 143 0024 FFF7FEFF 		bl	pvPortMalloc
 144 0028 F861     		str	r0, [r7, #28]
 779:FreeRTOS/Source/tasks.c **** 
 780:FreeRTOS/Source/tasks.c **** 				if( pxNewTCB != NULL )
 145              		.loc 1 780 0
 146 002a FB69     		ldr	r3, [r7, #28]
 147 002c 002B     		cmp	r3, #0
 148 002e 03D0     		beq	.L3
 781:FreeRTOS/Source/tasks.c **** 				{
 782:FreeRTOS/Source/tasks.c **** 					/* Store the stack location in the TCB. */
 783:FreeRTOS/Source/tasks.c **** 					pxNewTCB->pxStack = pxStack;
 149              		.loc 1 783 0
 150 0030 FB69     		ldr	r3, [r7, #28]
 151 0032 7A69     		ldr	r2, [r7, #20]
 152 0034 1A63     		str	r2, [r3, #48]
 153 0036 05E0     		b	.L5
 154              	.L3:
 784:FreeRTOS/Source/tasks.c **** 				}
 785:FreeRTOS/Source/tasks.c **** 				else
 786:FreeRTOS/Source/tasks.c **** 				{
 787:FreeRTOS/Source/tasks.c **** 					/* The stack cannot be used as the TCB was not created.  Free
 788:FreeRTOS/Source/tasks.c **** 					it again. */
 789:FreeRTOS/Source/tasks.c **** 					vPortFree( pxStack );
 155              		.loc 1 789 0
 156 0038 7869     		ldr	r0, [r7, #20]
ARM GAS  /tmp/cckqXCjj.s 			page 18


 157 003a FFF7FEFF 		bl	vPortFree
 158 003e 01E0     		b	.L5
 159              	.L2:
 790:FreeRTOS/Source/tasks.c **** 				}
 791:FreeRTOS/Source/tasks.c **** 			}
 792:FreeRTOS/Source/tasks.c **** 			else
 793:FreeRTOS/Source/tasks.c **** 			{
 794:FreeRTOS/Source/tasks.c **** 				pxNewTCB = NULL;
 160              		.loc 1 794 0
 161 0040 0023     		movs	r3, #0
 162 0042 FB61     		str	r3, [r7, #28]
 163              	.L5:
 164              	.LBE26:
 795:FreeRTOS/Source/tasks.c **** 			}
 796:FreeRTOS/Source/tasks.c **** 		}
 797:FreeRTOS/Source/tasks.c **** 		#endif /* portSTACK_GROWTH */
 798:FreeRTOS/Source/tasks.c **** 
 799:FreeRTOS/Source/tasks.c **** 		if( pxNewTCB != NULL )
 165              		.loc 1 799 0
 166 0044 FB69     		ldr	r3, [r7, #28]
 167 0046 002B     		cmp	r3, #0
 168 0048 13D0     		beq	.L6
 800:FreeRTOS/Source/tasks.c **** 		{
 801:FreeRTOS/Source/tasks.c **** 			#if( tskSTATIC_AND_DYNAMIC_ALLOCATION_POSSIBLE != 0 ) /*lint !e9029 !e731 Macro has been consoli
 802:FreeRTOS/Source/tasks.c **** 			{
 803:FreeRTOS/Source/tasks.c **** 				/* Tasks can be created statically or dynamically, so note this
 804:FreeRTOS/Source/tasks.c **** 				task was created dynamically in case it is later deleted. */
 805:FreeRTOS/Source/tasks.c **** 				pxNewTCB->ucStaticallyAllocated = tskDYNAMICALLY_ALLOCATED_STACK_AND_TCB;
 806:FreeRTOS/Source/tasks.c **** 			}
 807:FreeRTOS/Source/tasks.c **** 			#endif /* tskSTATIC_AND_DYNAMIC_ALLOCATION_POSSIBLE */
 808:FreeRTOS/Source/tasks.c **** 
 809:FreeRTOS/Source/tasks.c **** 			prvInitialiseNewTask( pxTaskCode, pcName, ( uint32_t ) usStackDepth, pvParameters, uxPriority, p
 169              		.loc 1 809 0
 170 004a FA88     		ldrh	r2, [r7, #6]
 171 004c 0023     		movs	r3, #0
 172 004e 0393     		str	r3, [sp, #12]
 173 0050 FB69     		ldr	r3, [r7, #28]
 174 0052 0293     		str	r3, [sp, #8]
 175 0054 FB6A     		ldr	r3, [r7, #44]
 176 0056 0193     		str	r3, [sp, #4]
 177 0058 BB6A     		ldr	r3, [r7, #40]
 178 005a 0093     		str	r3, [sp]
 179 005c 3B68     		ldr	r3, [r7]
 180 005e B968     		ldr	r1, [r7, #8]
 181 0060 F868     		ldr	r0, [r7, #12]
 182 0062 00F00EF8 		bl	prvInitialiseNewTask
 810:FreeRTOS/Source/tasks.c **** 			prvAddNewTaskToReadyList( pxNewTCB );
 183              		.loc 1 810 0
 184 0066 F869     		ldr	r0, [r7, #28]
 185 0068 00F07CF8 		bl	prvAddNewTaskToReadyList
 811:FreeRTOS/Source/tasks.c **** 			xReturn = pdPASS;
 186              		.loc 1 811 0
 187 006c 0123     		movs	r3, #1
 188 006e BB61     		str	r3, [r7, #24]
 189 0070 02E0     		b	.L7
 190              	.L6:
 812:FreeRTOS/Source/tasks.c **** 		}
ARM GAS  /tmp/cckqXCjj.s 			page 19


 813:FreeRTOS/Source/tasks.c **** 		else
 814:FreeRTOS/Source/tasks.c **** 		{
 815:FreeRTOS/Source/tasks.c **** 			xReturn = errCOULD_NOT_ALLOCATE_REQUIRED_MEMORY;
 191              		.loc 1 815 0
 192 0072 4FF0FF33 		mov	r3, #-1
 193 0076 BB61     		str	r3, [r7, #24]
 194              	.L7:
 816:FreeRTOS/Source/tasks.c **** 		}
 817:FreeRTOS/Source/tasks.c **** 
 818:FreeRTOS/Source/tasks.c **** 		return xReturn;
 195              		.loc 1 818 0
 196 0078 BB69     		ldr	r3, [r7, #24]
 819:FreeRTOS/Source/tasks.c **** 	}
 197              		.loc 1 819 0
 198 007a 1846     		mov	r0, r3
 199 007c 2037     		adds	r7, r7, #32
 200              		.cfi_def_cfa_offset 8
 201 007e BD46     		mov	sp, r7
 202              		.cfi_def_cfa_register 13
 203              		@ sp needed
 204 0080 80BD     		pop	{r7, pc}
 205              		.cfi_endproc
 206              	.LFE5:
 207              		.size	xTaskCreate, .-xTaskCreate
 208              		.align	1
 209              		.syntax unified
 210              		.thumb
 211              		.thumb_func
 212              		.fpu softvfp
 213              		.type	prvInitialiseNewTask, %function
 214              	prvInitialiseNewTask:
 215              	.LFB6:
 820:FreeRTOS/Source/tasks.c **** 
 821:FreeRTOS/Source/tasks.c **** #endif /* configSUPPORT_DYNAMIC_ALLOCATION */
 822:FreeRTOS/Source/tasks.c **** /*-----------------------------------------------------------*/
 823:FreeRTOS/Source/tasks.c **** 
 824:FreeRTOS/Source/tasks.c **** static void prvInitialiseNewTask( 	TaskFunction_t pxTaskCode,
 825:FreeRTOS/Source/tasks.c **** 									const char * const pcName,		/*lint !e971 Unqualified char types are allowed for strings an
 826:FreeRTOS/Source/tasks.c **** 									const uint32_t ulStackDepth,
 827:FreeRTOS/Source/tasks.c **** 									void * const pvParameters,
 828:FreeRTOS/Source/tasks.c **** 									UBaseType_t uxPriority,
 829:FreeRTOS/Source/tasks.c **** 									TaskHandle_t * const pxCreatedTask,
 830:FreeRTOS/Source/tasks.c **** 									TCB_t *pxNewTCB,
 831:FreeRTOS/Source/tasks.c **** 									const MemoryRegion_t * const xRegions )
 832:FreeRTOS/Source/tasks.c **** {
 216              		.loc 1 832 0
 217              		.cfi_startproc
 218              		@ args = 16, pretend = 0, frame = 24
 219              		@ frame_needed = 1, uses_anonymous_args = 0
 220 0082 80B5     		push	{r7, lr}
 221              		.cfi_def_cfa_offset 8
 222              		.cfi_offset 7, -8
 223              		.cfi_offset 14, -4
 224 0084 86B0     		sub	sp, sp, #24
 225              		.cfi_def_cfa_offset 32
 226 0086 00AF     		add	r7, sp, #0
 227              		.cfi_def_cfa_register 7
ARM GAS  /tmp/cckqXCjj.s 			page 20


 228 0088 F860     		str	r0, [r7, #12]
 229 008a B960     		str	r1, [r7, #8]
 230 008c 7A60     		str	r2, [r7, #4]
 231 008e 3B60     		str	r3, [r7]
 833:FreeRTOS/Source/tasks.c **** StackType_t *pxTopOfStack;
 834:FreeRTOS/Source/tasks.c **** UBaseType_t x;
 835:FreeRTOS/Source/tasks.c **** 
 836:FreeRTOS/Source/tasks.c **** 	#if( portUSING_MPU_WRAPPERS == 1 )
 837:FreeRTOS/Source/tasks.c **** 		/* Should the task be created in privileged mode? */
 838:FreeRTOS/Source/tasks.c **** 		BaseType_t xRunPrivileged;
 839:FreeRTOS/Source/tasks.c **** 		if( ( uxPriority & portPRIVILEGE_BIT ) != 0U )
 840:FreeRTOS/Source/tasks.c **** 		{
 841:FreeRTOS/Source/tasks.c **** 			xRunPrivileged = pdTRUE;
 842:FreeRTOS/Source/tasks.c **** 		}
 843:FreeRTOS/Source/tasks.c **** 		else
 844:FreeRTOS/Source/tasks.c **** 		{
 845:FreeRTOS/Source/tasks.c **** 			xRunPrivileged = pdFALSE;
 846:FreeRTOS/Source/tasks.c **** 		}
 847:FreeRTOS/Source/tasks.c **** 		uxPriority &= ~portPRIVILEGE_BIT;
 848:FreeRTOS/Source/tasks.c **** 	#endif /* portUSING_MPU_WRAPPERS == 1 */
 849:FreeRTOS/Source/tasks.c **** 
 850:FreeRTOS/Source/tasks.c **** 	/* Avoid dependency on memset() if it is not required. */
 851:FreeRTOS/Source/tasks.c **** 	#if( tskSET_NEW_STACKS_TO_KNOWN_VALUE == 1 )
 852:FreeRTOS/Source/tasks.c **** 	{
 853:FreeRTOS/Source/tasks.c **** 		/* Fill the stack with a known value to assist debugging. */
 854:FreeRTOS/Source/tasks.c **** 		( void ) memset( pxNewTCB->pxStack, ( int ) tskSTACK_FILL_BYTE, ( size_t ) ulStackDepth * sizeof(
 855:FreeRTOS/Source/tasks.c **** 	}
 856:FreeRTOS/Source/tasks.c **** 	#endif /* tskSET_NEW_STACKS_TO_KNOWN_VALUE */
 857:FreeRTOS/Source/tasks.c **** 
 858:FreeRTOS/Source/tasks.c **** 	/* Calculate the top of stack address.  This depends on whether the stack
 859:FreeRTOS/Source/tasks.c **** 	grows from high memory to low (as per the 80x86) or vice versa.
 860:FreeRTOS/Source/tasks.c **** 	portSTACK_GROWTH is used to make the result positive or negative as required
 861:FreeRTOS/Source/tasks.c **** 	by the port. */
 862:FreeRTOS/Source/tasks.c **** 	#if( portSTACK_GROWTH < 0 )
 863:FreeRTOS/Source/tasks.c **** 	{
 864:FreeRTOS/Source/tasks.c **** 		pxTopOfStack = &( pxNewTCB->pxStack[ ulStackDepth - ( uint32_t ) 1 ] );
 232              		.loc 1 864 0
 233 0090 BB6A     		ldr	r3, [r7, #40]
 234 0092 1A6B     		ldr	r2, [r3, #48]
 235 0094 7B68     		ldr	r3, [r7, #4]
 236 0096 03F18043 		add	r3, r3, #1073741824
 237 009a 013B     		subs	r3, r3, #1
 238 009c 9B00     		lsls	r3, r3, #2
 239 009e 1344     		add	r3, r3, r2
 240 00a0 3B61     		str	r3, [r7, #16]
 865:FreeRTOS/Source/tasks.c **** 		pxTopOfStack = ( StackType_t * ) ( ( ( portPOINTER_SIZE_TYPE ) pxTopOfStack ) & ( ~( ( portPOINTE
 241              		.loc 1 865 0
 242 00a2 3B69     		ldr	r3, [r7, #16]
 243 00a4 23F00703 		bic	r3, r3, #7
 244 00a8 3B61     		str	r3, [r7, #16]
 866:FreeRTOS/Source/tasks.c **** 
 867:FreeRTOS/Source/tasks.c **** 		/* Check the alignment of the calculated top of stack is correct. */
 868:FreeRTOS/Source/tasks.c **** 		configASSERT( ( ( ( portPOINTER_SIZE_TYPE ) pxTopOfStack & ( portPOINTER_SIZE_TYPE ) portBYTE_ALI
 869:FreeRTOS/Source/tasks.c **** 
 870:FreeRTOS/Source/tasks.c **** 		#if( configRECORD_STACK_HIGH_ADDRESS == 1 )
 871:FreeRTOS/Source/tasks.c **** 		{
 872:FreeRTOS/Source/tasks.c **** 			/* Also record the stack's high address, which may assist
ARM GAS  /tmp/cckqXCjj.s 			page 21


 873:FreeRTOS/Source/tasks.c **** 			debugging. */
 874:FreeRTOS/Source/tasks.c **** 			pxNewTCB->pxEndOfStack = pxTopOfStack;
 875:FreeRTOS/Source/tasks.c **** 		}
 876:FreeRTOS/Source/tasks.c **** 		#endif /* configRECORD_STACK_HIGH_ADDRESS */
 877:FreeRTOS/Source/tasks.c **** 	}
 878:FreeRTOS/Source/tasks.c **** 	#else /* portSTACK_GROWTH */
 879:FreeRTOS/Source/tasks.c **** 	{
 880:FreeRTOS/Source/tasks.c **** 		pxTopOfStack = pxNewTCB->pxStack;
 881:FreeRTOS/Source/tasks.c **** 
 882:FreeRTOS/Source/tasks.c **** 		/* Check the alignment of the stack buffer is correct. */
 883:FreeRTOS/Source/tasks.c **** 		configASSERT( ( ( ( portPOINTER_SIZE_TYPE ) pxNewTCB->pxStack & ( portPOINTER_SIZE_TYPE ) portBYT
 884:FreeRTOS/Source/tasks.c **** 
 885:FreeRTOS/Source/tasks.c **** 		/* The other extreme of the stack space is required if stack checking is
 886:FreeRTOS/Source/tasks.c **** 		performed. */
 887:FreeRTOS/Source/tasks.c **** 		pxNewTCB->pxEndOfStack = pxNewTCB->pxStack + ( ulStackDepth - ( uint32_t ) 1 );
 888:FreeRTOS/Source/tasks.c **** 	}
 889:FreeRTOS/Source/tasks.c **** 	#endif /* portSTACK_GROWTH */
 890:FreeRTOS/Source/tasks.c **** 
 891:FreeRTOS/Source/tasks.c **** 	/* Store the task name in the TCB. */
 892:FreeRTOS/Source/tasks.c **** 	if( pcName != NULL )
 245              		.loc 1 892 0
 246 00aa BB68     		ldr	r3, [r7, #8]
 247 00ac 002B     		cmp	r3, #0
 248 00ae 1FD0     		beq	.L10
 893:FreeRTOS/Source/tasks.c **** 	{
 894:FreeRTOS/Source/tasks.c **** 		for( x = ( UBaseType_t ) 0; x < ( UBaseType_t ) configMAX_TASK_NAME_LEN; x++ )
 249              		.loc 1 894 0
 250 00b0 0023     		movs	r3, #0
 251 00b2 7B61     		str	r3, [r7, #20]
 252 00b4 12E0     		b	.L11
 253              	.L14:
 895:FreeRTOS/Source/tasks.c **** 		{
 896:FreeRTOS/Source/tasks.c **** 			pxNewTCB->pcTaskName[ x ] = pcName[ x ];
 254              		.loc 1 896 0
 255 00b6 BA68     		ldr	r2, [r7, #8]
 256 00b8 7B69     		ldr	r3, [r7, #20]
 257 00ba 1344     		add	r3, r3, r2
 258 00bc 1978     		ldrb	r1, [r3]	@ zero_extendqisi2
 259 00be BA6A     		ldr	r2, [r7, #40]
 260 00c0 7B69     		ldr	r3, [r7, #20]
 261 00c2 1344     		add	r3, r3, r2
 262 00c4 3433     		adds	r3, r3, #52
 263 00c6 0A46     		mov	r2, r1
 264 00c8 1A70     		strb	r2, [r3]
 897:FreeRTOS/Source/tasks.c **** 
 898:FreeRTOS/Source/tasks.c **** 			/* Don't copy all configMAX_TASK_NAME_LEN if the string is shorter than
 899:FreeRTOS/Source/tasks.c **** 			configMAX_TASK_NAME_LEN characters just in case the memory after the
 900:FreeRTOS/Source/tasks.c **** 			string is not accessible (extremely unlikely). */
 901:FreeRTOS/Source/tasks.c **** 			if( pcName[ x ] == ( char ) 0x00 )
 265              		.loc 1 901 0
 266 00ca BA68     		ldr	r2, [r7, #8]
 267 00cc 7B69     		ldr	r3, [r7, #20]
 268 00ce 1344     		add	r3, r3, r2
 269 00d0 1B78     		ldrb	r3, [r3]	@ zero_extendqisi2
 270 00d2 002B     		cmp	r3, #0
 271 00d4 06D0     		beq	.L18
 894:FreeRTOS/Source/tasks.c **** 		{
ARM GAS  /tmp/cckqXCjj.s 			page 22


 272              		.loc 1 894 0 discriminator 2
 273 00d6 7B69     		ldr	r3, [r7, #20]
 274 00d8 0133     		adds	r3, r3, #1
 275 00da 7B61     		str	r3, [r7, #20]
 276              	.L11:
 894:FreeRTOS/Source/tasks.c **** 		{
 277              		.loc 1 894 0 is_stmt 0 discriminator 1
 278 00dc 7B69     		ldr	r3, [r7, #20]
 279 00de 0F2B     		cmp	r3, #15
 280 00e0 E9D9     		bls	.L14
 281 00e2 00E0     		b	.L13
 282              	.L18:
 902:FreeRTOS/Source/tasks.c **** 			{
 903:FreeRTOS/Source/tasks.c **** 				break;
 283              		.loc 1 903 0 is_stmt 1
 284 00e4 00BF     		nop
 285              	.L13:
 904:FreeRTOS/Source/tasks.c **** 			}
 905:FreeRTOS/Source/tasks.c **** 			else
 906:FreeRTOS/Source/tasks.c **** 			{
 907:FreeRTOS/Source/tasks.c **** 				mtCOVERAGE_TEST_MARKER();
 908:FreeRTOS/Source/tasks.c **** 			}
 909:FreeRTOS/Source/tasks.c **** 		}
 910:FreeRTOS/Source/tasks.c **** 
 911:FreeRTOS/Source/tasks.c **** 		/* Ensure the name string is terminated in the case that the string length
 912:FreeRTOS/Source/tasks.c **** 		was greater or equal to configMAX_TASK_NAME_LEN. */
 913:FreeRTOS/Source/tasks.c **** 		pxNewTCB->pcTaskName[ configMAX_TASK_NAME_LEN - 1 ] = '\0';
 286              		.loc 1 913 0
 287 00e6 BB6A     		ldr	r3, [r7, #40]
 288 00e8 0022     		movs	r2, #0
 289 00ea 83F84320 		strb	r2, [r3, #67]
 290 00ee 03E0     		b	.L15
 291              	.L10:
 914:FreeRTOS/Source/tasks.c **** 	}
 915:FreeRTOS/Source/tasks.c **** 	else
 916:FreeRTOS/Source/tasks.c **** 	{
 917:FreeRTOS/Source/tasks.c **** 		/* The task has not been given a name, so just ensure there is a NULL
 918:FreeRTOS/Source/tasks.c **** 		terminator when it is read out. */
 919:FreeRTOS/Source/tasks.c **** 		pxNewTCB->pcTaskName[ 0 ] = 0x00;
 292              		.loc 1 919 0
 293 00f0 BB6A     		ldr	r3, [r7, #40]
 294 00f2 0022     		movs	r2, #0
 295 00f4 83F83420 		strb	r2, [r3, #52]
 296              	.L15:
 920:FreeRTOS/Source/tasks.c **** 	}
 921:FreeRTOS/Source/tasks.c **** 
 922:FreeRTOS/Source/tasks.c **** 	/* This is used as an array index so must ensure it's not too large.  First
 923:FreeRTOS/Source/tasks.c **** 	remove the privilege bit if one is present. */
 924:FreeRTOS/Source/tasks.c **** 	if( uxPriority >= ( UBaseType_t ) configMAX_PRIORITIES )
 297              		.loc 1 924 0
 298 00f8 3B6A     		ldr	r3, [r7, #32]
 299 00fa 042B     		cmp	r3, #4
 300 00fc 01D9     		bls	.L16
 925:FreeRTOS/Source/tasks.c **** 	{
 926:FreeRTOS/Source/tasks.c **** 		uxPriority = ( UBaseType_t ) configMAX_PRIORITIES - ( UBaseType_t ) 1U;
 301              		.loc 1 926 0
 302 00fe 0423     		movs	r3, #4
ARM GAS  /tmp/cckqXCjj.s 			page 23


 303 0100 3B62     		str	r3, [r7, #32]
 304              	.L16:
 927:FreeRTOS/Source/tasks.c **** 	}
 928:FreeRTOS/Source/tasks.c **** 	else
 929:FreeRTOS/Source/tasks.c **** 	{
 930:FreeRTOS/Source/tasks.c **** 		mtCOVERAGE_TEST_MARKER();
 931:FreeRTOS/Source/tasks.c **** 	}
 932:FreeRTOS/Source/tasks.c **** 
 933:FreeRTOS/Source/tasks.c **** 	pxNewTCB->uxPriority = uxPriority;
 305              		.loc 1 933 0
 306 0102 BB6A     		ldr	r3, [r7, #40]
 307 0104 3A6A     		ldr	r2, [r7, #32]
 308 0106 DA62     		str	r2, [r3, #44]
 934:FreeRTOS/Source/tasks.c **** 	#if ( configUSE_MUTEXES == 1 )
 935:FreeRTOS/Source/tasks.c **** 	{
 936:FreeRTOS/Source/tasks.c **** 		pxNewTCB->uxBasePriority = uxPriority;
 937:FreeRTOS/Source/tasks.c **** 		pxNewTCB->uxMutexesHeld = 0;
 938:FreeRTOS/Source/tasks.c **** 	}
 939:FreeRTOS/Source/tasks.c **** 	#endif /* configUSE_MUTEXES */
 940:FreeRTOS/Source/tasks.c **** 
 941:FreeRTOS/Source/tasks.c **** 	vListInitialiseItem( &( pxNewTCB->xStateListItem ) );
 309              		.loc 1 941 0
 310 0108 BB6A     		ldr	r3, [r7, #40]
 311 010a 0433     		adds	r3, r3, #4
 312 010c 1846     		mov	r0, r3
 313 010e FFF7FEFF 		bl	vListInitialiseItem
 942:FreeRTOS/Source/tasks.c **** 	vListInitialiseItem( &( pxNewTCB->xEventListItem ) );
 314              		.loc 1 942 0
 315 0112 BB6A     		ldr	r3, [r7, #40]
 316 0114 1833     		adds	r3, r3, #24
 317 0116 1846     		mov	r0, r3
 318 0118 FFF7FEFF 		bl	vListInitialiseItem
 943:FreeRTOS/Source/tasks.c **** 
 944:FreeRTOS/Source/tasks.c **** 	/* Set the pxNewTCB as a link back from the ListItem_t.  This is so we can get
 945:FreeRTOS/Source/tasks.c **** 	back to	the containing TCB from a generic item in a list. */
 946:FreeRTOS/Source/tasks.c **** 	listSET_LIST_ITEM_OWNER( &( pxNewTCB->xStateListItem ), pxNewTCB );
 319              		.loc 1 946 0
 320 011c BB6A     		ldr	r3, [r7, #40]
 321 011e BA6A     		ldr	r2, [r7, #40]
 322 0120 1A61     		str	r2, [r3, #16]
 947:FreeRTOS/Source/tasks.c **** 
 948:FreeRTOS/Source/tasks.c **** 	/* Event lists are always in priority order. */
 949:FreeRTOS/Source/tasks.c **** 	listSET_LIST_ITEM_VALUE( &( pxNewTCB->xEventListItem ), ( TickType_t ) configMAX_PRIORITIES - ( Ti
 323              		.loc 1 949 0
 324 0122 3B6A     		ldr	r3, [r7, #32]
 325 0124 C3F10502 		rsb	r2, r3, #5
 326 0128 BB6A     		ldr	r3, [r7, #40]
 327 012a 9A61     		str	r2, [r3, #24]
 950:FreeRTOS/Source/tasks.c **** 	listSET_LIST_ITEM_OWNER( &( pxNewTCB->xEventListItem ), pxNewTCB );
 328              		.loc 1 950 0
 329 012c BB6A     		ldr	r3, [r7, #40]
 330 012e BA6A     		ldr	r2, [r7, #40]
 331 0130 5A62     		str	r2, [r3, #36]
 951:FreeRTOS/Source/tasks.c **** 
 952:FreeRTOS/Source/tasks.c **** 	#if ( portCRITICAL_NESTING_IN_TCB == 1 )
 953:FreeRTOS/Source/tasks.c **** 	{
 954:FreeRTOS/Source/tasks.c **** 		pxNewTCB->uxCriticalNesting = ( UBaseType_t ) 0U;
ARM GAS  /tmp/cckqXCjj.s 			page 24


 955:FreeRTOS/Source/tasks.c **** 	}
 956:FreeRTOS/Source/tasks.c **** 	#endif /* portCRITICAL_NESTING_IN_TCB */
 957:FreeRTOS/Source/tasks.c **** 
 958:FreeRTOS/Source/tasks.c **** 	#if ( configUSE_APPLICATION_TASK_TAG == 1 )
 959:FreeRTOS/Source/tasks.c **** 	{
 960:FreeRTOS/Source/tasks.c **** 		pxNewTCB->pxTaskTag = NULL;
 961:FreeRTOS/Source/tasks.c **** 	}
 962:FreeRTOS/Source/tasks.c **** 	#endif /* configUSE_APPLICATION_TASK_TAG */
 963:FreeRTOS/Source/tasks.c **** 
 964:FreeRTOS/Source/tasks.c **** 	#if ( configGENERATE_RUN_TIME_STATS == 1 )
 965:FreeRTOS/Source/tasks.c **** 	{
 966:FreeRTOS/Source/tasks.c **** 		pxNewTCB->ulRunTimeCounter = 0UL;
 967:FreeRTOS/Source/tasks.c **** 	}
 968:FreeRTOS/Source/tasks.c **** 	#endif /* configGENERATE_RUN_TIME_STATS */
 969:FreeRTOS/Source/tasks.c **** 
 970:FreeRTOS/Source/tasks.c **** 	#if ( portUSING_MPU_WRAPPERS == 1 )
 971:FreeRTOS/Source/tasks.c **** 	{
 972:FreeRTOS/Source/tasks.c **** 		vPortStoreTaskMPUSettings( &( pxNewTCB->xMPUSettings ), xRegions, pxNewTCB->pxStack, ulStackDepth
 973:FreeRTOS/Source/tasks.c **** 	}
 974:FreeRTOS/Source/tasks.c **** 	#else
 975:FreeRTOS/Source/tasks.c **** 	{
 976:FreeRTOS/Source/tasks.c **** 		/* Avoid compiler warning about unreferenced parameter. */
 977:FreeRTOS/Source/tasks.c **** 		( void ) xRegions;
 978:FreeRTOS/Source/tasks.c **** 	}
 979:FreeRTOS/Source/tasks.c **** 	#endif
 980:FreeRTOS/Source/tasks.c **** 
 981:FreeRTOS/Source/tasks.c **** 	#if( configNUM_THREAD_LOCAL_STORAGE_POINTERS != 0 )
 982:FreeRTOS/Source/tasks.c **** 	{
 983:FreeRTOS/Source/tasks.c **** 		for( x = 0; x < ( UBaseType_t ) configNUM_THREAD_LOCAL_STORAGE_POINTERS; x++ )
 984:FreeRTOS/Source/tasks.c **** 		{
 985:FreeRTOS/Source/tasks.c **** 			pxNewTCB->pvThreadLocalStoragePointers[ x ] = NULL;
 986:FreeRTOS/Source/tasks.c **** 		}
 987:FreeRTOS/Source/tasks.c **** 	}
 988:FreeRTOS/Source/tasks.c **** 	#endif
 989:FreeRTOS/Source/tasks.c **** 
 990:FreeRTOS/Source/tasks.c **** 	#if ( configUSE_TASK_NOTIFICATIONS == 1 )
 991:FreeRTOS/Source/tasks.c **** 	{
 992:FreeRTOS/Source/tasks.c **** 		pxNewTCB->ulNotifiedValue = 0;
 332              		.loc 1 992 0
 333 0132 BB6A     		ldr	r3, [r7, #40]
 334 0134 0022     		movs	r2, #0
 335 0136 5A64     		str	r2, [r3, #68]
 993:FreeRTOS/Source/tasks.c **** 		pxNewTCB->ucNotifyState = taskNOT_WAITING_NOTIFICATION;
 336              		.loc 1 993 0
 337 0138 BB6A     		ldr	r3, [r7, #40]
 338 013a 0022     		movs	r2, #0
 339 013c 83F84820 		strb	r2, [r3, #72]
 994:FreeRTOS/Source/tasks.c **** 	}
 995:FreeRTOS/Source/tasks.c **** 	#endif
 996:FreeRTOS/Source/tasks.c **** 
 997:FreeRTOS/Source/tasks.c **** 	#if ( configUSE_NEWLIB_REENTRANT == 1 )
 998:FreeRTOS/Source/tasks.c **** 	{
 999:FreeRTOS/Source/tasks.c **** 		/* Initialise this task's Newlib reent structure.
1000:FreeRTOS/Source/tasks.c **** 		See the third party link http://www.nadler.com/embedded/newlibAndFreeRTOS.html
1001:FreeRTOS/Source/tasks.c **** 		for additional information. */
1002:FreeRTOS/Source/tasks.c **** 		_REENT_INIT_PTR( ( &( pxNewTCB->xNewLib_reent ) ) );
1003:FreeRTOS/Source/tasks.c **** 	}
ARM GAS  /tmp/cckqXCjj.s 			page 25


1004:FreeRTOS/Source/tasks.c **** 	#endif
1005:FreeRTOS/Source/tasks.c **** 
1006:FreeRTOS/Source/tasks.c **** 	#if( INCLUDE_xTaskAbortDelay == 1 )
1007:FreeRTOS/Source/tasks.c **** 	{
1008:FreeRTOS/Source/tasks.c **** 		pxNewTCB->ucDelayAborted = pdFALSE;
1009:FreeRTOS/Source/tasks.c **** 	}
1010:FreeRTOS/Source/tasks.c **** 	#endif
1011:FreeRTOS/Source/tasks.c **** 
1012:FreeRTOS/Source/tasks.c **** 	/* Initialize the TCB stack to look as if the task was already running,
1013:FreeRTOS/Source/tasks.c **** 	but had been interrupted by the scheduler.  The return address is set
1014:FreeRTOS/Source/tasks.c **** 	to the start of the task function. Once the stack has been initialised
1015:FreeRTOS/Source/tasks.c **** 	the top of stack variable is updated. */
1016:FreeRTOS/Source/tasks.c **** 	#if( portUSING_MPU_WRAPPERS == 1 )
1017:FreeRTOS/Source/tasks.c **** 	{
1018:FreeRTOS/Source/tasks.c **** 		/* If the port has capability to detect stack overflow,
1019:FreeRTOS/Source/tasks.c **** 		pass the stack end address to the stack initialization
1020:FreeRTOS/Source/tasks.c **** 		function as well. */
1021:FreeRTOS/Source/tasks.c **** 		#if( portHAS_STACK_OVERFLOW_CHECKING == 1 )
1022:FreeRTOS/Source/tasks.c **** 		{
1023:FreeRTOS/Source/tasks.c **** 			#if( portSTACK_GROWTH < 0 )
1024:FreeRTOS/Source/tasks.c **** 			{
1025:FreeRTOS/Source/tasks.c **** 				pxNewTCB->pxTopOfStack = pxPortInitialiseStack( pxTopOfStack, pxNewTCB->pxStack, pxTaskCode, pv
1026:FreeRTOS/Source/tasks.c **** 			}
1027:FreeRTOS/Source/tasks.c **** 			#else /* portSTACK_GROWTH */
1028:FreeRTOS/Source/tasks.c **** 			{
1029:FreeRTOS/Source/tasks.c **** 				pxNewTCB->pxTopOfStack = pxPortInitialiseStack( pxTopOfStack, pxNewTCB->pxEndOfStack, pxTaskCod
1030:FreeRTOS/Source/tasks.c **** 			}
1031:FreeRTOS/Source/tasks.c **** 			#endif /* portSTACK_GROWTH */
1032:FreeRTOS/Source/tasks.c **** 		}
1033:FreeRTOS/Source/tasks.c **** 		#else /* portHAS_STACK_OVERFLOW_CHECKING */
1034:FreeRTOS/Source/tasks.c **** 		{
1035:FreeRTOS/Source/tasks.c **** 			pxNewTCB->pxTopOfStack = pxPortInitialiseStack( pxTopOfStack, pxTaskCode, pvParameters, xRunPriv
1036:FreeRTOS/Source/tasks.c **** 		}
1037:FreeRTOS/Source/tasks.c **** 		#endif /* portHAS_STACK_OVERFLOW_CHECKING */
1038:FreeRTOS/Source/tasks.c **** 	}
1039:FreeRTOS/Source/tasks.c **** 	#else /* portUSING_MPU_WRAPPERS */
1040:FreeRTOS/Source/tasks.c **** 	{
1041:FreeRTOS/Source/tasks.c **** 		/* If the port has capability to detect stack overflow,
1042:FreeRTOS/Source/tasks.c **** 		pass the stack end address to the stack initialization
1043:FreeRTOS/Source/tasks.c **** 		function as well. */
1044:FreeRTOS/Source/tasks.c **** 		#if( portHAS_STACK_OVERFLOW_CHECKING == 1 )
1045:FreeRTOS/Source/tasks.c **** 		{
1046:FreeRTOS/Source/tasks.c **** 			#if( portSTACK_GROWTH < 0 )
1047:FreeRTOS/Source/tasks.c **** 			{
1048:FreeRTOS/Source/tasks.c **** 				pxNewTCB->pxTopOfStack = pxPortInitialiseStack( pxTopOfStack, pxNewTCB->pxStack, pxTaskCode, pv
1049:FreeRTOS/Source/tasks.c **** 			}
1050:FreeRTOS/Source/tasks.c **** 			#else /* portSTACK_GROWTH */
1051:FreeRTOS/Source/tasks.c **** 			{
1052:FreeRTOS/Source/tasks.c **** 				pxNewTCB->pxTopOfStack = pxPortInitialiseStack( pxTopOfStack, pxNewTCB->pxEndOfStack, pxTaskCod
1053:FreeRTOS/Source/tasks.c **** 			}
1054:FreeRTOS/Source/tasks.c **** 			#endif /* portSTACK_GROWTH */
1055:FreeRTOS/Source/tasks.c **** 		}
1056:FreeRTOS/Source/tasks.c **** 		#else /* portHAS_STACK_OVERFLOW_CHECKING */
1057:FreeRTOS/Source/tasks.c **** 		{
1058:FreeRTOS/Source/tasks.c **** 			pxNewTCB->pxTopOfStack = pxPortInitialiseStack( pxTopOfStack, pxTaskCode, pvParameters );
 340              		.loc 1 1058 0
 341 0140 3A68     		ldr	r2, [r7]
ARM GAS  /tmp/cckqXCjj.s 			page 26


 342 0142 F968     		ldr	r1, [r7, #12]
 343 0144 3869     		ldr	r0, [r7, #16]
 344 0146 FFF7FEFF 		bl	pxPortInitialiseStack
 345 014a 0246     		mov	r2, r0
 346 014c BB6A     		ldr	r3, [r7, #40]
 347 014e 1A60     		str	r2, [r3]
1059:FreeRTOS/Source/tasks.c **** 		}
1060:FreeRTOS/Source/tasks.c **** 		#endif /* portHAS_STACK_OVERFLOW_CHECKING */
1061:FreeRTOS/Source/tasks.c **** 	}
1062:FreeRTOS/Source/tasks.c **** 	#endif /* portUSING_MPU_WRAPPERS */
1063:FreeRTOS/Source/tasks.c **** 
1064:FreeRTOS/Source/tasks.c **** 	if( pxCreatedTask != NULL )
 348              		.loc 1 1064 0
 349 0150 7B6A     		ldr	r3, [r7, #36]
 350 0152 002B     		cmp	r3, #0
 351 0154 02D0     		beq	.L19
1065:FreeRTOS/Source/tasks.c **** 	{
1066:FreeRTOS/Source/tasks.c **** 		/* Pass the handle out in an anonymous way.  The handle can be used to
1067:FreeRTOS/Source/tasks.c **** 		change the created task's priority, delete the created task, etc.*/
1068:FreeRTOS/Source/tasks.c **** 		*pxCreatedTask = ( TaskHandle_t ) pxNewTCB;
 352              		.loc 1 1068 0
 353 0156 7B6A     		ldr	r3, [r7, #36]
 354 0158 BA6A     		ldr	r2, [r7, #40]
 355 015a 1A60     		str	r2, [r3]
 356              	.L19:
1069:FreeRTOS/Source/tasks.c **** 	}
1070:FreeRTOS/Source/tasks.c **** 	else
1071:FreeRTOS/Source/tasks.c **** 	{
1072:FreeRTOS/Source/tasks.c **** 		mtCOVERAGE_TEST_MARKER();
1073:FreeRTOS/Source/tasks.c **** 	}
1074:FreeRTOS/Source/tasks.c **** }
 357              		.loc 1 1074 0
 358 015c 00BF     		nop
 359 015e 1837     		adds	r7, r7, #24
 360              		.cfi_def_cfa_offset 8
 361 0160 BD46     		mov	sp, r7
 362              		.cfi_def_cfa_register 13
 363              		@ sp needed
 364 0162 80BD     		pop	{r7, pc}
 365              		.cfi_endproc
 366              	.LFE6:
 367              		.size	prvInitialiseNewTask, .-prvInitialiseNewTask
 368              		.align	1
 369              		.syntax unified
 370              		.thumb
 371              		.thumb_func
 372              		.fpu softvfp
 373              		.type	prvAddNewTaskToReadyList, %function
 374              	prvAddNewTaskToReadyList:
 375              	.LFB7:
1075:FreeRTOS/Source/tasks.c **** /*-----------------------------------------------------------*/
1076:FreeRTOS/Source/tasks.c **** 
1077:FreeRTOS/Source/tasks.c **** static void prvAddNewTaskToReadyList( TCB_t *pxNewTCB )
1078:FreeRTOS/Source/tasks.c **** {
 376              		.loc 1 1078 0
 377              		.cfi_startproc
 378              		@ args = 0, pretend = 0, frame = 8
ARM GAS  /tmp/cckqXCjj.s 			page 27


 379              		@ frame_needed = 1, uses_anonymous_args = 0
 380 0164 80B5     		push	{r7, lr}
 381              		.cfi_def_cfa_offset 8
 382              		.cfi_offset 7, -8
 383              		.cfi_offset 14, -4
 384 0166 82B0     		sub	sp, sp, #8
 385              		.cfi_def_cfa_offset 16
 386 0168 00AF     		add	r7, sp, #0
 387              		.cfi_def_cfa_register 7
 388 016a 7860     		str	r0, [r7, #4]
1079:FreeRTOS/Source/tasks.c **** 	/* Ensure interrupts don't access the task lists while the lists are being
1080:FreeRTOS/Source/tasks.c **** 	updated. */
1081:FreeRTOS/Source/tasks.c **** 	taskENTER_CRITICAL();
 389              		.loc 1 1081 0
 390 016c FFF7FEFF 		bl	vPortEnterCritical
1082:FreeRTOS/Source/tasks.c **** 	{
1083:FreeRTOS/Source/tasks.c **** 		uxCurrentNumberOfTasks++;
 391              		.loc 1 1083 0
 392 0170 2A4B     		ldr	r3, .L25
 393 0172 1B68     		ldr	r3, [r3]
 394 0174 0133     		adds	r3, r3, #1
 395 0176 294A     		ldr	r2, .L25
 396 0178 1360     		str	r3, [r2]
1084:FreeRTOS/Source/tasks.c **** 		if( pxCurrentTCB == NULL )
 397              		.loc 1 1084 0
 398 017a 294B     		ldr	r3, .L25+4
 399 017c 1B68     		ldr	r3, [r3]
 400 017e 002B     		cmp	r3, #0
 401 0180 09D1     		bne	.L21
1085:FreeRTOS/Source/tasks.c **** 		{
1086:FreeRTOS/Source/tasks.c **** 			/* There are no other tasks, or all the other tasks are in
1087:FreeRTOS/Source/tasks.c **** 			the suspended state - make this the current task. */
1088:FreeRTOS/Source/tasks.c **** 			pxCurrentTCB = pxNewTCB;
 402              		.loc 1 1088 0
 403 0182 274A     		ldr	r2, .L25+4
 404 0184 7B68     		ldr	r3, [r7, #4]
 405 0186 1360     		str	r3, [r2]
1089:FreeRTOS/Source/tasks.c **** 
1090:FreeRTOS/Source/tasks.c **** 			if( uxCurrentNumberOfTasks == ( UBaseType_t ) 1 )
 406              		.loc 1 1090 0
 407 0188 244B     		ldr	r3, .L25
 408 018a 1B68     		ldr	r3, [r3]
 409 018c 012B     		cmp	r3, #1
 410 018e 10D1     		bne	.L22
1091:FreeRTOS/Source/tasks.c **** 			{
1092:FreeRTOS/Source/tasks.c **** 				/* This is the first task to be created so do the preliminary
1093:FreeRTOS/Source/tasks.c **** 				initialisation required.  We will not recover if this call
1094:FreeRTOS/Source/tasks.c **** 				fails, but we will report the failure. */
1095:FreeRTOS/Source/tasks.c **** 				prvInitialiseTaskLists();
 411              		.loc 1 1095 0
 412 0190 00F0FEFE 		bl	prvInitialiseTaskLists
 413 0194 0DE0     		b	.L22
 414              	.L21:
1096:FreeRTOS/Source/tasks.c **** 			}
1097:FreeRTOS/Source/tasks.c **** 			else
1098:FreeRTOS/Source/tasks.c **** 			{
1099:FreeRTOS/Source/tasks.c **** 				mtCOVERAGE_TEST_MARKER();
ARM GAS  /tmp/cckqXCjj.s 			page 28


1100:FreeRTOS/Source/tasks.c **** 			}
1101:FreeRTOS/Source/tasks.c **** 		}
1102:FreeRTOS/Source/tasks.c **** 		else
1103:FreeRTOS/Source/tasks.c **** 		{
1104:FreeRTOS/Source/tasks.c **** 			/* If the scheduler is not already running, make this task the
1105:FreeRTOS/Source/tasks.c **** 			current task if it is the highest priority task to be created
1106:FreeRTOS/Source/tasks.c **** 			so far. */
1107:FreeRTOS/Source/tasks.c **** 			if( xSchedulerRunning == pdFALSE )
 415              		.loc 1 1107 0
 416 0196 234B     		ldr	r3, .L25+8
 417 0198 1B68     		ldr	r3, [r3]
 418 019a 002B     		cmp	r3, #0
 419 019c 09D1     		bne	.L22
1108:FreeRTOS/Source/tasks.c **** 			{
1109:FreeRTOS/Source/tasks.c **** 				if( pxCurrentTCB->uxPriority <= pxNewTCB->uxPriority )
 420              		.loc 1 1109 0
 421 019e 204B     		ldr	r3, .L25+4
 422 01a0 1B68     		ldr	r3, [r3]
 423 01a2 DA6A     		ldr	r2, [r3, #44]
 424 01a4 7B68     		ldr	r3, [r7, #4]
 425 01a6 DB6A     		ldr	r3, [r3, #44]
 426 01a8 9A42     		cmp	r2, r3
 427 01aa 02D8     		bhi	.L22
1110:FreeRTOS/Source/tasks.c **** 				{
1111:FreeRTOS/Source/tasks.c **** 					pxCurrentTCB = pxNewTCB;
 428              		.loc 1 1111 0
 429 01ac 1C4A     		ldr	r2, .L25+4
 430 01ae 7B68     		ldr	r3, [r7, #4]
 431 01b0 1360     		str	r3, [r2]
 432              	.L22:
1112:FreeRTOS/Source/tasks.c **** 				}
1113:FreeRTOS/Source/tasks.c **** 				else
1114:FreeRTOS/Source/tasks.c **** 				{
1115:FreeRTOS/Source/tasks.c **** 					mtCOVERAGE_TEST_MARKER();
1116:FreeRTOS/Source/tasks.c **** 				}
1117:FreeRTOS/Source/tasks.c **** 			}
1118:FreeRTOS/Source/tasks.c **** 			else
1119:FreeRTOS/Source/tasks.c **** 			{
1120:FreeRTOS/Source/tasks.c **** 				mtCOVERAGE_TEST_MARKER();
1121:FreeRTOS/Source/tasks.c **** 			}
1122:FreeRTOS/Source/tasks.c **** 		}
1123:FreeRTOS/Source/tasks.c **** 
1124:FreeRTOS/Source/tasks.c **** 		uxTaskNumber++;
 433              		.loc 1 1124 0
 434 01b2 1D4B     		ldr	r3, .L25+12
 435 01b4 1B68     		ldr	r3, [r3]
 436 01b6 0133     		adds	r3, r3, #1
 437 01b8 1B4A     		ldr	r2, .L25+12
 438 01ba 1360     		str	r3, [r2]
1125:FreeRTOS/Source/tasks.c **** 
1126:FreeRTOS/Source/tasks.c **** 		#if ( configUSE_TRACE_FACILITY == 1 )
1127:FreeRTOS/Source/tasks.c **** 		{
1128:FreeRTOS/Source/tasks.c **** 			/* Add a counter into the TCB for tracing only. */
1129:FreeRTOS/Source/tasks.c **** 			pxNewTCB->uxTCBNumber = uxTaskNumber;
1130:FreeRTOS/Source/tasks.c **** 		}
1131:FreeRTOS/Source/tasks.c **** 		#endif /* configUSE_TRACE_FACILITY */
1132:FreeRTOS/Source/tasks.c **** 		traceTASK_CREATE( pxNewTCB );
ARM GAS  /tmp/cckqXCjj.s 			page 29


1133:FreeRTOS/Source/tasks.c **** 
1134:FreeRTOS/Source/tasks.c **** 		prvAddTaskToReadyList( pxNewTCB );
 439              		.loc 1 1134 0
 440 01bc 7B68     		ldr	r3, [r7, #4]
 441 01be DB6A     		ldr	r3, [r3, #44]
 442 01c0 0122     		movs	r2, #1
 443 01c2 9A40     		lsls	r2, r2, r3
 444 01c4 194B     		ldr	r3, .L25+16
 445 01c6 1B68     		ldr	r3, [r3]
 446 01c8 1343     		orrs	r3, r3, r2
 447 01ca 184A     		ldr	r2, .L25+16
 448 01cc 1360     		str	r3, [r2]
 449 01ce 7B68     		ldr	r3, [r7, #4]
 450 01d0 DA6A     		ldr	r2, [r3, #44]
 451 01d2 1346     		mov	r3, r2
 452 01d4 9B00     		lsls	r3, r3, #2
 453 01d6 1344     		add	r3, r3, r2
 454 01d8 9B00     		lsls	r3, r3, #2
 455 01da 154A     		ldr	r2, .L25+20
 456 01dc 1A44     		add	r2, r2, r3
 457 01de 7B68     		ldr	r3, [r7, #4]
 458 01e0 0433     		adds	r3, r3, #4
 459 01e2 1946     		mov	r1, r3
 460 01e4 1046     		mov	r0, r2
 461 01e6 FFF7FEFF 		bl	vListInsertEnd
1135:FreeRTOS/Source/tasks.c **** 
1136:FreeRTOS/Source/tasks.c **** 		portSETUP_TCB( pxNewTCB );
1137:FreeRTOS/Source/tasks.c **** 	}
1138:FreeRTOS/Source/tasks.c **** 	taskEXIT_CRITICAL();
 462              		.loc 1 1138 0
 463 01ea FFF7FEFF 		bl	vPortExitCritical
1139:FreeRTOS/Source/tasks.c **** 
1140:FreeRTOS/Source/tasks.c **** 	if( xSchedulerRunning != pdFALSE )
 464              		.loc 1 1140 0
 465 01ee 0D4B     		ldr	r3, .L25+8
 466 01f0 1B68     		ldr	r3, [r3]
 467 01f2 002B     		cmp	r3, #0
 468 01f4 0ED0     		beq	.L24
1141:FreeRTOS/Source/tasks.c **** 	{
1142:FreeRTOS/Source/tasks.c **** 		/* If the created task is of a higher priority than the current task
1143:FreeRTOS/Source/tasks.c **** 		then it should run now. */
1144:FreeRTOS/Source/tasks.c **** 		if( pxCurrentTCB->uxPriority < pxNewTCB->uxPriority )
 469              		.loc 1 1144 0
 470 01f6 0A4B     		ldr	r3, .L25+4
 471 01f8 1B68     		ldr	r3, [r3]
 472 01fa DA6A     		ldr	r2, [r3, #44]
 473 01fc 7B68     		ldr	r3, [r7, #4]
 474 01fe DB6A     		ldr	r3, [r3, #44]
 475 0200 9A42     		cmp	r2, r3
 476 0202 07D2     		bcs	.L24
1145:FreeRTOS/Source/tasks.c **** 		{
1146:FreeRTOS/Source/tasks.c **** 			taskYIELD_IF_USING_PREEMPTION();
 477              		.loc 1 1146 0
 478 0204 0B4B     		ldr	r3, .L25+24
 479 0206 4FF08052 		mov	r2, #268435456
 480 020a 1A60     		str	r2, [r3]
 481              		.syntax unified
ARM GAS  /tmp/cckqXCjj.s 			page 30


 482              	@ 1146 "FreeRTOS/Source/tasks.c" 1
 483 020c BFF34F8F 		dsb
 484              	@ 0 "" 2
 485              	@ 1146 "FreeRTOS/Source/tasks.c" 1
 486 0210 BFF36F8F 		isb
 487              	@ 0 "" 2
 488              		.thumb
 489              		.syntax unified
 490              	.L24:
1147:FreeRTOS/Source/tasks.c **** 		}
1148:FreeRTOS/Source/tasks.c **** 		else
1149:FreeRTOS/Source/tasks.c **** 		{
1150:FreeRTOS/Source/tasks.c **** 			mtCOVERAGE_TEST_MARKER();
1151:FreeRTOS/Source/tasks.c **** 		}
1152:FreeRTOS/Source/tasks.c **** 	}
1153:FreeRTOS/Source/tasks.c **** 	else
1154:FreeRTOS/Source/tasks.c **** 	{
1155:FreeRTOS/Source/tasks.c **** 		mtCOVERAGE_TEST_MARKER();
1156:FreeRTOS/Source/tasks.c **** 	}
1157:FreeRTOS/Source/tasks.c **** }
 491              		.loc 1 1157 0
 492 0214 00BF     		nop
 493 0216 0837     		adds	r7, r7, #8
 494              		.cfi_def_cfa_offset 8
 495 0218 BD46     		mov	sp, r7
 496              		.cfi_def_cfa_register 13
 497              		@ sp needed
 498 021a 80BD     		pop	{r7, pc}
 499              	.L26:
 500              		.align	2
 501              	.L25:
 502 021c D8000000 		.word	uxCurrentNumberOfTasks
 503 0220 00000000 		.word	pxCurrentTCB
 504 0224 E4000000 		.word	xSchedulerRunning
 505 0228 F4000000 		.word	uxTaskNumber
 506 022c E0000000 		.word	uxTopReadyPriority
 507 0230 04000000 		.word	pxReadyTasksLists
 508 0234 04ED00E0 		.word	-536810236
 509              		.cfi_endproc
 510              	.LFE7:
 511              		.size	prvAddNewTaskToReadyList, .-prvAddNewTaskToReadyList
 512              		.align	1
 513              		.global	vTaskDelete
 514              		.syntax unified
 515              		.thumb
 516              		.thumb_func
 517              		.fpu softvfp
 518              		.type	vTaskDelete, %function
 519              	vTaskDelete:
 520              	.LFB8:
1158:FreeRTOS/Source/tasks.c **** /*-----------------------------------------------------------*/
1159:FreeRTOS/Source/tasks.c **** 
1160:FreeRTOS/Source/tasks.c **** #if ( INCLUDE_vTaskDelete == 1 )
1161:FreeRTOS/Source/tasks.c **** 
1162:FreeRTOS/Source/tasks.c **** 	void vTaskDelete( TaskHandle_t xTaskToDelete )
1163:FreeRTOS/Source/tasks.c **** 	{
 521              		.loc 1 1163 0
ARM GAS  /tmp/cckqXCjj.s 			page 31


 522              		.cfi_startproc
 523              		@ args = 0, pretend = 0, frame = 16
 524              		@ frame_needed = 1, uses_anonymous_args = 0
 525 0238 80B5     		push	{r7, lr}
 526              		.cfi_def_cfa_offset 8
 527              		.cfi_offset 7, -8
 528              		.cfi_offset 14, -4
 529 023a 84B0     		sub	sp, sp, #16
 530              		.cfi_def_cfa_offset 24
 531 023c 00AF     		add	r7, sp, #0
 532              		.cfi_def_cfa_register 7
 533 023e 7860     		str	r0, [r7, #4]
1164:FreeRTOS/Source/tasks.c **** 	TCB_t *pxTCB;
1165:FreeRTOS/Source/tasks.c **** 
1166:FreeRTOS/Source/tasks.c **** 		taskENTER_CRITICAL();
 534              		.loc 1 1166 0
 535 0240 FFF7FEFF 		bl	vPortEnterCritical
1167:FreeRTOS/Source/tasks.c **** 		{
1168:FreeRTOS/Source/tasks.c **** 			/* If null is passed in here then it is the calling task that is
1169:FreeRTOS/Source/tasks.c **** 			being deleted. */
1170:FreeRTOS/Source/tasks.c **** 			pxTCB = prvGetTCBFromHandle( xTaskToDelete );
 536              		.loc 1 1170 0
 537 0244 7B68     		ldr	r3, [r7, #4]
 538 0246 002B     		cmp	r3, #0
 539 0248 02D1     		bne	.L28
 540              		.loc 1 1170 0 is_stmt 0 discriminator 1
 541 024a 314B     		ldr	r3, .L37
 542 024c 1B68     		ldr	r3, [r3]
 543 024e 00E0     		b	.L29
 544              	.L28:
 545              		.loc 1 1170 0 discriminator 2
 546 0250 7B68     		ldr	r3, [r7, #4]
 547              	.L29:
 548              		.loc 1 1170 0 discriminator 4
 549 0252 FB60     		str	r3, [r7, #12]
1171:FreeRTOS/Source/tasks.c **** 
1172:FreeRTOS/Source/tasks.c **** 			/* Remove task from the ready/delayed list. */
1173:FreeRTOS/Source/tasks.c **** 			if( uxListRemove( &( pxTCB->xStateListItem ) ) == ( UBaseType_t ) 0 )
 550              		.loc 1 1173 0 is_stmt 1 discriminator 4
 551 0254 FB68     		ldr	r3, [r7, #12]
 552 0256 0433     		adds	r3, r3, #4
 553 0258 1846     		mov	r0, r3
 554 025a FFF7FEFF 		bl	uxListRemove
 555 025e 0346     		mov	r3, r0
 556 0260 002B     		cmp	r3, #0
 557 0262 15D1     		bne	.L30
1174:FreeRTOS/Source/tasks.c **** 			{
1175:FreeRTOS/Source/tasks.c **** 				taskRESET_READY_PRIORITY( pxTCB->uxPriority );
 558              		.loc 1 1175 0
 559 0264 FB68     		ldr	r3, [r7, #12]
 560 0266 DA6A     		ldr	r2, [r3, #44]
 561 0268 2A49     		ldr	r1, .L37+4
 562 026a 1346     		mov	r3, r2
 563 026c 9B00     		lsls	r3, r3, #2
 564 026e 1344     		add	r3, r3, r2
 565 0270 9B00     		lsls	r3, r3, #2
 566 0272 0B44     		add	r3, r3, r1
ARM GAS  /tmp/cckqXCjj.s 			page 32


 567 0274 1B68     		ldr	r3, [r3]
 568 0276 002B     		cmp	r3, #0
 569 0278 0AD1     		bne	.L30
 570              		.loc 1 1175 0 is_stmt 0 discriminator 1
 571 027a FB68     		ldr	r3, [r7, #12]
 572 027c DB6A     		ldr	r3, [r3, #44]
 573 027e 0122     		movs	r2, #1
 574 0280 02FA03F3 		lsl	r3, r2, r3
 575 0284 DA43     		mvns	r2, r3
 576 0286 244B     		ldr	r3, .L37+8
 577 0288 1B68     		ldr	r3, [r3]
 578 028a 1340     		ands	r3, r3, r2
 579 028c 224A     		ldr	r2, .L37+8
 580 028e 1360     		str	r3, [r2]
 581              	.L30:
1176:FreeRTOS/Source/tasks.c **** 			}
1177:FreeRTOS/Source/tasks.c **** 			else
1178:FreeRTOS/Source/tasks.c **** 			{
1179:FreeRTOS/Source/tasks.c **** 				mtCOVERAGE_TEST_MARKER();
1180:FreeRTOS/Source/tasks.c **** 			}
1181:FreeRTOS/Source/tasks.c **** 
1182:FreeRTOS/Source/tasks.c **** 			/* Is the task waiting on an event also? */
1183:FreeRTOS/Source/tasks.c **** 			if( listLIST_ITEM_CONTAINER( &( pxTCB->xEventListItem ) ) != NULL )
 582              		.loc 1 1183 0 is_stmt 1
 583 0290 FB68     		ldr	r3, [r7, #12]
 584 0292 9B6A     		ldr	r3, [r3, #40]
 585 0294 002B     		cmp	r3, #0
 586 0296 04D0     		beq	.L32
1184:FreeRTOS/Source/tasks.c **** 			{
1185:FreeRTOS/Source/tasks.c **** 				( void ) uxListRemove( &( pxTCB->xEventListItem ) );
 587              		.loc 1 1185 0
 588 0298 FB68     		ldr	r3, [r7, #12]
 589 029a 1833     		adds	r3, r3, #24
 590 029c 1846     		mov	r0, r3
 591 029e FFF7FEFF 		bl	uxListRemove
 592              	.L32:
1186:FreeRTOS/Source/tasks.c **** 			}
1187:FreeRTOS/Source/tasks.c **** 			else
1188:FreeRTOS/Source/tasks.c **** 			{
1189:FreeRTOS/Source/tasks.c **** 				mtCOVERAGE_TEST_MARKER();
1190:FreeRTOS/Source/tasks.c **** 			}
1191:FreeRTOS/Source/tasks.c **** 
1192:FreeRTOS/Source/tasks.c **** 			/* Increment the uxTaskNumber also so kernel aware debuggers can
1193:FreeRTOS/Source/tasks.c **** 			detect that the task lists need re-generating.  This is done before
1194:FreeRTOS/Source/tasks.c **** 			portPRE_TASK_DELETE_HOOK() as in the Windows port that macro will
1195:FreeRTOS/Source/tasks.c **** 			not return. */
1196:FreeRTOS/Source/tasks.c **** 			uxTaskNumber++;
 593              		.loc 1 1196 0
 594 02a2 1E4B     		ldr	r3, .L37+12
 595 02a4 1B68     		ldr	r3, [r3]
 596 02a6 0133     		adds	r3, r3, #1
 597 02a8 1C4A     		ldr	r2, .L37+12
 598 02aa 1360     		str	r3, [r2]
1197:FreeRTOS/Source/tasks.c **** 
1198:FreeRTOS/Source/tasks.c **** 			if( pxTCB == pxCurrentTCB )
 599              		.loc 1 1198 0
 600 02ac 184B     		ldr	r3, .L37
ARM GAS  /tmp/cckqXCjj.s 			page 33


 601 02ae 1B68     		ldr	r3, [r3]
 602 02b0 FA68     		ldr	r2, [r7, #12]
 603 02b2 9A42     		cmp	r2, r3
 604 02b4 0BD1     		bne	.L33
1199:FreeRTOS/Source/tasks.c **** 			{
1200:FreeRTOS/Source/tasks.c **** 				/* A task is deleting itself.  This cannot complete within the
1201:FreeRTOS/Source/tasks.c **** 				task itself, as a context switch to another task is required.
1202:FreeRTOS/Source/tasks.c **** 				Place the task in the termination list.  The idle task will
1203:FreeRTOS/Source/tasks.c **** 				check the termination list and free up any memory allocated by
1204:FreeRTOS/Source/tasks.c **** 				the scheduler for the TCB and stack of the deleted task. */
1205:FreeRTOS/Source/tasks.c **** 				vListInsertEnd( &xTasksWaitingTermination, &( pxTCB->xStateListItem ) );
 605              		.loc 1 1205 0
 606 02b6 FB68     		ldr	r3, [r7, #12]
 607 02b8 0433     		adds	r3, r3, #4
 608 02ba 1946     		mov	r1, r3
 609 02bc 1848     		ldr	r0, .L37+16
 610 02be FFF7FEFF 		bl	vListInsertEnd
1206:FreeRTOS/Source/tasks.c **** 
1207:FreeRTOS/Source/tasks.c **** 				/* Increment the ucTasksDeleted variable so the idle task knows
1208:FreeRTOS/Source/tasks.c **** 				there is a task that has been deleted and that it should therefore
1209:FreeRTOS/Source/tasks.c **** 				check the xTasksWaitingTermination list. */
1210:FreeRTOS/Source/tasks.c **** 				++uxDeletedTasksWaitingCleanUp;
 611              		.loc 1 1210 0
 612 02c2 184B     		ldr	r3, .L37+20
 613 02c4 1B68     		ldr	r3, [r3]
 614 02c6 0133     		adds	r3, r3, #1
 615 02c8 164A     		ldr	r2, .L37+20
 616 02ca 1360     		str	r3, [r2]
 617 02cc 09E0     		b	.L34
 618              	.L33:
1211:FreeRTOS/Source/tasks.c **** 
1212:FreeRTOS/Source/tasks.c **** 				/* Call the delete hook before portPRE_TASK_DELETE_HOOK() as
1213:FreeRTOS/Source/tasks.c **** 				portPRE_TASK_DELETE_HOOK() does not return in the Win32 port. */
1214:FreeRTOS/Source/tasks.c **** 				traceTASK_DELETE( pxTCB );
1215:FreeRTOS/Source/tasks.c **** 
1216:FreeRTOS/Source/tasks.c **** 				/* The pre-delete hook is primarily for the Windows simulator,
1217:FreeRTOS/Source/tasks.c **** 				in which Windows specific clean up operations are performed,
1218:FreeRTOS/Source/tasks.c **** 				after which it is not possible to yield away from this task -
1219:FreeRTOS/Source/tasks.c **** 				hence xYieldPending is used to latch that a context switch is
1220:FreeRTOS/Source/tasks.c **** 				required. */
1221:FreeRTOS/Source/tasks.c **** 				portPRE_TASK_DELETE_HOOK( pxTCB, &xYieldPending );
1222:FreeRTOS/Source/tasks.c **** 			}
1223:FreeRTOS/Source/tasks.c **** 			else
1224:FreeRTOS/Source/tasks.c **** 			{
1225:FreeRTOS/Source/tasks.c **** 				--uxCurrentNumberOfTasks;
 619              		.loc 1 1225 0
 620 02ce 164B     		ldr	r3, .L37+24
 621 02d0 1B68     		ldr	r3, [r3]
 622 02d2 013B     		subs	r3, r3, #1
 623 02d4 144A     		ldr	r2, .L37+24
 624 02d6 1360     		str	r3, [r2]
1226:FreeRTOS/Source/tasks.c **** 				traceTASK_DELETE( pxTCB );
1227:FreeRTOS/Source/tasks.c **** 				prvDeleteTCB( pxTCB );
 625              		.loc 1 1227 0
 626 02d8 F868     		ldr	r0, [r7, #12]
 627 02da 00F0C5FE 		bl	prvDeleteTCB
1228:FreeRTOS/Source/tasks.c **** 
ARM GAS  /tmp/cckqXCjj.s 			page 34


1229:FreeRTOS/Source/tasks.c **** 				/* Reset the next expected unblock time in case it referred to
1230:FreeRTOS/Source/tasks.c **** 				the task that has just been deleted. */
1231:FreeRTOS/Source/tasks.c **** 				prvResetNextTaskUnblockTime();
 628              		.loc 1 1231 0
 629 02de 00F0D3FE 		bl	prvResetNextTaskUnblockTime
 630              	.L34:
1232:FreeRTOS/Source/tasks.c **** 			}
1233:FreeRTOS/Source/tasks.c **** 		}
1234:FreeRTOS/Source/tasks.c **** 		taskEXIT_CRITICAL();
 631              		.loc 1 1234 0
 632 02e2 FFF7FEFF 		bl	vPortExitCritical
1235:FreeRTOS/Source/tasks.c **** 
1236:FreeRTOS/Source/tasks.c **** 		/* Force a reschedule if it is the currently running task that has just
1237:FreeRTOS/Source/tasks.c **** 		been deleted. */
1238:FreeRTOS/Source/tasks.c **** 		if( xSchedulerRunning != pdFALSE )
 633              		.loc 1 1238 0
 634 02e6 114B     		ldr	r3, .L37+28
 635 02e8 1B68     		ldr	r3, [r3]
 636 02ea 002B     		cmp	r3, #0
 637 02ec 0CD0     		beq	.L36
1239:FreeRTOS/Source/tasks.c **** 		{
1240:FreeRTOS/Source/tasks.c **** 			if( pxTCB == pxCurrentTCB )
 638              		.loc 1 1240 0
 639 02ee 084B     		ldr	r3, .L37
 640 02f0 1B68     		ldr	r3, [r3]
 641 02f2 FA68     		ldr	r2, [r7, #12]
 642 02f4 9A42     		cmp	r2, r3
 643 02f6 07D1     		bne	.L36
1241:FreeRTOS/Source/tasks.c **** 			{
1242:FreeRTOS/Source/tasks.c **** 				configASSERT( uxSchedulerSuspended == 0 );
1243:FreeRTOS/Source/tasks.c **** 				portYIELD_WITHIN_API();
 644              		.loc 1 1243 0
 645 02f8 0D4B     		ldr	r3, .L37+32
 646 02fa 4FF08052 		mov	r2, #268435456
 647 02fe 1A60     		str	r2, [r3]
 648              		.syntax unified
 649              	@ 1243 "FreeRTOS/Source/tasks.c" 1
 650 0300 BFF34F8F 		dsb
 651              	@ 0 "" 2
 652              	@ 1243 "FreeRTOS/Source/tasks.c" 1
 653 0304 BFF36F8F 		isb
 654              	@ 0 "" 2
 655              		.thumb
 656              		.syntax unified
 657              	.L36:
1244:FreeRTOS/Source/tasks.c **** 			}
1245:FreeRTOS/Source/tasks.c **** 			else
1246:FreeRTOS/Source/tasks.c **** 			{
1247:FreeRTOS/Source/tasks.c **** 				mtCOVERAGE_TEST_MARKER();
1248:FreeRTOS/Source/tasks.c **** 			}
1249:FreeRTOS/Source/tasks.c **** 		}
1250:FreeRTOS/Source/tasks.c **** 	}
 658              		.loc 1 1250 0
 659 0308 00BF     		nop
 660 030a 1037     		adds	r7, r7, #16
 661              		.cfi_def_cfa_offset 8
 662 030c BD46     		mov	sp, r7
ARM GAS  /tmp/cckqXCjj.s 			page 35


 663              		.cfi_def_cfa_register 13
 664              		@ sp needed
 665 030e 80BD     		pop	{r7, pc}
 666              	.L38:
 667              		.align	2
 668              	.L37:
 669 0310 00000000 		.word	pxCurrentTCB
 670 0314 04000000 		.word	pxReadyTasksLists
 671 0318 E0000000 		.word	uxTopReadyPriority
 672 031c F4000000 		.word	uxTaskNumber
 673 0320 AC000000 		.word	xTasksWaitingTermination
 674 0324 C0000000 		.word	uxDeletedTasksWaitingCleanUp
 675 0328 D8000000 		.word	uxCurrentNumberOfTasks
 676 032c E4000000 		.word	xSchedulerRunning
 677 0330 04ED00E0 		.word	-536810236
 678              		.cfi_endproc
 679              	.LFE8:
 680              		.size	vTaskDelete, .-vTaskDelete
 681              		.align	1
 682              		.global	vTaskDelayUntil
 683              		.syntax unified
 684              		.thumb
 685              		.thumb_func
 686              		.fpu softvfp
 687              		.type	vTaskDelayUntil, %function
 688              	vTaskDelayUntil:
 689              	.LFB9:
1251:FreeRTOS/Source/tasks.c **** 
1252:FreeRTOS/Source/tasks.c **** #endif /* INCLUDE_vTaskDelete */
1253:FreeRTOS/Source/tasks.c **** /*-----------------------------------------------------------*/
1254:FreeRTOS/Source/tasks.c **** 
1255:FreeRTOS/Source/tasks.c **** #if ( INCLUDE_vTaskDelayUntil == 1 )
1256:FreeRTOS/Source/tasks.c **** 
1257:FreeRTOS/Source/tasks.c **** 	void vTaskDelayUntil( TickType_t * const pxPreviousWakeTime, const TickType_t xTimeIncrement )
1258:FreeRTOS/Source/tasks.c **** 	{
 690              		.loc 1 1258 0
 691              		.cfi_startproc
 692              		@ args = 0, pretend = 0, frame = 24
 693              		@ frame_needed = 1, uses_anonymous_args = 0
 694 0334 80B5     		push	{r7, lr}
 695              		.cfi_def_cfa_offset 8
 696              		.cfi_offset 7, -8
 697              		.cfi_offset 14, -4
 698 0336 86B0     		sub	sp, sp, #24
 699              		.cfi_def_cfa_offset 32
 700 0338 00AF     		add	r7, sp, #0
 701              		.cfi_def_cfa_register 7
 702 033a 7860     		str	r0, [r7, #4]
 703 033c 3960     		str	r1, [r7]
1259:FreeRTOS/Source/tasks.c **** 	TickType_t xTimeToWake;
1260:FreeRTOS/Source/tasks.c **** 	BaseType_t xAlreadyYielded, xShouldDelay = pdFALSE;
 704              		.loc 1 1260 0
 705 033e 0023     		movs	r3, #0
 706 0340 7B61     		str	r3, [r7, #20]
1261:FreeRTOS/Source/tasks.c **** 
1262:FreeRTOS/Source/tasks.c **** 		configASSERT( pxPreviousWakeTime );
1263:FreeRTOS/Source/tasks.c **** 		configASSERT( ( xTimeIncrement > 0U ) );
ARM GAS  /tmp/cckqXCjj.s 			page 36


1264:FreeRTOS/Source/tasks.c **** 		configASSERT( uxSchedulerSuspended == 0 );
1265:FreeRTOS/Source/tasks.c **** 
1266:FreeRTOS/Source/tasks.c **** 		vTaskSuspendAll();
 707              		.loc 1 1266 0
 708 0342 FFF7FEFF 		bl	vTaskSuspendAll
 709              	.LBB27:
1267:FreeRTOS/Source/tasks.c **** 		{
1268:FreeRTOS/Source/tasks.c **** 			/* Minor optimisation.  The tick count cannot change in this
1269:FreeRTOS/Source/tasks.c **** 			block. */
1270:FreeRTOS/Source/tasks.c **** 			const TickType_t xConstTickCount = xTickCount;
 710              		.loc 1 1270 0
 711 0346 214B     		ldr	r3, .L46
 712 0348 1B68     		ldr	r3, [r3]
 713 034a 3B61     		str	r3, [r7, #16]
1271:FreeRTOS/Source/tasks.c **** 
1272:FreeRTOS/Source/tasks.c **** 			/* Generate the tick time at which the task wants to wake. */
1273:FreeRTOS/Source/tasks.c **** 			xTimeToWake = *pxPreviousWakeTime + xTimeIncrement;
 714              		.loc 1 1273 0
 715 034c 7B68     		ldr	r3, [r7, #4]
 716 034e 1A68     		ldr	r2, [r3]
 717 0350 3B68     		ldr	r3, [r7]
 718 0352 1344     		add	r3, r3, r2
 719 0354 FB60     		str	r3, [r7, #12]
1274:FreeRTOS/Source/tasks.c **** 
1275:FreeRTOS/Source/tasks.c **** 			if( xConstTickCount < *pxPreviousWakeTime )
 720              		.loc 1 1275 0
 721 0356 7B68     		ldr	r3, [r7, #4]
 722 0358 1A68     		ldr	r2, [r3]
 723 035a 3B69     		ldr	r3, [r7, #16]
 724 035c 9A42     		cmp	r2, r3
 725 035e 0BD9     		bls	.L40
1276:FreeRTOS/Source/tasks.c **** 			{
1277:FreeRTOS/Source/tasks.c **** 				/* The tick count has overflowed since this function was
1278:FreeRTOS/Source/tasks.c **** 				lasted called.  In this case the only time we should ever
1279:FreeRTOS/Source/tasks.c **** 				actually delay is if the wake time has also	overflowed,
1280:FreeRTOS/Source/tasks.c **** 				and the wake time is greater than the tick time.  When this
1281:FreeRTOS/Source/tasks.c **** 				is the case it is as if neither time had overflowed. */
1282:FreeRTOS/Source/tasks.c **** 				if( ( xTimeToWake < *pxPreviousWakeTime ) && ( xTimeToWake > xConstTickCount ) )
 726              		.loc 1 1282 0
 727 0360 7B68     		ldr	r3, [r7, #4]
 728 0362 1A68     		ldr	r2, [r3]
 729 0364 FB68     		ldr	r3, [r7, #12]
 730 0366 9A42     		cmp	r2, r3
 731 0368 11D9     		bls	.L41
 732              		.loc 1 1282 0 is_stmt 0 discriminator 1
 733 036a FA68     		ldr	r2, [r7, #12]
 734 036c 3B69     		ldr	r3, [r7, #16]
 735 036e 9A42     		cmp	r2, r3
 736 0370 0DD9     		bls	.L41
1283:FreeRTOS/Source/tasks.c **** 				{
1284:FreeRTOS/Source/tasks.c **** 					xShouldDelay = pdTRUE;
 737              		.loc 1 1284 0 is_stmt 1
 738 0372 0123     		movs	r3, #1
 739 0374 7B61     		str	r3, [r7, #20]
 740 0376 0AE0     		b	.L41
 741              	.L40:
1285:FreeRTOS/Source/tasks.c **** 				}
ARM GAS  /tmp/cckqXCjj.s 			page 37


1286:FreeRTOS/Source/tasks.c **** 				else
1287:FreeRTOS/Source/tasks.c **** 				{
1288:FreeRTOS/Source/tasks.c **** 					mtCOVERAGE_TEST_MARKER();
1289:FreeRTOS/Source/tasks.c **** 				}
1290:FreeRTOS/Source/tasks.c **** 			}
1291:FreeRTOS/Source/tasks.c **** 			else
1292:FreeRTOS/Source/tasks.c **** 			{
1293:FreeRTOS/Source/tasks.c **** 				/* The tick time has not overflowed.  In this case we will
1294:FreeRTOS/Source/tasks.c **** 				delay if either the wake time has overflowed, and/or the
1295:FreeRTOS/Source/tasks.c **** 				tick time is less than the wake time. */
1296:FreeRTOS/Source/tasks.c **** 				if( ( xTimeToWake < *pxPreviousWakeTime ) || ( xTimeToWake > xConstTickCount ) )
 742              		.loc 1 1296 0
 743 0378 7B68     		ldr	r3, [r7, #4]
 744 037a 1A68     		ldr	r2, [r3]
 745 037c FB68     		ldr	r3, [r7, #12]
 746 037e 9A42     		cmp	r2, r3
 747 0380 03D8     		bhi	.L42
 748              		.loc 1 1296 0 is_stmt 0 discriminator 1
 749 0382 FA68     		ldr	r2, [r7, #12]
 750 0384 3B69     		ldr	r3, [r7, #16]
 751 0386 9A42     		cmp	r2, r3
 752 0388 01D9     		bls	.L41
 753              	.L42:
1297:FreeRTOS/Source/tasks.c **** 				{
1298:FreeRTOS/Source/tasks.c **** 					xShouldDelay = pdTRUE;
 754              		.loc 1 1298 0 is_stmt 1
 755 038a 0123     		movs	r3, #1
 756 038c 7B61     		str	r3, [r7, #20]
 757              	.L41:
1299:FreeRTOS/Source/tasks.c **** 				}
1300:FreeRTOS/Source/tasks.c **** 				else
1301:FreeRTOS/Source/tasks.c **** 				{
1302:FreeRTOS/Source/tasks.c **** 					mtCOVERAGE_TEST_MARKER();
1303:FreeRTOS/Source/tasks.c **** 				}
1304:FreeRTOS/Source/tasks.c **** 			}
1305:FreeRTOS/Source/tasks.c **** 
1306:FreeRTOS/Source/tasks.c **** 			/* Update the wake time ready for the next call. */
1307:FreeRTOS/Source/tasks.c **** 			*pxPreviousWakeTime = xTimeToWake;
 758              		.loc 1 1307 0
 759 038e 7B68     		ldr	r3, [r7, #4]
 760 0390 FA68     		ldr	r2, [r7, #12]
 761 0392 1A60     		str	r2, [r3]
1308:FreeRTOS/Source/tasks.c **** 
1309:FreeRTOS/Source/tasks.c **** 			if( xShouldDelay != pdFALSE )
 762              		.loc 1 1309 0
 763 0394 7B69     		ldr	r3, [r7, #20]
 764 0396 002B     		cmp	r3, #0
 765 0398 06D0     		beq	.L43
1310:FreeRTOS/Source/tasks.c **** 			{
1311:FreeRTOS/Source/tasks.c **** 				traceTASK_DELAY_UNTIL( xTimeToWake );
1312:FreeRTOS/Source/tasks.c **** 
1313:FreeRTOS/Source/tasks.c **** 				/* prvAddCurrentTaskToDelayedList() needs the block time, not
1314:FreeRTOS/Source/tasks.c **** 				the time to wake, so subtract the current tick count. */
1315:FreeRTOS/Source/tasks.c **** 				prvAddCurrentTaskToDelayedList( xTimeToWake - xConstTickCount, pdFALSE );
 766              		.loc 1 1315 0
 767 039a FA68     		ldr	r2, [r7, #12]
 768 039c 3B69     		ldr	r3, [r7, #16]
ARM GAS  /tmp/cckqXCjj.s 			page 38


 769 039e D31A     		subs	r3, r2, r3
 770 03a0 0021     		movs	r1, #0
 771 03a2 1846     		mov	r0, r3
 772 03a4 01F054F9 		bl	prvAddCurrentTaskToDelayedList
 773              	.L43:
 774              	.LBE27:
1316:FreeRTOS/Source/tasks.c **** 			}
1317:FreeRTOS/Source/tasks.c **** 			else
1318:FreeRTOS/Source/tasks.c **** 			{
1319:FreeRTOS/Source/tasks.c **** 				mtCOVERAGE_TEST_MARKER();
1320:FreeRTOS/Source/tasks.c **** 			}
1321:FreeRTOS/Source/tasks.c **** 		}
1322:FreeRTOS/Source/tasks.c **** 		xAlreadyYielded = xTaskResumeAll();
 775              		.loc 1 1322 0
 776 03a8 FFF7FEFF 		bl	xTaskResumeAll
 777 03ac B860     		str	r0, [r7, #8]
1323:FreeRTOS/Source/tasks.c **** 
1324:FreeRTOS/Source/tasks.c **** 		/* Force a reschedule if xTaskResumeAll has not already done so, we may
1325:FreeRTOS/Source/tasks.c **** 		have put ourselves to sleep. */
1326:FreeRTOS/Source/tasks.c **** 		if( xAlreadyYielded == pdFALSE )
 778              		.loc 1 1326 0
 779 03ae BB68     		ldr	r3, [r7, #8]
 780 03b0 002B     		cmp	r3, #0
 781 03b2 07D1     		bne	.L45
1327:FreeRTOS/Source/tasks.c **** 		{
1328:FreeRTOS/Source/tasks.c **** 			portYIELD_WITHIN_API();
 782              		.loc 1 1328 0
 783 03b4 064B     		ldr	r3, .L46+4
 784 03b6 4FF08052 		mov	r2, #268435456
 785 03ba 1A60     		str	r2, [r3]
 786              		.syntax unified
 787              	@ 1328 "FreeRTOS/Source/tasks.c" 1
 788 03bc BFF34F8F 		dsb
 789              	@ 0 "" 2
 790              	@ 1328 "FreeRTOS/Source/tasks.c" 1
 791 03c0 BFF36F8F 		isb
 792              	@ 0 "" 2
 793              		.thumb
 794              		.syntax unified
 795              	.L45:
1329:FreeRTOS/Source/tasks.c **** 		}
1330:FreeRTOS/Source/tasks.c **** 		else
1331:FreeRTOS/Source/tasks.c **** 		{
1332:FreeRTOS/Source/tasks.c **** 			mtCOVERAGE_TEST_MARKER();
1333:FreeRTOS/Source/tasks.c **** 		}
1334:FreeRTOS/Source/tasks.c **** 	}
 796              		.loc 1 1334 0
 797 03c4 00BF     		nop
 798 03c6 1837     		adds	r7, r7, #24
 799              		.cfi_def_cfa_offset 8
 800 03c8 BD46     		mov	sp, r7
 801              		.cfi_def_cfa_register 13
 802              		@ sp needed
 803 03ca 80BD     		pop	{r7, pc}
 804              	.L47:
 805              		.align	2
 806              	.L46:
ARM GAS  /tmp/cckqXCjj.s 			page 39


 807 03cc DC000000 		.word	xTickCount
 808 03d0 04ED00E0 		.word	-536810236
 809              		.cfi_endproc
 810              	.LFE9:
 811              		.size	vTaskDelayUntil, .-vTaskDelayUntil
 812              		.align	1
 813              		.global	vTaskDelay
 814              		.syntax unified
 815              		.thumb
 816              		.thumb_func
 817              		.fpu softvfp
 818              		.type	vTaskDelay, %function
 819              	vTaskDelay:
 820              	.LFB10:
1335:FreeRTOS/Source/tasks.c **** 
1336:FreeRTOS/Source/tasks.c **** #endif /* INCLUDE_vTaskDelayUntil */
1337:FreeRTOS/Source/tasks.c **** /*-----------------------------------------------------------*/
1338:FreeRTOS/Source/tasks.c **** 
1339:FreeRTOS/Source/tasks.c **** #if ( INCLUDE_vTaskDelay == 1 )
1340:FreeRTOS/Source/tasks.c **** 
1341:FreeRTOS/Source/tasks.c **** 	void vTaskDelay( const TickType_t xTicksToDelay )
1342:FreeRTOS/Source/tasks.c **** 	{
 821              		.loc 1 1342 0
 822              		.cfi_startproc
 823              		@ args = 0, pretend = 0, frame = 16
 824              		@ frame_needed = 1, uses_anonymous_args = 0
 825 03d4 80B5     		push	{r7, lr}
 826              		.cfi_def_cfa_offset 8
 827              		.cfi_offset 7, -8
 828              		.cfi_offset 14, -4
 829 03d6 84B0     		sub	sp, sp, #16
 830              		.cfi_def_cfa_offset 24
 831 03d8 00AF     		add	r7, sp, #0
 832              		.cfi_def_cfa_register 7
 833 03da 7860     		str	r0, [r7, #4]
1343:FreeRTOS/Source/tasks.c **** 	BaseType_t xAlreadyYielded = pdFALSE;
 834              		.loc 1 1343 0
 835 03dc 0023     		movs	r3, #0
 836 03de FB60     		str	r3, [r7, #12]
1344:FreeRTOS/Source/tasks.c **** 
1345:FreeRTOS/Source/tasks.c **** 		/* A delay time of zero just forces a reschedule. */
1346:FreeRTOS/Source/tasks.c **** 		if( xTicksToDelay > ( TickType_t ) 0U )
 837              		.loc 1 1346 0
 838 03e0 7B68     		ldr	r3, [r7, #4]
 839 03e2 002B     		cmp	r3, #0
 840 03e4 08D0     		beq	.L49
1347:FreeRTOS/Source/tasks.c **** 		{
1348:FreeRTOS/Source/tasks.c **** 			configASSERT( uxSchedulerSuspended == 0 );
1349:FreeRTOS/Source/tasks.c **** 			vTaskSuspendAll();
 841              		.loc 1 1349 0
 842 03e6 FFF7FEFF 		bl	vTaskSuspendAll
1350:FreeRTOS/Source/tasks.c **** 			{
1351:FreeRTOS/Source/tasks.c **** 				traceTASK_DELAY();
1352:FreeRTOS/Source/tasks.c **** 
1353:FreeRTOS/Source/tasks.c **** 				/* A task that is removed from the event list while the
1354:FreeRTOS/Source/tasks.c **** 				scheduler is suspended will not get placed in the ready
1355:FreeRTOS/Source/tasks.c **** 				list or removed from the blocked list until the scheduler
ARM GAS  /tmp/cckqXCjj.s 			page 40


1356:FreeRTOS/Source/tasks.c **** 				is resumed.
1357:FreeRTOS/Source/tasks.c **** 
1358:FreeRTOS/Source/tasks.c **** 				This task cannot be in an event list as it is the currently
1359:FreeRTOS/Source/tasks.c **** 				executing task. */
1360:FreeRTOS/Source/tasks.c **** 				prvAddCurrentTaskToDelayedList( xTicksToDelay, pdFALSE );
 843              		.loc 1 1360 0
 844 03ea 0021     		movs	r1, #0
 845 03ec 7868     		ldr	r0, [r7, #4]
 846 03ee 01F02FF9 		bl	prvAddCurrentTaskToDelayedList
1361:FreeRTOS/Source/tasks.c **** 			}
1362:FreeRTOS/Source/tasks.c **** 			xAlreadyYielded = xTaskResumeAll();
 847              		.loc 1 1362 0
 848 03f2 FFF7FEFF 		bl	xTaskResumeAll
 849 03f6 F860     		str	r0, [r7, #12]
 850              	.L49:
1363:FreeRTOS/Source/tasks.c **** 		}
1364:FreeRTOS/Source/tasks.c **** 		else
1365:FreeRTOS/Source/tasks.c **** 		{
1366:FreeRTOS/Source/tasks.c **** 			mtCOVERAGE_TEST_MARKER();
1367:FreeRTOS/Source/tasks.c **** 		}
1368:FreeRTOS/Source/tasks.c **** 
1369:FreeRTOS/Source/tasks.c **** 		/* Force a reschedule if xTaskResumeAll has not already done so, we may
1370:FreeRTOS/Source/tasks.c **** 		have put ourselves to sleep. */
1371:FreeRTOS/Source/tasks.c **** 		if( xAlreadyYielded == pdFALSE )
 851              		.loc 1 1371 0
 852 03f8 FB68     		ldr	r3, [r7, #12]
 853 03fa 002B     		cmp	r3, #0
 854 03fc 07D1     		bne	.L51
1372:FreeRTOS/Source/tasks.c **** 		{
1373:FreeRTOS/Source/tasks.c **** 			portYIELD_WITHIN_API();
 855              		.loc 1 1373 0
 856 03fe 064B     		ldr	r3, .L52
 857 0400 4FF08052 		mov	r2, #268435456
 858 0404 1A60     		str	r2, [r3]
 859              		.syntax unified
 860              	@ 1373 "FreeRTOS/Source/tasks.c" 1
 861 0406 BFF34F8F 		dsb
 862              	@ 0 "" 2
 863              	@ 1373 "FreeRTOS/Source/tasks.c" 1
 864 040a BFF36F8F 		isb
 865              	@ 0 "" 2
 866              		.thumb
 867              		.syntax unified
 868              	.L51:
1374:FreeRTOS/Source/tasks.c **** 		}
1375:FreeRTOS/Source/tasks.c **** 		else
1376:FreeRTOS/Source/tasks.c **** 		{
1377:FreeRTOS/Source/tasks.c **** 			mtCOVERAGE_TEST_MARKER();
1378:FreeRTOS/Source/tasks.c **** 		}
1379:FreeRTOS/Source/tasks.c **** 	}
 869              		.loc 1 1379 0
 870 040e 00BF     		nop
 871 0410 1037     		adds	r7, r7, #16
 872              		.cfi_def_cfa_offset 8
 873 0412 BD46     		mov	sp, r7
 874              		.cfi_def_cfa_register 13
 875              		@ sp needed
ARM GAS  /tmp/cckqXCjj.s 			page 41


 876 0414 80BD     		pop	{r7, pc}
 877              	.L53:
 878 0416 00BF     		.align	2
 879              	.L52:
 880 0418 04ED00E0 		.word	-536810236
 881              		.cfi_endproc
 882              	.LFE10:
 883              		.size	vTaskDelay, .-vTaskDelay
 884              		.align	1
 885              		.global	uxTaskPriorityGet
 886              		.syntax unified
 887              		.thumb
 888              		.thumb_func
 889              		.fpu softvfp
 890              		.type	uxTaskPriorityGet, %function
 891              	uxTaskPriorityGet:
 892              	.LFB11:
1380:FreeRTOS/Source/tasks.c **** 
1381:FreeRTOS/Source/tasks.c **** #endif /* INCLUDE_vTaskDelay */
1382:FreeRTOS/Source/tasks.c **** /*-----------------------------------------------------------*/
1383:FreeRTOS/Source/tasks.c **** 
1384:FreeRTOS/Source/tasks.c **** #if( ( INCLUDE_eTaskGetState == 1 ) || ( configUSE_TRACE_FACILITY == 1 ) || ( INCLUDE_xTaskAbortDel
1385:FreeRTOS/Source/tasks.c **** 
1386:FreeRTOS/Source/tasks.c **** 	eTaskState eTaskGetState( TaskHandle_t xTask )
1387:FreeRTOS/Source/tasks.c **** 	{
1388:FreeRTOS/Source/tasks.c **** 	eTaskState eReturn;
1389:FreeRTOS/Source/tasks.c **** 	List_t const * pxStateList, *pxDelayedList, *pxOverflowedDelayedList;
1390:FreeRTOS/Source/tasks.c **** 	const TCB_t * const pxTCB = xTask;
1391:FreeRTOS/Source/tasks.c **** 
1392:FreeRTOS/Source/tasks.c **** 		configASSERT( pxTCB );
1393:FreeRTOS/Source/tasks.c **** 
1394:FreeRTOS/Source/tasks.c **** 		if( pxTCB == pxCurrentTCB )
1395:FreeRTOS/Source/tasks.c **** 		{
1396:FreeRTOS/Source/tasks.c **** 			/* The task calling this function is querying its own state. */
1397:FreeRTOS/Source/tasks.c **** 			eReturn = eRunning;
1398:FreeRTOS/Source/tasks.c **** 		}
1399:FreeRTOS/Source/tasks.c **** 		else
1400:FreeRTOS/Source/tasks.c **** 		{
1401:FreeRTOS/Source/tasks.c **** 			taskENTER_CRITICAL();
1402:FreeRTOS/Source/tasks.c **** 			{
1403:FreeRTOS/Source/tasks.c **** 				pxStateList = listLIST_ITEM_CONTAINER( &( pxTCB->xStateListItem ) );
1404:FreeRTOS/Source/tasks.c **** 				pxDelayedList = pxDelayedTaskList;
1405:FreeRTOS/Source/tasks.c **** 				pxOverflowedDelayedList = pxOverflowDelayedTaskList;
1406:FreeRTOS/Source/tasks.c **** 			}
1407:FreeRTOS/Source/tasks.c **** 			taskEXIT_CRITICAL();
1408:FreeRTOS/Source/tasks.c **** 
1409:FreeRTOS/Source/tasks.c **** 			if( ( pxStateList == pxDelayedList ) || ( pxStateList == pxOverflowedDelayedList ) )
1410:FreeRTOS/Source/tasks.c **** 			{
1411:FreeRTOS/Source/tasks.c **** 				/* The task being queried is referenced from one of the Blocked
1412:FreeRTOS/Source/tasks.c **** 				lists. */
1413:FreeRTOS/Source/tasks.c **** 				eReturn = eBlocked;
1414:FreeRTOS/Source/tasks.c **** 			}
1415:FreeRTOS/Source/tasks.c **** 
1416:FreeRTOS/Source/tasks.c **** 			#if ( INCLUDE_vTaskSuspend == 1 )
1417:FreeRTOS/Source/tasks.c **** 				else if( pxStateList == &xSuspendedTaskList )
1418:FreeRTOS/Source/tasks.c **** 				{
1419:FreeRTOS/Source/tasks.c **** 					/* The task being queried is referenced from the suspended
ARM GAS  /tmp/cckqXCjj.s 			page 42


1420:FreeRTOS/Source/tasks.c **** 					list.  Is it genuinely suspended or is it blocked
1421:FreeRTOS/Source/tasks.c **** 					indefinitely? */
1422:FreeRTOS/Source/tasks.c **** 					if( listLIST_ITEM_CONTAINER( &( pxTCB->xEventListItem ) ) == NULL )
1423:FreeRTOS/Source/tasks.c **** 					{
1424:FreeRTOS/Source/tasks.c **** 						#if( configUSE_TASK_NOTIFICATIONS == 1 )
1425:FreeRTOS/Source/tasks.c **** 						{
1426:FreeRTOS/Source/tasks.c **** 							/* The task does not appear on the event list item of
1427:FreeRTOS/Source/tasks.c **** 							and of the RTOS objects, but could still be in the
1428:FreeRTOS/Source/tasks.c **** 							blocked state if it is waiting on its notification
1429:FreeRTOS/Source/tasks.c **** 							rather than waiting on an object. */
1430:FreeRTOS/Source/tasks.c **** 							if( pxTCB->ucNotifyState == taskWAITING_NOTIFICATION )
1431:FreeRTOS/Source/tasks.c **** 							{
1432:FreeRTOS/Source/tasks.c **** 								eReturn = eBlocked;
1433:FreeRTOS/Source/tasks.c **** 							}
1434:FreeRTOS/Source/tasks.c **** 							else
1435:FreeRTOS/Source/tasks.c **** 							{
1436:FreeRTOS/Source/tasks.c **** 								eReturn = eSuspended;
1437:FreeRTOS/Source/tasks.c **** 							}
1438:FreeRTOS/Source/tasks.c **** 						}
1439:FreeRTOS/Source/tasks.c **** 						#else
1440:FreeRTOS/Source/tasks.c **** 						{
1441:FreeRTOS/Source/tasks.c **** 							eReturn = eSuspended;
1442:FreeRTOS/Source/tasks.c **** 						}
1443:FreeRTOS/Source/tasks.c **** 						#endif
1444:FreeRTOS/Source/tasks.c **** 					}
1445:FreeRTOS/Source/tasks.c **** 					else
1446:FreeRTOS/Source/tasks.c **** 					{
1447:FreeRTOS/Source/tasks.c **** 						eReturn = eBlocked;
1448:FreeRTOS/Source/tasks.c **** 					}
1449:FreeRTOS/Source/tasks.c **** 				}
1450:FreeRTOS/Source/tasks.c **** 			#endif
1451:FreeRTOS/Source/tasks.c **** 
1452:FreeRTOS/Source/tasks.c **** 			#if ( INCLUDE_vTaskDelete == 1 )
1453:FreeRTOS/Source/tasks.c **** 				else if( ( pxStateList == &xTasksWaitingTermination ) || ( pxStateList == NULL ) )
1454:FreeRTOS/Source/tasks.c **** 				{
1455:FreeRTOS/Source/tasks.c **** 					/* The task being queried is referenced from the deleted
1456:FreeRTOS/Source/tasks.c **** 					tasks list, or it is not referenced from any lists at
1457:FreeRTOS/Source/tasks.c **** 					all. */
1458:FreeRTOS/Source/tasks.c **** 					eReturn = eDeleted;
1459:FreeRTOS/Source/tasks.c **** 				}
1460:FreeRTOS/Source/tasks.c **** 			#endif
1461:FreeRTOS/Source/tasks.c **** 
1462:FreeRTOS/Source/tasks.c **** 			else /*lint !e525 Negative indentation is intended to make use of pre-processor clearer. */
1463:FreeRTOS/Source/tasks.c **** 			{
1464:FreeRTOS/Source/tasks.c **** 				/* If the task is not in any other state, it must be in the
1465:FreeRTOS/Source/tasks.c **** 				Ready (including pending ready) state. */
1466:FreeRTOS/Source/tasks.c **** 				eReturn = eReady;
1467:FreeRTOS/Source/tasks.c **** 			}
1468:FreeRTOS/Source/tasks.c **** 		}
1469:FreeRTOS/Source/tasks.c **** 
1470:FreeRTOS/Source/tasks.c **** 		return eReturn;
1471:FreeRTOS/Source/tasks.c **** 	} /*lint !e818 xTask cannot be a pointer to const because it is a typedef. */
1472:FreeRTOS/Source/tasks.c **** 
1473:FreeRTOS/Source/tasks.c **** #endif /* INCLUDE_eTaskGetState */
1474:FreeRTOS/Source/tasks.c **** /*-----------------------------------------------------------*/
1475:FreeRTOS/Source/tasks.c **** 
1476:FreeRTOS/Source/tasks.c **** #if ( INCLUDE_uxTaskPriorityGet == 1 )
ARM GAS  /tmp/cckqXCjj.s 			page 43


1477:FreeRTOS/Source/tasks.c **** 
1478:FreeRTOS/Source/tasks.c **** 	UBaseType_t uxTaskPriorityGet( const TaskHandle_t xTask )
1479:FreeRTOS/Source/tasks.c **** 	{
 893              		.loc 1 1479 0
 894              		.cfi_startproc
 895              		@ args = 0, pretend = 0, frame = 16
 896              		@ frame_needed = 1, uses_anonymous_args = 0
 897 041c 80B5     		push	{r7, lr}
 898              		.cfi_def_cfa_offset 8
 899              		.cfi_offset 7, -8
 900              		.cfi_offset 14, -4
 901 041e 84B0     		sub	sp, sp, #16
 902              		.cfi_def_cfa_offset 24
 903 0420 00AF     		add	r7, sp, #0
 904              		.cfi_def_cfa_register 7
 905 0422 7860     		str	r0, [r7, #4]
1480:FreeRTOS/Source/tasks.c **** 	TCB_t const *pxTCB;
1481:FreeRTOS/Source/tasks.c **** 	UBaseType_t uxReturn;
1482:FreeRTOS/Source/tasks.c **** 
1483:FreeRTOS/Source/tasks.c **** 		taskENTER_CRITICAL();
 906              		.loc 1 1483 0
 907 0424 FFF7FEFF 		bl	vPortEnterCritical
1484:FreeRTOS/Source/tasks.c **** 		{
1485:FreeRTOS/Source/tasks.c **** 			/* If null is passed in here then it is the priority of the task
1486:FreeRTOS/Source/tasks.c **** 			that called uxTaskPriorityGet() that is being queried. */
1487:FreeRTOS/Source/tasks.c **** 			pxTCB = prvGetTCBFromHandle( xTask );
 908              		.loc 1 1487 0
 909 0428 7B68     		ldr	r3, [r7, #4]
 910 042a 002B     		cmp	r3, #0
 911 042c 02D1     		bne	.L55
 912              		.loc 1 1487 0 is_stmt 0 discriminator 1
 913 042e 074B     		ldr	r3, .L58
 914 0430 1B68     		ldr	r3, [r3]
 915 0432 00E0     		b	.L56
 916              	.L55:
 917              		.loc 1 1487 0 discriminator 2
 918 0434 7B68     		ldr	r3, [r7, #4]
 919              	.L56:
 920              		.loc 1 1487 0 discriminator 4
 921 0436 FB60     		str	r3, [r7, #12]
1488:FreeRTOS/Source/tasks.c **** 			uxReturn = pxTCB->uxPriority;
 922              		.loc 1 1488 0 is_stmt 1 discriminator 4
 923 0438 FB68     		ldr	r3, [r7, #12]
 924 043a DB6A     		ldr	r3, [r3, #44]
 925 043c BB60     		str	r3, [r7, #8]
1489:FreeRTOS/Source/tasks.c **** 		}
1490:FreeRTOS/Source/tasks.c **** 		taskEXIT_CRITICAL();
 926              		.loc 1 1490 0 discriminator 4
 927 043e FFF7FEFF 		bl	vPortExitCritical
1491:FreeRTOS/Source/tasks.c **** 
1492:FreeRTOS/Source/tasks.c **** 		return uxReturn;
 928              		.loc 1 1492 0 discriminator 4
 929 0442 BB68     		ldr	r3, [r7, #8]
1493:FreeRTOS/Source/tasks.c **** 	}
 930              		.loc 1 1493 0 discriminator 4
 931 0444 1846     		mov	r0, r3
 932 0446 1037     		adds	r7, r7, #16
ARM GAS  /tmp/cckqXCjj.s 			page 44


 933              		.cfi_def_cfa_offset 8
 934 0448 BD46     		mov	sp, r7
 935              		.cfi_def_cfa_register 13
 936              		@ sp needed
 937 044a 80BD     		pop	{r7, pc}
 938              	.L59:
 939              		.align	2
 940              	.L58:
 941 044c 00000000 		.word	pxCurrentTCB
 942              		.cfi_endproc
 943              	.LFE11:
 944              		.size	uxTaskPriorityGet, .-uxTaskPriorityGet
 945              		.align	1
 946              		.global	uxTaskPriorityGetFromISR
 947              		.syntax unified
 948              		.thumb
 949              		.thumb_func
 950              		.fpu softvfp
 951              		.type	uxTaskPriorityGetFromISR, %function
 952              	uxTaskPriorityGetFromISR:
 953              	.LFB12:
1494:FreeRTOS/Source/tasks.c **** 
1495:FreeRTOS/Source/tasks.c **** #endif /* INCLUDE_uxTaskPriorityGet */
1496:FreeRTOS/Source/tasks.c **** /*-----------------------------------------------------------*/
1497:FreeRTOS/Source/tasks.c **** 
1498:FreeRTOS/Source/tasks.c **** #if ( INCLUDE_uxTaskPriorityGet == 1 )
1499:FreeRTOS/Source/tasks.c **** 
1500:FreeRTOS/Source/tasks.c **** 	UBaseType_t uxTaskPriorityGetFromISR( const TaskHandle_t xTask )
1501:FreeRTOS/Source/tasks.c **** 	{
 954              		.loc 1 1501 0
 955              		.cfi_startproc
 956              		@ args = 0, pretend = 0, frame = 32
 957              		@ frame_needed = 1, uses_anonymous_args = 0
 958              		@ link register save eliminated.
 959 0450 80B4     		push	{r7}
 960              		.cfi_def_cfa_offset 4
 961              		.cfi_offset 7, -4
 962 0452 89B0     		sub	sp, sp, #36
 963              		.cfi_def_cfa_offset 40
 964 0454 00AF     		add	r7, sp, #0
 965              		.cfi_def_cfa_register 7
 966 0456 7860     		str	r0, [r7, #4]
 967              	.LBB28:
 968              	.LBB29:
 969              		.file 2 "FreeRTOS/Source/portable/GCC/ARM_CM3/portmacro.h"
   1:FreeRTOS/Source/portable/GCC/ARM_CM3/portmacro.h **** /*
   2:FreeRTOS/Source/portable/GCC/ARM_CM3/portmacro.h ****  * FreeRTOS Kernel V10.3.1
   3:FreeRTOS/Source/portable/GCC/ARM_CM3/portmacro.h ****  * Copyright (C) 2020 Amazon.com, Inc. or its affiliates.  All Rights Reserved.
   4:FreeRTOS/Source/portable/GCC/ARM_CM3/portmacro.h ****  *
   5:FreeRTOS/Source/portable/GCC/ARM_CM3/portmacro.h ****  * Permission is hereby granted, free of charge, to any person obtaining a copy of
   6:FreeRTOS/Source/portable/GCC/ARM_CM3/portmacro.h ****  * this software and associated documentation files (the "Software"), to deal in
   7:FreeRTOS/Source/portable/GCC/ARM_CM3/portmacro.h ****  * the Software without restriction, including without limitation the rights to
   8:FreeRTOS/Source/portable/GCC/ARM_CM3/portmacro.h ****  * use, copy, modify, merge, publish, distribute, sublicense, and/or sell copies of
   9:FreeRTOS/Source/portable/GCC/ARM_CM3/portmacro.h ****  * the Software, and to permit persons to whom the Software is furnished to do so,
  10:FreeRTOS/Source/portable/GCC/ARM_CM3/portmacro.h ****  * subject to the following conditions:
  11:FreeRTOS/Source/portable/GCC/ARM_CM3/portmacro.h ****  *
  12:FreeRTOS/Source/portable/GCC/ARM_CM3/portmacro.h ****  * The above copyright notice and this permission notice shall be included in all
ARM GAS  /tmp/cckqXCjj.s 			page 45


  13:FreeRTOS/Source/portable/GCC/ARM_CM3/portmacro.h ****  * copies or substantial portions of the Software.
  14:FreeRTOS/Source/portable/GCC/ARM_CM3/portmacro.h ****  *
  15:FreeRTOS/Source/portable/GCC/ARM_CM3/portmacro.h ****  * THE SOFTWARE IS PROVIDED "AS IS", WITHOUT WARRANTY OF ANY KIND, EXPRESS OR
  16:FreeRTOS/Source/portable/GCC/ARM_CM3/portmacro.h ****  * IMPLIED, INCLUDING BUT NOT LIMITED TO THE WARRANTIES OF MERCHANTABILITY, FITNESS
  17:FreeRTOS/Source/portable/GCC/ARM_CM3/portmacro.h ****  * FOR A PARTICULAR PURPOSE AND NONINFRINGEMENT. IN NO EVENT SHALL THE AUTHORS OR
  18:FreeRTOS/Source/portable/GCC/ARM_CM3/portmacro.h ****  * COPYRIGHT HOLDERS BE LIABLE FOR ANY CLAIM, DAMAGES OR OTHER LIABILITY, WHETHER
  19:FreeRTOS/Source/portable/GCC/ARM_CM3/portmacro.h ****  * IN AN ACTION OF CONTRACT, TORT OR OTHERWISE, ARISING FROM, OUT OF OR IN
  20:FreeRTOS/Source/portable/GCC/ARM_CM3/portmacro.h ****  * CONNECTION WITH THE SOFTWARE OR THE USE OR OTHER DEALINGS IN THE SOFTWARE.
  21:FreeRTOS/Source/portable/GCC/ARM_CM3/portmacro.h ****  *
  22:FreeRTOS/Source/portable/GCC/ARM_CM3/portmacro.h ****  * http://www.FreeRTOS.org
  23:FreeRTOS/Source/portable/GCC/ARM_CM3/portmacro.h ****  * http://aws.amazon.com/freertos
  24:FreeRTOS/Source/portable/GCC/ARM_CM3/portmacro.h ****  *
  25:FreeRTOS/Source/portable/GCC/ARM_CM3/portmacro.h ****  * 1 tab == 4 spaces!
  26:FreeRTOS/Source/portable/GCC/ARM_CM3/portmacro.h ****  */
  27:FreeRTOS/Source/portable/GCC/ARM_CM3/portmacro.h **** 
  28:FreeRTOS/Source/portable/GCC/ARM_CM3/portmacro.h **** 
  29:FreeRTOS/Source/portable/GCC/ARM_CM3/portmacro.h **** #ifndef PORTMACRO_H
  30:FreeRTOS/Source/portable/GCC/ARM_CM3/portmacro.h **** #define PORTMACRO_H
  31:FreeRTOS/Source/portable/GCC/ARM_CM3/portmacro.h **** 
  32:FreeRTOS/Source/portable/GCC/ARM_CM3/portmacro.h **** #ifdef __cplusplus
  33:FreeRTOS/Source/portable/GCC/ARM_CM3/portmacro.h **** extern "C" {
  34:FreeRTOS/Source/portable/GCC/ARM_CM3/portmacro.h **** #endif
  35:FreeRTOS/Source/portable/GCC/ARM_CM3/portmacro.h **** 
  36:FreeRTOS/Source/portable/GCC/ARM_CM3/portmacro.h **** /*-----------------------------------------------------------
  37:FreeRTOS/Source/portable/GCC/ARM_CM3/portmacro.h ****  * Port specific definitions.
  38:FreeRTOS/Source/portable/GCC/ARM_CM3/portmacro.h ****  *
  39:FreeRTOS/Source/portable/GCC/ARM_CM3/portmacro.h ****  * The settings in this file configure FreeRTOS correctly for the
  40:FreeRTOS/Source/portable/GCC/ARM_CM3/portmacro.h ****  * given hardware and compiler.
  41:FreeRTOS/Source/portable/GCC/ARM_CM3/portmacro.h ****  *
  42:FreeRTOS/Source/portable/GCC/ARM_CM3/portmacro.h ****  * These settings should not be altered.
  43:FreeRTOS/Source/portable/GCC/ARM_CM3/portmacro.h ****  *-----------------------------------------------------------
  44:FreeRTOS/Source/portable/GCC/ARM_CM3/portmacro.h ****  */
  45:FreeRTOS/Source/portable/GCC/ARM_CM3/portmacro.h **** 
  46:FreeRTOS/Source/portable/GCC/ARM_CM3/portmacro.h **** /* Type definitions. */
  47:FreeRTOS/Source/portable/GCC/ARM_CM3/portmacro.h **** #define portCHAR		char
  48:FreeRTOS/Source/portable/GCC/ARM_CM3/portmacro.h **** #define portFLOAT		float
  49:FreeRTOS/Source/portable/GCC/ARM_CM3/portmacro.h **** #define portDOUBLE		double
  50:FreeRTOS/Source/portable/GCC/ARM_CM3/portmacro.h **** #define portLONG		long
  51:FreeRTOS/Source/portable/GCC/ARM_CM3/portmacro.h **** #define portSHORT		short
  52:FreeRTOS/Source/portable/GCC/ARM_CM3/portmacro.h **** #define portSTACK_TYPE	uint32_t
  53:FreeRTOS/Source/portable/GCC/ARM_CM3/portmacro.h **** #define portBASE_TYPE	long
  54:FreeRTOS/Source/portable/GCC/ARM_CM3/portmacro.h **** 
  55:FreeRTOS/Source/portable/GCC/ARM_CM3/portmacro.h **** typedef portSTACK_TYPE StackType_t;
  56:FreeRTOS/Source/portable/GCC/ARM_CM3/portmacro.h **** typedef long BaseType_t;
  57:FreeRTOS/Source/portable/GCC/ARM_CM3/portmacro.h **** typedef unsigned long UBaseType_t;
  58:FreeRTOS/Source/portable/GCC/ARM_CM3/portmacro.h **** 
  59:FreeRTOS/Source/portable/GCC/ARM_CM3/portmacro.h **** #if( configUSE_16_BIT_TICKS == 1 )
  60:FreeRTOS/Source/portable/GCC/ARM_CM3/portmacro.h **** 	typedef uint16_t TickType_t;
  61:FreeRTOS/Source/portable/GCC/ARM_CM3/portmacro.h **** 	#define portMAX_DELAY ( TickType_t ) 0xffff
  62:FreeRTOS/Source/portable/GCC/ARM_CM3/portmacro.h **** #else
  63:FreeRTOS/Source/portable/GCC/ARM_CM3/portmacro.h **** 	typedef uint32_t TickType_t;
  64:FreeRTOS/Source/portable/GCC/ARM_CM3/portmacro.h **** 	#define portMAX_DELAY ( TickType_t ) 0xffffffffUL
  65:FreeRTOS/Source/portable/GCC/ARM_CM3/portmacro.h **** 
  66:FreeRTOS/Source/portable/GCC/ARM_CM3/portmacro.h **** 	/* 32-bit tick type on a 32-bit architecture, so reads of the tick count do
  67:FreeRTOS/Source/portable/GCC/ARM_CM3/portmacro.h **** 	not need to be guarded with a critical section. */
  68:FreeRTOS/Source/portable/GCC/ARM_CM3/portmacro.h **** 	#define portTICK_TYPE_IS_ATOMIC 1
  69:FreeRTOS/Source/portable/GCC/ARM_CM3/portmacro.h **** #endif
ARM GAS  /tmp/cckqXCjj.s 			page 46


  70:FreeRTOS/Source/portable/GCC/ARM_CM3/portmacro.h **** /*-----------------------------------------------------------*/
  71:FreeRTOS/Source/portable/GCC/ARM_CM3/portmacro.h **** 
  72:FreeRTOS/Source/portable/GCC/ARM_CM3/portmacro.h **** /* Architecture specifics. */
  73:FreeRTOS/Source/portable/GCC/ARM_CM3/portmacro.h **** #define portSTACK_GROWTH			( -1 )
  74:FreeRTOS/Source/portable/GCC/ARM_CM3/portmacro.h **** #define portTICK_PERIOD_MS			( ( TickType_t ) 1000 / configTICK_RATE_HZ )
  75:FreeRTOS/Source/portable/GCC/ARM_CM3/portmacro.h **** #define portBYTE_ALIGNMENT			8
  76:FreeRTOS/Source/portable/GCC/ARM_CM3/portmacro.h **** /*-----------------------------------------------------------*/
  77:FreeRTOS/Source/portable/GCC/ARM_CM3/portmacro.h **** 
  78:FreeRTOS/Source/portable/GCC/ARM_CM3/portmacro.h **** /* Scheduler utilities. */
  79:FreeRTOS/Source/portable/GCC/ARM_CM3/portmacro.h **** #define portYIELD() 															\
  80:FreeRTOS/Source/portable/GCC/ARM_CM3/portmacro.h **** {																				\
  81:FreeRTOS/Source/portable/GCC/ARM_CM3/portmacro.h **** 	/* Set a PendSV to request a context switch. */								\
  82:FreeRTOS/Source/portable/GCC/ARM_CM3/portmacro.h **** 	portNVIC_INT_CTRL_REG = portNVIC_PENDSVSET_BIT;								\
  83:FreeRTOS/Source/portable/GCC/ARM_CM3/portmacro.h **** 																				\
  84:FreeRTOS/Source/portable/GCC/ARM_CM3/portmacro.h **** 	/* Barriers are normally not required but do ensure the code is completely	\
  85:FreeRTOS/Source/portable/GCC/ARM_CM3/portmacro.h **** 	within the specified behaviour for the architecture. */						\
  86:FreeRTOS/Source/portable/GCC/ARM_CM3/portmacro.h **** 	__asm volatile( "dsb" ::: "memory" );										\
  87:FreeRTOS/Source/portable/GCC/ARM_CM3/portmacro.h **** 	__asm volatile( "isb" );													\
  88:FreeRTOS/Source/portable/GCC/ARM_CM3/portmacro.h **** }
  89:FreeRTOS/Source/portable/GCC/ARM_CM3/portmacro.h **** 
  90:FreeRTOS/Source/portable/GCC/ARM_CM3/portmacro.h **** #define portNVIC_INT_CTRL_REG		( * ( ( volatile uint32_t * ) 0xe000ed04 ) )
  91:FreeRTOS/Source/portable/GCC/ARM_CM3/portmacro.h **** #define portNVIC_PENDSVSET_BIT		( 1UL << 28UL )
  92:FreeRTOS/Source/portable/GCC/ARM_CM3/portmacro.h **** #define portEND_SWITCHING_ISR( xSwitchRequired ) if( xSwitchRequired != pdFALSE ) portYIELD()
  93:FreeRTOS/Source/portable/GCC/ARM_CM3/portmacro.h **** #define portYIELD_FROM_ISR( x ) portEND_SWITCHING_ISR( x )
  94:FreeRTOS/Source/portable/GCC/ARM_CM3/portmacro.h **** /*-----------------------------------------------------------*/
  95:FreeRTOS/Source/portable/GCC/ARM_CM3/portmacro.h **** 
  96:FreeRTOS/Source/portable/GCC/ARM_CM3/portmacro.h **** /* Critical section management. */
  97:FreeRTOS/Source/portable/GCC/ARM_CM3/portmacro.h **** extern void vPortEnterCritical( void );
  98:FreeRTOS/Source/portable/GCC/ARM_CM3/portmacro.h **** extern void vPortExitCritical( void );
  99:FreeRTOS/Source/portable/GCC/ARM_CM3/portmacro.h **** #define portSET_INTERRUPT_MASK_FROM_ISR()		ulPortRaiseBASEPRI()
 100:FreeRTOS/Source/portable/GCC/ARM_CM3/portmacro.h **** #define portCLEAR_INTERRUPT_MASK_FROM_ISR(x)	vPortSetBASEPRI(x)
 101:FreeRTOS/Source/portable/GCC/ARM_CM3/portmacro.h **** #define portDISABLE_INTERRUPTS()				vPortRaiseBASEPRI()
 102:FreeRTOS/Source/portable/GCC/ARM_CM3/portmacro.h **** #define portENABLE_INTERRUPTS()					vPortSetBASEPRI(0)
 103:FreeRTOS/Source/portable/GCC/ARM_CM3/portmacro.h **** #define portENTER_CRITICAL()					vPortEnterCritical()
 104:FreeRTOS/Source/portable/GCC/ARM_CM3/portmacro.h **** #define portEXIT_CRITICAL()						vPortExitCritical()
 105:FreeRTOS/Source/portable/GCC/ARM_CM3/portmacro.h **** 
 106:FreeRTOS/Source/portable/GCC/ARM_CM3/portmacro.h **** /*-----------------------------------------------------------*/
 107:FreeRTOS/Source/portable/GCC/ARM_CM3/portmacro.h **** 
 108:FreeRTOS/Source/portable/GCC/ARM_CM3/portmacro.h **** /* Task function macros as described on the FreeRTOS.org WEB site.  These are
 109:FreeRTOS/Source/portable/GCC/ARM_CM3/portmacro.h **** not necessary for to use this port.  They are defined so the common demo files
 110:FreeRTOS/Source/portable/GCC/ARM_CM3/portmacro.h **** (which build with all the ports) will build. */
 111:FreeRTOS/Source/portable/GCC/ARM_CM3/portmacro.h **** #define portTASK_FUNCTION_PROTO( vFunction, pvParameters ) void vFunction( void *pvParameters )
 112:FreeRTOS/Source/portable/GCC/ARM_CM3/portmacro.h **** #define portTASK_FUNCTION( vFunction, pvParameters ) void vFunction( void *pvParameters )
 113:FreeRTOS/Source/portable/GCC/ARM_CM3/portmacro.h **** /*-----------------------------------------------------------*/
 114:FreeRTOS/Source/portable/GCC/ARM_CM3/portmacro.h **** 
 115:FreeRTOS/Source/portable/GCC/ARM_CM3/portmacro.h **** /* Tickless idle/low power functionality. */
 116:FreeRTOS/Source/portable/GCC/ARM_CM3/portmacro.h **** #ifndef portSUPPRESS_TICKS_AND_SLEEP
 117:FreeRTOS/Source/portable/GCC/ARM_CM3/portmacro.h **** 	extern void vPortSuppressTicksAndSleep( TickType_t xExpectedIdleTime );
 118:FreeRTOS/Source/portable/GCC/ARM_CM3/portmacro.h **** 	#define portSUPPRESS_TICKS_AND_SLEEP( xExpectedIdleTime ) vPortSuppressTicksAndSleep( xExpectedIdl
 119:FreeRTOS/Source/portable/GCC/ARM_CM3/portmacro.h **** #endif
 120:FreeRTOS/Source/portable/GCC/ARM_CM3/portmacro.h **** /*-----------------------------------------------------------*/
 121:FreeRTOS/Source/portable/GCC/ARM_CM3/portmacro.h **** 
 122:FreeRTOS/Source/portable/GCC/ARM_CM3/portmacro.h **** /* Architecture specific optimisations. */
 123:FreeRTOS/Source/portable/GCC/ARM_CM3/portmacro.h **** #ifndef configUSE_PORT_OPTIMISED_TASK_SELECTION
 124:FreeRTOS/Source/portable/GCC/ARM_CM3/portmacro.h **** 	#define configUSE_PORT_OPTIMISED_TASK_SELECTION 1
 125:FreeRTOS/Source/portable/GCC/ARM_CM3/portmacro.h **** #endif
 126:FreeRTOS/Source/portable/GCC/ARM_CM3/portmacro.h **** 
ARM GAS  /tmp/cckqXCjj.s 			page 47


 127:FreeRTOS/Source/portable/GCC/ARM_CM3/portmacro.h **** #if configUSE_PORT_OPTIMISED_TASK_SELECTION == 1
 128:FreeRTOS/Source/portable/GCC/ARM_CM3/portmacro.h **** 
 129:FreeRTOS/Source/portable/GCC/ARM_CM3/portmacro.h **** 	/* Generic helper function. */
 130:FreeRTOS/Source/portable/GCC/ARM_CM3/portmacro.h **** 	__attribute__( ( always_inline ) ) static inline uint8_t ucPortCountLeadingZeros( uint32_t ulBitma
 131:FreeRTOS/Source/portable/GCC/ARM_CM3/portmacro.h **** 	{
 132:FreeRTOS/Source/portable/GCC/ARM_CM3/portmacro.h **** 	uint8_t ucReturn;
 133:FreeRTOS/Source/portable/GCC/ARM_CM3/portmacro.h **** 
 134:FreeRTOS/Source/portable/GCC/ARM_CM3/portmacro.h **** 		__asm volatile ( "clz %0, %1" : "=r" ( ucReturn ) : "r" ( ulBitmap ) : "memory" );
 135:FreeRTOS/Source/portable/GCC/ARM_CM3/portmacro.h **** 		return ucReturn;
 136:FreeRTOS/Source/portable/GCC/ARM_CM3/portmacro.h **** 	}
 137:FreeRTOS/Source/portable/GCC/ARM_CM3/portmacro.h **** 
 138:FreeRTOS/Source/portable/GCC/ARM_CM3/portmacro.h **** 	/* Check the configuration. */
 139:FreeRTOS/Source/portable/GCC/ARM_CM3/portmacro.h **** 	#if( configMAX_PRIORITIES > 32 )
 140:FreeRTOS/Source/portable/GCC/ARM_CM3/portmacro.h **** 		#error configUSE_PORT_OPTIMISED_TASK_SELECTION can only be set to 1 when configMAX_PRIORITIES is 
 141:FreeRTOS/Source/portable/GCC/ARM_CM3/portmacro.h **** 	#endif
 142:FreeRTOS/Source/portable/GCC/ARM_CM3/portmacro.h **** 
 143:FreeRTOS/Source/portable/GCC/ARM_CM3/portmacro.h **** 	/* Store/clear the ready priorities in a bit map. */
 144:FreeRTOS/Source/portable/GCC/ARM_CM3/portmacro.h **** 	#define portRECORD_READY_PRIORITY( uxPriority, uxReadyPriorities ) ( uxReadyPriorities ) |= ( 1UL 
 145:FreeRTOS/Source/portable/GCC/ARM_CM3/portmacro.h **** 	#define portRESET_READY_PRIORITY( uxPriority, uxReadyPriorities ) ( uxReadyPriorities ) &= ~( 1UL 
 146:FreeRTOS/Source/portable/GCC/ARM_CM3/portmacro.h **** 
 147:FreeRTOS/Source/portable/GCC/ARM_CM3/portmacro.h **** 	/*-----------------------------------------------------------*/
 148:FreeRTOS/Source/portable/GCC/ARM_CM3/portmacro.h **** 
 149:FreeRTOS/Source/portable/GCC/ARM_CM3/portmacro.h **** 	#define portGET_HIGHEST_PRIORITY( uxTopPriority, uxReadyPriorities ) uxTopPriority = ( 31UL - ( ui
 150:FreeRTOS/Source/portable/GCC/ARM_CM3/portmacro.h **** 
 151:FreeRTOS/Source/portable/GCC/ARM_CM3/portmacro.h **** #endif /* configUSE_PORT_OPTIMISED_TASK_SELECTION */
 152:FreeRTOS/Source/portable/GCC/ARM_CM3/portmacro.h **** 
 153:FreeRTOS/Source/portable/GCC/ARM_CM3/portmacro.h **** /*-----------------------------------------------------------*/
 154:FreeRTOS/Source/portable/GCC/ARM_CM3/portmacro.h **** 
 155:FreeRTOS/Source/portable/GCC/ARM_CM3/portmacro.h **** #ifdef configASSERT
 156:FreeRTOS/Source/portable/GCC/ARM_CM3/portmacro.h **** 	void vPortValidateInterruptPriority( void );
 157:FreeRTOS/Source/portable/GCC/ARM_CM3/portmacro.h **** 	#define portASSERT_IF_INTERRUPT_PRIORITY_INVALID() 	vPortValidateInterruptPriority()
 158:FreeRTOS/Source/portable/GCC/ARM_CM3/portmacro.h **** #endif
 159:FreeRTOS/Source/portable/GCC/ARM_CM3/portmacro.h **** 
 160:FreeRTOS/Source/portable/GCC/ARM_CM3/portmacro.h **** /* portNOP() is not required by this port. */
 161:FreeRTOS/Source/portable/GCC/ARM_CM3/portmacro.h **** #define portNOP()
 162:FreeRTOS/Source/portable/GCC/ARM_CM3/portmacro.h **** 
 163:FreeRTOS/Source/portable/GCC/ARM_CM3/portmacro.h **** #define portINLINE	__inline
 164:FreeRTOS/Source/portable/GCC/ARM_CM3/portmacro.h **** 
 165:FreeRTOS/Source/portable/GCC/ARM_CM3/portmacro.h **** #ifndef portFORCE_INLINE
 166:FreeRTOS/Source/portable/GCC/ARM_CM3/portmacro.h **** 	#define portFORCE_INLINE inline __attribute__(( always_inline))
 167:FreeRTOS/Source/portable/GCC/ARM_CM3/portmacro.h **** #endif
 168:FreeRTOS/Source/portable/GCC/ARM_CM3/portmacro.h **** 
 169:FreeRTOS/Source/portable/GCC/ARM_CM3/portmacro.h **** /*-----------------------------------------------------------*/
 170:FreeRTOS/Source/portable/GCC/ARM_CM3/portmacro.h **** 
 171:FreeRTOS/Source/portable/GCC/ARM_CM3/portmacro.h **** portFORCE_INLINE static BaseType_t xPortIsInsideInterrupt( void )
 172:FreeRTOS/Source/portable/GCC/ARM_CM3/portmacro.h **** {
 173:FreeRTOS/Source/portable/GCC/ARM_CM3/portmacro.h **** uint32_t ulCurrentInterrupt;
 174:FreeRTOS/Source/portable/GCC/ARM_CM3/portmacro.h **** BaseType_t xReturn;
 175:FreeRTOS/Source/portable/GCC/ARM_CM3/portmacro.h **** 
 176:FreeRTOS/Source/portable/GCC/ARM_CM3/portmacro.h **** 	/* Obtain the number of the currently executing interrupt. */
 177:FreeRTOS/Source/portable/GCC/ARM_CM3/portmacro.h **** 	__asm volatile( "mrs %0, ipsr" : "=r"( ulCurrentInterrupt ) :: "memory" );
 178:FreeRTOS/Source/portable/GCC/ARM_CM3/portmacro.h **** 
 179:FreeRTOS/Source/portable/GCC/ARM_CM3/portmacro.h **** 	if( ulCurrentInterrupt == 0 )
 180:FreeRTOS/Source/portable/GCC/ARM_CM3/portmacro.h **** 	{
 181:FreeRTOS/Source/portable/GCC/ARM_CM3/portmacro.h **** 		xReturn = pdFALSE;
 182:FreeRTOS/Source/portable/GCC/ARM_CM3/portmacro.h **** 	}
 183:FreeRTOS/Source/portable/GCC/ARM_CM3/portmacro.h **** 	else
ARM GAS  /tmp/cckqXCjj.s 			page 48


 184:FreeRTOS/Source/portable/GCC/ARM_CM3/portmacro.h **** 	{
 185:FreeRTOS/Source/portable/GCC/ARM_CM3/portmacro.h **** 		xReturn = pdTRUE;
 186:FreeRTOS/Source/portable/GCC/ARM_CM3/portmacro.h **** 	}
 187:FreeRTOS/Source/portable/GCC/ARM_CM3/portmacro.h **** 
 188:FreeRTOS/Source/portable/GCC/ARM_CM3/portmacro.h **** 	return xReturn;
 189:FreeRTOS/Source/portable/GCC/ARM_CM3/portmacro.h **** }
 190:FreeRTOS/Source/portable/GCC/ARM_CM3/portmacro.h **** 
 191:FreeRTOS/Source/portable/GCC/ARM_CM3/portmacro.h **** /*-----------------------------------------------------------*/
 192:FreeRTOS/Source/portable/GCC/ARM_CM3/portmacro.h **** 
 193:FreeRTOS/Source/portable/GCC/ARM_CM3/portmacro.h **** portFORCE_INLINE static void vPortRaiseBASEPRI( void )
 194:FreeRTOS/Source/portable/GCC/ARM_CM3/portmacro.h **** {
 195:FreeRTOS/Source/portable/GCC/ARM_CM3/portmacro.h **** uint32_t ulNewBASEPRI;
 196:FreeRTOS/Source/portable/GCC/ARM_CM3/portmacro.h **** 
 197:FreeRTOS/Source/portable/GCC/ARM_CM3/portmacro.h **** 	__asm volatile
 198:FreeRTOS/Source/portable/GCC/ARM_CM3/portmacro.h **** 	(
 199:FreeRTOS/Source/portable/GCC/ARM_CM3/portmacro.h **** 		"	mov %0, %1												\n" \
 200:FreeRTOS/Source/portable/GCC/ARM_CM3/portmacro.h **** 		"	msr basepri, %0											\n" \
 201:FreeRTOS/Source/portable/GCC/ARM_CM3/portmacro.h **** 		"	isb														\n" \
 202:FreeRTOS/Source/portable/GCC/ARM_CM3/portmacro.h **** 		"	dsb														\n" \
 203:FreeRTOS/Source/portable/GCC/ARM_CM3/portmacro.h **** 		:"=r" (ulNewBASEPRI) : "i" ( configMAX_SYSCALL_INTERRUPT_PRIORITY ) : "memory"
 204:FreeRTOS/Source/portable/GCC/ARM_CM3/portmacro.h **** 	);
 205:FreeRTOS/Source/portable/GCC/ARM_CM3/portmacro.h **** }
 206:FreeRTOS/Source/portable/GCC/ARM_CM3/portmacro.h **** 
 207:FreeRTOS/Source/portable/GCC/ARM_CM3/portmacro.h **** /*-----------------------------------------------------------*/
 208:FreeRTOS/Source/portable/GCC/ARM_CM3/portmacro.h **** 
 209:FreeRTOS/Source/portable/GCC/ARM_CM3/portmacro.h **** portFORCE_INLINE static uint32_t ulPortRaiseBASEPRI( void )
 210:FreeRTOS/Source/portable/GCC/ARM_CM3/portmacro.h **** {
 211:FreeRTOS/Source/portable/GCC/ARM_CM3/portmacro.h **** uint32_t ulOriginalBASEPRI, ulNewBASEPRI;
 212:FreeRTOS/Source/portable/GCC/ARM_CM3/portmacro.h **** 
 213:FreeRTOS/Source/portable/GCC/ARM_CM3/portmacro.h **** 	__asm volatile
 970              		.loc 2 213 0
 971              		.syntax unified
 972              	@ 213 "FreeRTOS/Source/portable/GCC/ARM_CM3/portmacro.h" 1
 973 0458 EFF31182 			mrs r2, basepri											
 974 045c 4FF0BF03 		mov r3, #191												
 975 0460 83F31188 		msr basepri, r3											
 976 0464 BFF36F8F 		isb														
 977 0468 BFF34F8F 		dsb														
 978              	
 979              	@ 0 "" 2
 980              		.thumb
 981              		.syntax unified
 982 046c 3A61     		str	r2, [r7, #16]
 983 046e FB60     		str	r3, [r7, #12]
 214:FreeRTOS/Source/portable/GCC/ARM_CM3/portmacro.h **** 	(
 215:FreeRTOS/Source/portable/GCC/ARM_CM3/portmacro.h **** 		"	mrs %0, basepri											\n" \
 216:FreeRTOS/Source/portable/GCC/ARM_CM3/portmacro.h **** 		"	mov %1, %2												\n" \
 217:FreeRTOS/Source/portable/GCC/ARM_CM3/portmacro.h **** 		"	msr basepri, %1											\n" \
 218:FreeRTOS/Source/portable/GCC/ARM_CM3/portmacro.h **** 		"	isb														\n" \
 219:FreeRTOS/Source/portable/GCC/ARM_CM3/portmacro.h **** 		"	dsb														\n" \
 220:FreeRTOS/Source/portable/GCC/ARM_CM3/portmacro.h **** 		:"=r" (ulOriginalBASEPRI), "=r" (ulNewBASEPRI) : "i" ( configMAX_SYSCALL_INTERRUPT_PRIORITY ) : "
 221:FreeRTOS/Source/portable/GCC/ARM_CM3/portmacro.h **** 	);
 222:FreeRTOS/Source/portable/GCC/ARM_CM3/portmacro.h **** 
 223:FreeRTOS/Source/portable/GCC/ARM_CM3/portmacro.h **** 	/* This return will not be reached but is necessary to prevent compiler
 224:FreeRTOS/Source/portable/GCC/ARM_CM3/portmacro.h **** 	warnings. */
 225:FreeRTOS/Source/portable/GCC/ARM_CM3/portmacro.h **** 	return ulOriginalBASEPRI;
 984              		.loc 2 225 0
ARM GAS  /tmp/cckqXCjj.s 			page 49


 985 0470 3B69     		ldr	r3, [r7, #16]
 986              	.LBE29:
 987              	.LBE28:
1502:FreeRTOS/Source/tasks.c **** 	TCB_t const *pxTCB;
1503:FreeRTOS/Source/tasks.c **** 	UBaseType_t uxReturn, uxSavedInterruptState;
1504:FreeRTOS/Source/tasks.c **** 
1505:FreeRTOS/Source/tasks.c **** 		/* RTOS ports that support interrupt nesting have the concept of a
1506:FreeRTOS/Source/tasks.c **** 		maximum	system call (or maximum API call) interrupt priority.
1507:FreeRTOS/Source/tasks.c **** 		Interrupts that are	above the maximum system call priority are keep
1508:FreeRTOS/Source/tasks.c **** 		permanently enabled, even when the RTOS kernel is in a critical section,
1509:FreeRTOS/Source/tasks.c **** 		but cannot make any calls to FreeRTOS API functions.  If configASSERT()
1510:FreeRTOS/Source/tasks.c **** 		is defined in FreeRTOSConfig.h then
1511:FreeRTOS/Source/tasks.c **** 		portASSERT_IF_INTERRUPT_PRIORITY_INVALID() will result in an assertion
1512:FreeRTOS/Source/tasks.c **** 		failure if a FreeRTOS API function is called from an interrupt that has
1513:FreeRTOS/Source/tasks.c **** 		been assigned a priority above the configured maximum system call
1514:FreeRTOS/Source/tasks.c **** 		priority.  Only FreeRTOS functions that end in FromISR can be called
1515:FreeRTOS/Source/tasks.c **** 		from interrupts	that have been assigned a priority at or (logically)
1516:FreeRTOS/Source/tasks.c **** 		below the maximum system call interrupt priority.  FreeRTOS maintains a
1517:FreeRTOS/Source/tasks.c **** 		separate interrupt safe API to ensure interrupt entry is as fast and as
1518:FreeRTOS/Source/tasks.c **** 		simple as possible.  More information (albeit Cortex-M specific) is
1519:FreeRTOS/Source/tasks.c **** 		provided on the following link:
1520:FreeRTOS/Source/tasks.c **** 		https://www.freertos.org/RTOS-Cortex-M3-M4.html */
1521:FreeRTOS/Source/tasks.c **** 		portASSERT_IF_INTERRUPT_PRIORITY_INVALID();
1522:FreeRTOS/Source/tasks.c **** 
1523:FreeRTOS/Source/tasks.c **** 		uxSavedInterruptState = portSET_INTERRUPT_MASK_FROM_ISR();
 988              		.loc 1 1523 0
 989 0472 FB61     		str	r3, [r7, #28]
1524:FreeRTOS/Source/tasks.c **** 		{
1525:FreeRTOS/Source/tasks.c **** 			/* If null is passed in here then it is the priority of the calling
1526:FreeRTOS/Source/tasks.c **** 			task that is being queried. */
1527:FreeRTOS/Source/tasks.c **** 			pxTCB = prvGetTCBFromHandle( xTask );
 990              		.loc 1 1527 0
 991 0474 7B68     		ldr	r3, [r7, #4]
 992 0476 002B     		cmp	r3, #0
 993 0478 02D1     		bne	.L62
 994              		.loc 1 1527 0 is_stmt 0 discriminator 1
 995 047a 094B     		ldr	r3, .L65
 996 047c 1B68     		ldr	r3, [r3]
 997 047e 00E0     		b	.L63
 998              	.L62:
 999              		.loc 1 1527 0 discriminator 2
 1000 0480 7B68     		ldr	r3, [r7, #4]
 1001              	.L63:
 1002              		.loc 1 1527 0 discriminator 4
 1003 0482 BB61     		str	r3, [r7, #24]
1528:FreeRTOS/Source/tasks.c **** 			uxReturn = pxTCB->uxPriority;
 1004              		.loc 1 1528 0 is_stmt 1 discriminator 4
 1005 0484 BB69     		ldr	r3, [r7, #24]
 1006 0486 DB6A     		ldr	r3, [r3, #44]
 1007 0488 7B61     		str	r3, [r7, #20]
 1008 048a FB69     		ldr	r3, [r7, #28]
 1009 048c BB60     		str	r3, [r7, #8]
 1010              	.LBB30:
 1011              	.LBB31:
 226:FreeRTOS/Source/portable/GCC/ARM_CM3/portmacro.h **** }
 227:FreeRTOS/Source/portable/GCC/ARM_CM3/portmacro.h **** /*-----------------------------------------------------------*/
 228:FreeRTOS/Source/portable/GCC/ARM_CM3/portmacro.h **** 
ARM GAS  /tmp/cckqXCjj.s 			page 50


 229:FreeRTOS/Source/portable/GCC/ARM_CM3/portmacro.h **** portFORCE_INLINE static void vPortSetBASEPRI( uint32_t ulNewMaskValue )
 230:FreeRTOS/Source/portable/GCC/ARM_CM3/portmacro.h **** {
 231:FreeRTOS/Source/portable/GCC/ARM_CM3/portmacro.h **** 	__asm volatile
 1012              		.loc 2 231 0 discriminator 4
 1013 048e BB68     		ldr	r3, [r7, #8]
 1014              		.syntax unified
 1015              	@ 231 "FreeRTOS/Source/portable/GCC/ARM_CM3/portmacro.h" 1
 1016 0490 83F31188 			msr basepri, r3	
 1017              	@ 0 "" 2
 1018              		.thumb
 1019              		.syntax unified
 1020              	.LBE31:
 1021              	.LBE30:
1529:FreeRTOS/Source/tasks.c **** 		}
1530:FreeRTOS/Source/tasks.c **** 		portCLEAR_INTERRUPT_MASK_FROM_ISR( uxSavedInterruptState );
1531:FreeRTOS/Source/tasks.c **** 
1532:FreeRTOS/Source/tasks.c **** 		return uxReturn;
 1022              		.loc 1 1532 0 discriminator 4
 1023 0494 7B69     		ldr	r3, [r7, #20]
1533:FreeRTOS/Source/tasks.c **** 	}
 1024              		.loc 1 1533 0 discriminator 4
 1025 0496 1846     		mov	r0, r3
 1026 0498 2437     		adds	r7, r7, #36
 1027              		.cfi_def_cfa_offset 4
 1028 049a BD46     		mov	sp, r7
 1029              		.cfi_def_cfa_register 13
 1030              		@ sp needed
 1031 049c 80BC     		pop	{r7}
 1032              		.cfi_restore 7
 1033              		.cfi_def_cfa_offset 0
 1034 049e 7047     		bx	lr
 1035              	.L66:
 1036              		.align	2
 1037              	.L65:
 1038 04a0 00000000 		.word	pxCurrentTCB
 1039              		.cfi_endproc
 1040              	.LFE12:
 1041              		.size	uxTaskPriorityGetFromISR, .-uxTaskPriorityGetFromISR
 1042              		.align	1
 1043              		.global	vTaskPrioritySet
 1044              		.syntax unified
 1045              		.thumb
 1046              		.thumb_func
 1047              		.fpu softvfp
 1048              		.type	vTaskPrioritySet, %function
 1049              	vTaskPrioritySet:
 1050              	.LFB13:
1534:FreeRTOS/Source/tasks.c **** 
1535:FreeRTOS/Source/tasks.c **** #endif /* INCLUDE_uxTaskPriorityGet */
1536:FreeRTOS/Source/tasks.c **** /*-----------------------------------------------------------*/
1537:FreeRTOS/Source/tasks.c **** 
1538:FreeRTOS/Source/tasks.c **** #if ( INCLUDE_vTaskPrioritySet == 1 )
1539:FreeRTOS/Source/tasks.c **** 
1540:FreeRTOS/Source/tasks.c **** 	void vTaskPrioritySet( TaskHandle_t xTask, UBaseType_t uxNewPriority )
1541:FreeRTOS/Source/tasks.c **** 	{
 1051              		.loc 1 1541 0
 1052              		.cfi_startproc
ARM GAS  /tmp/cckqXCjj.s 			page 51


 1053              		@ args = 0, pretend = 0, frame = 24
 1054              		@ frame_needed = 1, uses_anonymous_args = 0
 1055 04a4 80B5     		push	{r7, lr}
 1056              		.cfi_def_cfa_offset 8
 1057              		.cfi_offset 7, -8
 1058              		.cfi_offset 14, -4
 1059 04a6 86B0     		sub	sp, sp, #24
 1060              		.cfi_def_cfa_offset 32
 1061 04a8 00AF     		add	r7, sp, #0
 1062              		.cfi_def_cfa_register 7
 1063 04aa 7860     		str	r0, [r7, #4]
 1064 04ac 3960     		str	r1, [r7]
1542:FreeRTOS/Source/tasks.c **** 	TCB_t *pxTCB;
1543:FreeRTOS/Source/tasks.c **** 	UBaseType_t uxCurrentBasePriority, uxPriorityUsedOnEntry;
1544:FreeRTOS/Source/tasks.c **** 	BaseType_t xYieldRequired = pdFALSE;
 1065              		.loc 1 1544 0
 1066 04ae 0023     		movs	r3, #0
 1067 04b0 7B61     		str	r3, [r7, #20]
1545:FreeRTOS/Source/tasks.c **** 
1546:FreeRTOS/Source/tasks.c **** 		configASSERT( ( uxNewPriority < configMAX_PRIORITIES ) );
1547:FreeRTOS/Source/tasks.c **** 
1548:FreeRTOS/Source/tasks.c **** 		/* Ensure the new priority is valid. */
1549:FreeRTOS/Source/tasks.c **** 		if( uxNewPriority >= ( UBaseType_t ) configMAX_PRIORITIES )
 1068              		.loc 1 1549 0
 1069 04b2 3B68     		ldr	r3, [r7]
 1070 04b4 042B     		cmp	r3, #4
 1071 04b6 01D9     		bls	.L68
1550:FreeRTOS/Source/tasks.c **** 		{
1551:FreeRTOS/Source/tasks.c **** 			uxNewPriority = ( UBaseType_t ) configMAX_PRIORITIES - ( UBaseType_t ) 1U;
 1072              		.loc 1 1551 0
 1073 04b8 0423     		movs	r3, #4
 1074 04ba 3B60     		str	r3, [r7]
 1075              	.L68:
1552:FreeRTOS/Source/tasks.c **** 		}
1553:FreeRTOS/Source/tasks.c **** 		else
1554:FreeRTOS/Source/tasks.c **** 		{
1555:FreeRTOS/Source/tasks.c **** 			mtCOVERAGE_TEST_MARKER();
1556:FreeRTOS/Source/tasks.c **** 		}
1557:FreeRTOS/Source/tasks.c **** 
1558:FreeRTOS/Source/tasks.c **** 		taskENTER_CRITICAL();
 1076              		.loc 1 1558 0
 1077 04bc FFF7FEFF 		bl	vPortEnterCritical
1559:FreeRTOS/Source/tasks.c **** 		{
1560:FreeRTOS/Source/tasks.c **** 			/* If null is passed in here then it is the priority of the calling
1561:FreeRTOS/Source/tasks.c **** 			task that is being changed. */
1562:FreeRTOS/Source/tasks.c **** 			pxTCB = prvGetTCBFromHandle( xTask );
 1078              		.loc 1 1562 0
 1079 04c0 7B68     		ldr	r3, [r7, #4]
 1080 04c2 002B     		cmp	r3, #0
 1081 04c4 02D1     		bne	.L69
 1082              		.loc 1 1562 0 is_stmt 0 discriminator 1
 1083 04c6 3C4B     		ldr	r3, .L77
 1084 04c8 1B68     		ldr	r3, [r3]
 1085 04ca 00E0     		b	.L70
 1086              	.L69:
 1087              		.loc 1 1562 0 discriminator 2
 1088 04cc 7B68     		ldr	r3, [r7, #4]
ARM GAS  /tmp/cckqXCjj.s 			page 52


 1089              	.L70:
 1090              		.loc 1 1562 0 discriminator 4
 1091 04ce 3B61     		str	r3, [r7, #16]
1563:FreeRTOS/Source/tasks.c **** 
1564:FreeRTOS/Source/tasks.c **** 			traceTASK_PRIORITY_SET( pxTCB, uxNewPriority );
1565:FreeRTOS/Source/tasks.c **** 
1566:FreeRTOS/Source/tasks.c **** 			#if ( configUSE_MUTEXES == 1 )
1567:FreeRTOS/Source/tasks.c **** 			{
1568:FreeRTOS/Source/tasks.c **** 				uxCurrentBasePriority = pxTCB->uxBasePriority;
1569:FreeRTOS/Source/tasks.c **** 			}
1570:FreeRTOS/Source/tasks.c **** 			#else
1571:FreeRTOS/Source/tasks.c **** 			{
1572:FreeRTOS/Source/tasks.c **** 				uxCurrentBasePriority = pxTCB->uxPriority;
 1092              		.loc 1 1572 0 is_stmt 1 discriminator 4
 1093 04d0 3B69     		ldr	r3, [r7, #16]
 1094 04d2 DB6A     		ldr	r3, [r3, #44]
 1095 04d4 FB60     		str	r3, [r7, #12]
1573:FreeRTOS/Source/tasks.c **** 			}
1574:FreeRTOS/Source/tasks.c **** 			#endif
1575:FreeRTOS/Source/tasks.c **** 
1576:FreeRTOS/Source/tasks.c **** 			if( uxCurrentBasePriority != uxNewPriority )
 1096              		.loc 1 1576 0 discriminator 4
 1097 04d6 FA68     		ldr	r2, [r7, #12]
 1098 04d8 3B68     		ldr	r3, [r7]
 1099 04da 9A42     		cmp	r2, r3
 1100 04dc 66D0     		beq	.L71
1577:FreeRTOS/Source/tasks.c **** 			{
1578:FreeRTOS/Source/tasks.c **** 				/* The priority change may have readied a task of higher
1579:FreeRTOS/Source/tasks.c **** 				priority than the calling task. */
1580:FreeRTOS/Source/tasks.c **** 				if( uxNewPriority > uxCurrentBasePriority )
 1101              		.loc 1 1580 0
 1102 04de 3A68     		ldr	r2, [r7]
 1103 04e0 FB68     		ldr	r3, [r7, #12]
 1104 04e2 9A42     		cmp	r2, r3
 1105 04e4 0DD9     		bls	.L72
1581:FreeRTOS/Source/tasks.c **** 				{
1582:FreeRTOS/Source/tasks.c **** 					if( pxTCB != pxCurrentTCB )
 1106              		.loc 1 1582 0
 1107 04e6 344B     		ldr	r3, .L77
 1108 04e8 1B68     		ldr	r3, [r3]
 1109 04ea 3A69     		ldr	r2, [r7, #16]
 1110 04ec 9A42     		cmp	r2, r3
 1111 04ee 0FD0     		beq	.L73
1583:FreeRTOS/Source/tasks.c **** 					{
1584:FreeRTOS/Source/tasks.c **** 						/* The priority of a task other than the currently
1585:FreeRTOS/Source/tasks.c **** 						running task is being raised.  Is the priority being
1586:FreeRTOS/Source/tasks.c **** 						raised above that of the running task? */
1587:FreeRTOS/Source/tasks.c **** 						if( uxNewPriority >= pxCurrentTCB->uxPriority )
 1112              		.loc 1 1587 0
 1113 04f0 314B     		ldr	r3, .L77
 1114 04f2 1B68     		ldr	r3, [r3]
 1115 04f4 DA6A     		ldr	r2, [r3, #44]
 1116 04f6 3B68     		ldr	r3, [r7]
 1117 04f8 9A42     		cmp	r2, r3
 1118 04fa 09D8     		bhi	.L73
1588:FreeRTOS/Source/tasks.c **** 						{
1589:FreeRTOS/Source/tasks.c **** 							xYieldRequired = pdTRUE;
ARM GAS  /tmp/cckqXCjj.s 			page 53


 1119              		.loc 1 1589 0
 1120 04fc 0123     		movs	r3, #1
 1121 04fe 7B61     		str	r3, [r7, #20]
 1122 0500 06E0     		b	.L73
 1123              	.L72:
1590:FreeRTOS/Source/tasks.c **** 						}
1591:FreeRTOS/Source/tasks.c **** 						else
1592:FreeRTOS/Source/tasks.c **** 						{
1593:FreeRTOS/Source/tasks.c **** 							mtCOVERAGE_TEST_MARKER();
1594:FreeRTOS/Source/tasks.c **** 						}
1595:FreeRTOS/Source/tasks.c **** 					}
1596:FreeRTOS/Source/tasks.c **** 					else
1597:FreeRTOS/Source/tasks.c **** 					{
1598:FreeRTOS/Source/tasks.c **** 						/* The priority of the running task is being raised,
1599:FreeRTOS/Source/tasks.c **** 						but the running task must already be the highest
1600:FreeRTOS/Source/tasks.c **** 						priority task able to run so no yield is required. */
1601:FreeRTOS/Source/tasks.c **** 					}
1602:FreeRTOS/Source/tasks.c **** 				}
1603:FreeRTOS/Source/tasks.c **** 				else if( pxTCB == pxCurrentTCB )
 1124              		.loc 1 1603 0
 1125 0502 2D4B     		ldr	r3, .L77
 1126 0504 1B68     		ldr	r3, [r3]
 1127 0506 3A69     		ldr	r2, [r7, #16]
 1128 0508 9A42     		cmp	r2, r3
 1129 050a 01D1     		bne	.L73
1604:FreeRTOS/Source/tasks.c **** 				{
1605:FreeRTOS/Source/tasks.c **** 					/* Setting the priority of the running task down means
1606:FreeRTOS/Source/tasks.c **** 					there may now be another task of higher priority that
1607:FreeRTOS/Source/tasks.c **** 					is ready to execute. */
1608:FreeRTOS/Source/tasks.c **** 					xYieldRequired = pdTRUE;
 1130              		.loc 1 1608 0
 1131 050c 0123     		movs	r3, #1
 1132 050e 7B61     		str	r3, [r7, #20]
 1133              	.L73:
1609:FreeRTOS/Source/tasks.c **** 				}
1610:FreeRTOS/Source/tasks.c **** 				else
1611:FreeRTOS/Source/tasks.c **** 				{
1612:FreeRTOS/Source/tasks.c **** 					/* Setting the priority of any other task down does not
1613:FreeRTOS/Source/tasks.c **** 					require a yield as the running task must be above the
1614:FreeRTOS/Source/tasks.c **** 					new priority of the task being modified. */
1615:FreeRTOS/Source/tasks.c **** 				}
1616:FreeRTOS/Source/tasks.c **** 
1617:FreeRTOS/Source/tasks.c **** 				/* Remember the ready list the task might be referenced from
1618:FreeRTOS/Source/tasks.c **** 				before its uxPriority member is changed so the
1619:FreeRTOS/Source/tasks.c **** 				taskRESET_READY_PRIORITY() macro can function correctly. */
1620:FreeRTOS/Source/tasks.c **** 				uxPriorityUsedOnEntry = pxTCB->uxPriority;
 1134              		.loc 1 1620 0
 1135 0510 3B69     		ldr	r3, [r7, #16]
 1136 0512 DB6A     		ldr	r3, [r3, #44]
 1137 0514 BB60     		str	r3, [r7, #8]
1621:FreeRTOS/Source/tasks.c **** 
1622:FreeRTOS/Source/tasks.c **** 				#if ( configUSE_MUTEXES == 1 )
1623:FreeRTOS/Source/tasks.c **** 				{
1624:FreeRTOS/Source/tasks.c **** 					/* Only change the priority being used if the task is not
1625:FreeRTOS/Source/tasks.c **** 					currently using an inherited priority. */
1626:FreeRTOS/Source/tasks.c **** 					if( pxTCB->uxBasePriority == pxTCB->uxPriority )
1627:FreeRTOS/Source/tasks.c **** 					{
ARM GAS  /tmp/cckqXCjj.s 			page 54


1628:FreeRTOS/Source/tasks.c **** 						pxTCB->uxPriority = uxNewPriority;
1629:FreeRTOS/Source/tasks.c **** 					}
1630:FreeRTOS/Source/tasks.c **** 					else
1631:FreeRTOS/Source/tasks.c **** 					{
1632:FreeRTOS/Source/tasks.c **** 						mtCOVERAGE_TEST_MARKER();
1633:FreeRTOS/Source/tasks.c **** 					}
1634:FreeRTOS/Source/tasks.c **** 
1635:FreeRTOS/Source/tasks.c **** 					/* The base priority gets set whatever. */
1636:FreeRTOS/Source/tasks.c **** 					pxTCB->uxBasePriority = uxNewPriority;
1637:FreeRTOS/Source/tasks.c **** 				}
1638:FreeRTOS/Source/tasks.c **** 				#else
1639:FreeRTOS/Source/tasks.c **** 				{
1640:FreeRTOS/Source/tasks.c **** 					pxTCB->uxPriority = uxNewPriority;
 1138              		.loc 1 1640 0
 1139 0516 3B69     		ldr	r3, [r7, #16]
 1140 0518 3A68     		ldr	r2, [r7]
 1141 051a DA62     		str	r2, [r3, #44]
1641:FreeRTOS/Source/tasks.c **** 				}
1642:FreeRTOS/Source/tasks.c **** 				#endif
1643:FreeRTOS/Source/tasks.c **** 
1644:FreeRTOS/Source/tasks.c **** 				/* Only reset the event list item value if the value is not
1645:FreeRTOS/Source/tasks.c **** 				being used for anything else. */
1646:FreeRTOS/Source/tasks.c **** 				if( ( listGET_LIST_ITEM_VALUE( &( pxTCB->xEventListItem ) ) & taskEVENT_LIST_ITEM_VALUE_IN_USE 
 1142              		.loc 1 1646 0
 1143 051c 3B69     		ldr	r3, [r7, #16]
 1144 051e 9B69     		ldr	r3, [r3, #24]
 1145 0520 002B     		cmp	r3, #0
 1146 0522 04DB     		blt	.L74
1647:FreeRTOS/Source/tasks.c **** 				{
1648:FreeRTOS/Source/tasks.c **** 					listSET_LIST_ITEM_VALUE( &( pxTCB->xEventListItem ), ( ( TickType_t ) configMAX_PRIORITIES - (
 1147              		.loc 1 1648 0
 1148 0524 3B68     		ldr	r3, [r7]
 1149 0526 C3F10502 		rsb	r2, r3, #5
 1150 052a 3B69     		ldr	r3, [r7, #16]
 1151 052c 9A61     		str	r2, [r3, #24]
 1152              	.L74:
1649:FreeRTOS/Source/tasks.c **** 				}
1650:FreeRTOS/Source/tasks.c **** 				else
1651:FreeRTOS/Source/tasks.c **** 				{
1652:FreeRTOS/Source/tasks.c **** 					mtCOVERAGE_TEST_MARKER();
1653:FreeRTOS/Source/tasks.c **** 				}
1654:FreeRTOS/Source/tasks.c **** 
1655:FreeRTOS/Source/tasks.c **** 				/* If the task is in the blocked or suspended list we need do
1656:FreeRTOS/Source/tasks.c **** 				nothing more than change its priority variable. However, if
1657:FreeRTOS/Source/tasks.c **** 				the task is in a ready list it needs to be removed and placed
1658:FreeRTOS/Source/tasks.c **** 				in the list appropriate to its new priority. */
1659:FreeRTOS/Source/tasks.c **** 				if( listIS_CONTAINED_WITHIN( &( pxReadyTasksLists[ uxPriorityUsedOnEntry ] ), &( pxTCB->xStateL
 1153              		.loc 1 1659 0
 1154 052e 3B69     		ldr	r3, [r7, #16]
 1155 0530 5969     		ldr	r1, [r3, #20]
 1156 0532 BA68     		ldr	r2, [r7, #8]
 1157 0534 1346     		mov	r3, r2
 1158 0536 9B00     		lsls	r3, r3, #2
 1159 0538 1344     		add	r3, r3, r2
 1160 053a 9B00     		lsls	r3, r3, #2
 1161 053c 1F4A     		ldr	r2, .L77+4
 1162 053e 1344     		add	r3, r3, r2
ARM GAS  /tmp/cckqXCjj.s 			page 55


 1163 0540 9942     		cmp	r1, r3
 1164 0542 28D1     		bne	.L75
1660:FreeRTOS/Source/tasks.c **** 				{
1661:FreeRTOS/Source/tasks.c **** 					/* The task is currently in its ready list - remove before
1662:FreeRTOS/Source/tasks.c **** 					adding it to it's new ready list.  As we are in a critical
1663:FreeRTOS/Source/tasks.c **** 					section we can do this even if the scheduler is suspended. */
1664:FreeRTOS/Source/tasks.c **** 					if( uxListRemove( &( pxTCB->xStateListItem ) ) == ( UBaseType_t ) 0 )
 1165              		.loc 1 1664 0
 1166 0544 3B69     		ldr	r3, [r7, #16]
 1167 0546 0433     		adds	r3, r3, #4
 1168 0548 1846     		mov	r0, r3
 1169 054a FFF7FEFF 		bl	uxListRemove
 1170 054e 0346     		mov	r3, r0
 1171 0550 002B     		cmp	r3, #0
 1172 0552 09D1     		bne	.L76
1665:FreeRTOS/Source/tasks.c **** 					{
1666:FreeRTOS/Source/tasks.c **** 						/* It is known that the task is in its ready list so
1667:FreeRTOS/Source/tasks.c **** 						there is no need to check again and the port level
1668:FreeRTOS/Source/tasks.c **** 						reset macro can be called directly. */
1669:FreeRTOS/Source/tasks.c **** 						portRESET_READY_PRIORITY( uxPriorityUsedOnEntry, uxTopReadyPriority );
 1173              		.loc 1 1669 0
 1174 0554 0122     		movs	r2, #1
 1175 0556 BB68     		ldr	r3, [r7, #8]
 1176 0558 02FA03F3 		lsl	r3, r2, r3
 1177 055c DA43     		mvns	r2, r3
 1178 055e 184B     		ldr	r3, .L77+8
 1179 0560 1B68     		ldr	r3, [r3]
 1180 0562 1340     		ands	r3, r3, r2
 1181 0564 164A     		ldr	r2, .L77+8
 1182 0566 1360     		str	r3, [r2]
 1183              	.L76:
1670:FreeRTOS/Source/tasks.c **** 					}
1671:FreeRTOS/Source/tasks.c **** 					else
1672:FreeRTOS/Source/tasks.c **** 					{
1673:FreeRTOS/Source/tasks.c **** 						mtCOVERAGE_TEST_MARKER();
1674:FreeRTOS/Source/tasks.c **** 					}
1675:FreeRTOS/Source/tasks.c **** 					prvAddTaskToReadyList( pxTCB );
 1184              		.loc 1 1675 0
 1185 0568 3B69     		ldr	r3, [r7, #16]
 1186 056a DB6A     		ldr	r3, [r3, #44]
 1187 056c 0122     		movs	r2, #1
 1188 056e 9A40     		lsls	r2, r2, r3
 1189 0570 134B     		ldr	r3, .L77+8
 1190 0572 1B68     		ldr	r3, [r3]
 1191 0574 1343     		orrs	r3, r3, r2
 1192 0576 124A     		ldr	r2, .L77+8
 1193 0578 1360     		str	r3, [r2]
 1194 057a 3B69     		ldr	r3, [r7, #16]
 1195 057c DA6A     		ldr	r2, [r3, #44]
 1196 057e 1346     		mov	r3, r2
 1197 0580 9B00     		lsls	r3, r3, #2
 1198 0582 1344     		add	r3, r3, r2
 1199 0584 9B00     		lsls	r3, r3, #2
 1200 0586 0D4A     		ldr	r2, .L77+4
 1201 0588 1A44     		add	r2, r2, r3
 1202 058a 3B69     		ldr	r3, [r7, #16]
 1203 058c 0433     		adds	r3, r3, #4
ARM GAS  /tmp/cckqXCjj.s 			page 56


 1204 058e 1946     		mov	r1, r3
 1205 0590 1046     		mov	r0, r2
 1206 0592 FFF7FEFF 		bl	vListInsertEnd
 1207              	.L75:
1676:FreeRTOS/Source/tasks.c **** 				}
1677:FreeRTOS/Source/tasks.c **** 				else
1678:FreeRTOS/Source/tasks.c **** 				{
1679:FreeRTOS/Source/tasks.c **** 					mtCOVERAGE_TEST_MARKER();
1680:FreeRTOS/Source/tasks.c **** 				}
1681:FreeRTOS/Source/tasks.c **** 
1682:FreeRTOS/Source/tasks.c **** 				if( xYieldRequired != pdFALSE )
 1208              		.loc 1 1682 0
 1209 0596 7B69     		ldr	r3, [r7, #20]
 1210 0598 002B     		cmp	r3, #0
 1211 059a 07D0     		beq	.L71
1683:FreeRTOS/Source/tasks.c **** 				{
1684:FreeRTOS/Source/tasks.c **** 					taskYIELD_IF_USING_PREEMPTION();
 1212              		.loc 1 1684 0
 1213 059c 094B     		ldr	r3, .L77+12
 1214 059e 4FF08052 		mov	r2, #268435456
 1215 05a2 1A60     		str	r2, [r3]
 1216              		.syntax unified
 1217              	@ 1684 "FreeRTOS/Source/tasks.c" 1
 1218 05a4 BFF34F8F 		dsb
 1219              	@ 0 "" 2
 1220              	@ 1684 "FreeRTOS/Source/tasks.c" 1
 1221 05a8 BFF36F8F 		isb
 1222              	@ 0 "" 2
 1223              		.thumb
 1224              		.syntax unified
 1225              	.L71:
1685:FreeRTOS/Source/tasks.c **** 				}
1686:FreeRTOS/Source/tasks.c **** 				else
1687:FreeRTOS/Source/tasks.c **** 				{
1688:FreeRTOS/Source/tasks.c **** 					mtCOVERAGE_TEST_MARKER();
1689:FreeRTOS/Source/tasks.c **** 				}
1690:FreeRTOS/Source/tasks.c **** 
1691:FreeRTOS/Source/tasks.c **** 				/* Remove compiler warning about unused variables when the port
1692:FreeRTOS/Source/tasks.c **** 				optimised task selection is not being used. */
1693:FreeRTOS/Source/tasks.c **** 				( void ) uxPriorityUsedOnEntry;
1694:FreeRTOS/Source/tasks.c **** 			}
1695:FreeRTOS/Source/tasks.c **** 		}
1696:FreeRTOS/Source/tasks.c **** 		taskEXIT_CRITICAL();
 1226              		.loc 1 1696 0
 1227 05ac FFF7FEFF 		bl	vPortExitCritical
1697:FreeRTOS/Source/tasks.c **** 	}
 1228              		.loc 1 1697 0
 1229 05b0 00BF     		nop
 1230 05b2 1837     		adds	r7, r7, #24
 1231              		.cfi_def_cfa_offset 8
 1232 05b4 BD46     		mov	sp, r7
 1233              		.cfi_def_cfa_register 13
 1234              		@ sp needed
 1235 05b6 80BD     		pop	{r7, pc}
 1236              	.L78:
 1237              		.align	2
 1238              	.L77:
ARM GAS  /tmp/cckqXCjj.s 			page 57


 1239 05b8 00000000 		.word	pxCurrentTCB
 1240 05bc 04000000 		.word	pxReadyTasksLists
 1241 05c0 E0000000 		.word	uxTopReadyPriority
 1242 05c4 04ED00E0 		.word	-536810236
 1243              		.cfi_endproc
 1244              	.LFE13:
 1245              		.size	vTaskPrioritySet, .-vTaskPrioritySet
 1246              		.align	1
 1247              		.global	vTaskSuspend
 1248              		.syntax unified
 1249              		.thumb
 1250              		.thumb_func
 1251              		.fpu softvfp
 1252              		.type	vTaskSuspend, %function
 1253              	vTaskSuspend:
 1254              	.LFB14:
1698:FreeRTOS/Source/tasks.c **** 
1699:FreeRTOS/Source/tasks.c **** #endif /* INCLUDE_vTaskPrioritySet */
1700:FreeRTOS/Source/tasks.c **** /*-----------------------------------------------------------*/
1701:FreeRTOS/Source/tasks.c **** 
1702:FreeRTOS/Source/tasks.c **** #if ( INCLUDE_vTaskSuspend == 1 )
1703:FreeRTOS/Source/tasks.c **** 
1704:FreeRTOS/Source/tasks.c **** 	void vTaskSuspend( TaskHandle_t xTaskToSuspend )
1705:FreeRTOS/Source/tasks.c **** 	{
 1255              		.loc 1 1705 0
 1256              		.cfi_startproc
 1257              		@ args = 0, pretend = 0, frame = 16
 1258              		@ frame_needed = 1, uses_anonymous_args = 0
 1259 05c8 80B5     		push	{r7, lr}
 1260              		.cfi_def_cfa_offset 8
 1261              		.cfi_offset 7, -8
 1262              		.cfi_offset 14, -4
 1263 05ca 84B0     		sub	sp, sp, #16
 1264              		.cfi_def_cfa_offset 24
 1265 05cc 00AF     		add	r7, sp, #0
 1266              		.cfi_def_cfa_register 7
 1267 05ce 7860     		str	r0, [r7, #4]
1706:FreeRTOS/Source/tasks.c **** 	TCB_t *pxTCB;
1707:FreeRTOS/Source/tasks.c **** 
1708:FreeRTOS/Source/tasks.c **** 		taskENTER_CRITICAL();
 1268              		.loc 1 1708 0
 1269 05d0 FFF7FEFF 		bl	vPortEnterCritical
1709:FreeRTOS/Source/tasks.c **** 		{
1710:FreeRTOS/Source/tasks.c **** 			/* If null is passed in here then it is the running task that is
1711:FreeRTOS/Source/tasks.c **** 			being suspended. */
1712:FreeRTOS/Source/tasks.c **** 			pxTCB = prvGetTCBFromHandle( xTaskToSuspend );
 1270              		.loc 1 1712 0
 1271 05d4 7B68     		ldr	r3, [r7, #4]
 1272 05d6 002B     		cmp	r3, #0
 1273 05d8 02D1     		bne	.L80
 1274              		.loc 1 1712 0 is_stmt 0 discriminator 1
 1275 05da 354B     		ldr	r3, .L92
 1276 05dc 1B68     		ldr	r3, [r3]
 1277 05de 00E0     		b	.L81
 1278              	.L80:
 1279              		.loc 1 1712 0 discriminator 2
 1280 05e0 7B68     		ldr	r3, [r7, #4]
ARM GAS  /tmp/cckqXCjj.s 			page 58


 1281              	.L81:
 1282              		.loc 1 1712 0 discriminator 4
 1283 05e2 FB60     		str	r3, [r7, #12]
1713:FreeRTOS/Source/tasks.c **** 
1714:FreeRTOS/Source/tasks.c **** 			traceTASK_SUSPEND( pxTCB );
1715:FreeRTOS/Source/tasks.c **** 
1716:FreeRTOS/Source/tasks.c **** 			/* Remove task from the ready/delayed list and place in the
1717:FreeRTOS/Source/tasks.c **** 			suspended list. */
1718:FreeRTOS/Source/tasks.c **** 			if( uxListRemove( &( pxTCB->xStateListItem ) ) == ( UBaseType_t ) 0 )
 1284              		.loc 1 1718 0 is_stmt 1 discriminator 4
 1285 05e4 FB68     		ldr	r3, [r7, #12]
 1286 05e6 0433     		adds	r3, r3, #4
 1287 05e8 1846     		mov	r0, r3
 1288 05ea FFF7FEFF 		bl	uxListRemove
 1289 05ee 0346     		mov	r3, r0
 1290 05f0 002B     		cmp	r3, #0
 1291 05f2 15D1     		bne	.L82
1719:FreeRTOS/Source/tasks.c **** 			{
1720:FreeRTOS/Source/tasks.c **** 				taskRESET_READY_PRIORITY( pxTCB->uxPriority );
 1292              		.loc 1 1720 0
 1293 05f4 FB68     		ldr	r3, [r7, #12]
 1294 05f6 DA6A     		ldr	r2, [r3, #44]
 1295 05f8 2E49     		ldr	r1, .L92+4
 1296 05fa 1346     		mov	r3, r2
 1297 05fc 9B00     		lsls	r3, r3, #2
 1298 05fe 1344     		add	r3, r3, r2
 1299 0600 9B00     		lsls	r3, r3, #2
 1300 0602 0B44     		add	r3, r3, r1
 1301 0604 1B68     		ldr	r3, [r3]
 1302 0606 002B     		cmp	r3, #0
 1303 0608 0AD1     		bne	.L82
 1304              		.loc 1 1720 0 is_stmt 0 discriminator 1
 1305 060a FB68     		ldr	r3, [r7, #12]
 1306 060c DB6A     		ldr	r3, [r3, #44]
 1307 060e 0122     		movs	r2, #1
 1308 0610 02FA03F3 		lsl	r3, r2, r3
 1309 0614 DA43     		mvns	r2, r3
 1310 0616 284B     		ldr	r3, .L92+8
 1311 0618 1B68     		ldr	r3, [r3]
 1312 061a 1340     		ands	r3, r3, r2
 1313 061c 264A     		ldr	r2, .L92+8
 1314 061e 1360     		str	r3, [r2]
 1315              	.L82:
1721:FreeRTOS/Source/tasks.c **** 			}
1722:FreeRTOS/Source/tasks.c **** 			else
1723:FreeRTOS/Source/tasks.c **** 			{
1724:FreeRTOS/Source/tasks.c **** 				mtCOVERAGE_TEST_MARKER();
1725:FreeRTOS/Source/tasks.c **** 			}
1726:FreeRTOS/Source/tasks.c **** 
1727:FreeRTOS/Source/tasks.c **** 			/* Is the task waiting on an event also? */
1728:FreeRTOS/Source/tasks.c **** 			if( listLIST_ITEM_CONTAINER( &( pxTCB->xEventListItem ) ) != NULL )
 1316              		.loc 1 1728 0 is_stmt 1
 1317 0620 FB68     		ldr	r3, [r7, #12]
 1318 0622 9B6A     		ldr	r3, [r3, #40]
 1319 0624 002B     		cmp	r3, #0
 1320 0626 04D0     		beq	.L84
1729:FreeRTOS/Source/tasks.c **** 			{
ARM GAS  /tmp/cckqXCjj.s 			page 59


1730:FreeRTOS/Source/tasks.c **** 				( void ) uxListRemove( &( pxTCB->xEventListItem ) );
 1321              		.loc 1 1730 0
 1322 0628 FB68     		ldr	r3, [r7, #12]
 1323 062a 1833     		adds	r3, r3, #24
 1324 062c 1846     		mov	r0, r3
 1325 062e FFF7FEFF 		bl	uxListRemove
 1326              	.L84:
1731:FreeRTOS/Source/tasks.c **** 			}
1732:FreeRTOS/Source/tasks.c **** 			else
1733:FreeRTOS/Source/tasks.c **** 			{
1734:FreeRTOS/Source/tasks.c **** 				mtCOVERAGE_TEST_MARKER();
1735:FreeRTOS/Source/tasks.c **** 			}
1736:FreeRTOS/Source/tasks.c **** 
1737:FreeRTOS/Source/tasks.c **** 			vListInsertEnd( &xSuspendedTaskList, &( pxTCB->xStateListItem ) );
 1327              		.loc 1 1737 0
 1328 0632 FB68     		ldr	r3, [r7, #12]
 1329 0634 0433     		adds	r3, r3, #4
 1330 0636 1946     		mov	r1, r3
 1331 0638 2048     		ldr	r0, .L92+12
 1332 063a FFF7FEFF 		bl	vListInsertEnd
1738:FreeRTOS/Source/tasks.c **** 
1739:FreeRTOS/Source/tasks.c **** 			#if( configUSE_TASK_NOTIFICATIONS == 1 )
1740:FreeRTOS/Source/tasks.c **** 			{
1741:FreeRTOS/Source/tasks.c **** 				if( pxTCB->ucNotifyState == taskWAITING_NOTIFICATION )
 1333              		.loc 1 1741 0
 1334 063e FB68     		ldr	r3, [r7, #12]
 1335 0640 93F84830 		ldrb	r3, [r3, #72]
 1336 0644 DBB2     		uxtb	r3, r3
 1337 0646 012B     		cmp	r3, #1
 1338 0648 03D1     		bne	.L85
1742:FreeRTOS/Source/tasks.c **** 				{
1743:FreeRTOS/Source/tasks.c **** 					/* The task was blocked to wait for a notification, but is
1744:FreeRTOS/Source/tasks.c **** 					now suspended, so no notification was received. */
1745:FreeRTOS/Source/tasks.c **** 					pxTCB->ucNotifyState = taskNOT_WAITING_NOTIFICATION;
 1339              		.loc 1 1745 0
 1340 064a FB68     		ldr	r3, [r7, #12]
 1341 064c 0022     		movs	r2, #0
 1342 064e 83F84820 		strb	r2, [r3, #72]
 1343              	.L85:
1746:FreeRTOS/Source/tasks.c **** 				}
1747:FreeRTOS/Source/tasks.c **** 			}
1748:FreeRTOS/Source/tasks.c **** 			#endif
1749:FreeRTOS/Source/tasks.c **** 		}
1750:FreeRTOS/Source/tasks.c **** 		taskEXIT_CRITICAL();
 1344              		.loc 1 1750 0
 1345 0652 FFF7FEFF 		bl	vPortExitCritical
1751:FreeRTOS/Source/tasks.c **** 
1752:FreeRTOS/Source/tasks.c **** 		if( xSchedulerRunning != pdFALSE )
 1346              		.loc 1 1752 0
 1347 0656 1A4B     		ldr	r3, .L92+16
 1348 0658 1B68     		ldr	r3, [r3]
 1349 065a 002B     		cmp	r3, #0
 1350 065c 05D0     		beq	.L86
1753:FreeRTOS/Source/tasks.c **** 		{
1754:FreeRTOS/Source/tasks.c **** 			/* Reset the next expected unblock time in case it referred to the
1755:FreeRTOS/Source/tasks.c **** 			task that is now in the Suspended state. */
1756:FreeRTOS/Source/tasks.c **** 			taskENTER_CRITICAL();
ARM GAS  /tmp/cckqXCjj.s 			page 60


 1351              		.loc 1 1756 0
 1352 065e FFF7FEFF 		bl	vPortEnterCritical
1757:FreeRTOS/Source/tasks.c **** 			{
1758:FreeRTOS/Source/tasks.c **** 				prvResetNextTaskUnblockTime();
 1353              		.loc 1 1758 0
 1354 0662 00F011FD 		bl	prvResetNextTaskUnblockTime
1759:FreeRTOS/Source/tasks.c **** 			}
1760:FreeRTOS/Source/tasks.c **** 			taskEXIT_CRITICAL();
 1355              		.loc 1 1760 0
 1356 0666 FFF7FEFF 		bl	vPortExitCritical
 1357              	.L86:
1761:FreeRTOS/Source/tasks.c **** 		}
1762:FreeRTOS/Source/tasks.c **** 		else
1763:FreeRTOS/Source/tasks.c **** 		{
1764:FreeRTOS/Source/tasks.c **** 			mtCOVERAGE_TEST_MARKER();
1765:FreeRTOS/Source/tasks.c **** 		}
1766:FreeRTOS/Source/tasks.c **** 
1767:FreeRTOS/Source/tasks.c **** 		if( pxTCB == pxCurrentTCB )
 1358              		.loc 1 1767 0
 1359 066a 114B     		ldr	r3, .L92
 1360 066c 1B68     		ldr	r3, [r3]
 1361 066e FA68     		ldr	r2, [r7, #12]
 1362 0670 9A42     		cmp	r2, r3
 1363 0672 18D1     		bne	.L91
1768:FreeRTOS/Source/tasks.c **** 		{
1769:FreeRTOS/Source/tasks.c **** 			if( xSchedulerRunning != pdFALSE )
 1364              		.loc 1 1769 0
 1365 0674 124B     		ldr	r3, .L92+16
 1366 0676 1B68     		ldr	r3, [r3]
 1367 0678 002B     		cmp	r3, #0
 1368 067a 08D0     		beq	.L88
1770:FreeRTOS/Source/tasks.c **** 			{
1771:FreeRTOS/Source/tasks.c **** 				/* The current task has just been suspended. */
1772:FreeRTOS/Source/tasks.c **** 				configASSERT( uxSchedulerSuspended == 0 );
1773:FreeRTOS/Source/tasks.c **** 				portYIELD_WITHIN_API();
 1369              		.loc 1 1773 0
 1370 067c 114B     		ldr	r3, .L92+20
 1371 067e 4FF08052 		mov	r2, #268435456
 1372 0682 1A60     		str	r2, [r3]
 1373              		.syntax unified
 1374              	@ 1773 "FreeRTOS/Source/tasks.c" 1
 1375 0684 BFF34F8F 		dsb
 1376              	@ 0 "" 2
 1377              	@ 1773 "FreeRTOS/Source/tasks.c" 1
 1378 0688 BFF36F8F 		isb
 1379              	@ 0 "" 2
1774:FreeRTOS/Source/tasks.c **** 			}
1775:FreeRTOS/Source/tasks.c **** 			else
1776:FreeRTOS/Source/tasks.c **** 			{
1777:FreeRTOS/Source/tasks.c **** 				/* The scheduler is not running, but the task that was pointed
1778:FreeRTOS/Source/tasks.c **** 				to by pxCurrentTCB has just been suspended and pxCurrentTCB
1779:FreeRTOS/Source/tasks.c **** 				must be adjusted to point to a different task. */
1780:FreeRTOS/Source/tasks.c **** 				if( listCURRENT_LIST_LENGTH( &xSuspendedTaskList ) == uxCurrentNumberOfTasks ) /*lint !e931 Rig
1781:FreeRTOS/Source/tasks.c **** 				{
1782:FreeRTOS/Source/tasks.c **** 					/* No other tasks are ready, so set pxCurrentTCB back to
1783:FreeRTOS/Source/tasks.c **** 					NULL so when the next task is created pxCurrentTCB will
1784:FreeRTOS/Source/tasks.c **** 					be set to point to it no matter what its relative priority
ARM GAS  /tmp/cckqXCjj.s 			page 61


1785:FreeRTOS/Source/tasks.c **** 					is. */
1786:FreeRTOS/Source/tasks.c **** 					pxCurrentTCB = NULL;
1787:FreeRTOS/Source/tasks.c **** 				}
1788:FreeRTOS/Source/tasks.c **** 				else
1789:FreeRTOS/Source/tasks.c **** 				{
1790:FreeRTOS/Source/tasks.c **** 					vTaskSwitchContext();
1791:FreeRTOS/Source/tasks.c **** 				}
1792:FreeRTOS/Source/tasks.c **** 			}
1793:FreeRTOS/Source/tasks.c **** 		}
1794:FreeRTOS/Source/tasks.c **** 		else
1795:FreeRTOS/Source/tasks.c **** 		{
1796:FreeRTOS/Source/tasks.c **** 			mtCOVERAGE_TEST_MARKER();
1797:FreeRTOS/Source/tasks.c **** 		}
1798:FreeRTOS/Source/tasks.c **** 	}
 1380              		.loc 1 1798 0
 1381              		.thumb
 1382              		.syntax unified
 1383 068c 0BE0     		b	.L91
 1384              	.L88:
1780:FreeRTOS/Source/tasks.c **** 				{
 1385              		.loc 1 1780 0
 1386 068e 0B4B     		ldr	r3, .L92+12
 1387 0690 1A68     		ldr	r2, [r3]
 1388 0692 0D4B     		ldr	r3, .L92+24
 1389 0694 1B68     		ldr	r3, [r3]
 1390 0696 9A42     		cmp	r2, r3
 1391 0698 03D1     		bne	.L90
1786:FreeRTOS/Source/tasks.c **** 				}
 1392              		.loc 1 1786 0
 1393 069a 054B     		ldr	r3, .L92
 1394 069c 0022     		movs	r2, #0
 1395 069e 1A60     		str	r2, [r3]
 1396              		.loc 1 1798 0
 1397 06a0 01E0     		b	.L91
 1398              	.L90:
1790:FreeRTOS/Source/tasks.c **** 				}
 1399              		.loc 1 1790 0
 1400 06a2 FFF7FEFF 		bl	vTaskSwitchContext
 1401              	.L91:
 1402              		.loc 1 1798 0
 1403 06a6 00BF     		nop
 1404 06a8 1037     		adds	r7, r7, #16
 1405              		.cfi_def_cfa_offset 8
 1406 06aa BD46     		mov	sp, r7
 1407              		.cfi_def_cfa_register 13
 1408              		@ sp needed
 1409 06ac 80BD     		pop	{r7, pc}
 1410              	.L93:
 1411 06ae 00BF     		.align	2
 1412              	.L92:
 1413 06b0 00000000 		.word	pxCurrentTCB
 1414 06b4 04000000 		.word	pxReadyTasksLists
 1415 06b8 E0000000 		.word	uxTopReadyPriority
 1416 06bc C4000000 		.word	xSuspendedTaskList
 1417 06c0 E4000000 		.word	xSchedulerRunning
 1418 06c4 04ED00E0 		.word	-536810236
 1419 06c8 D8000000 		.word	uxCurrentNumberOfTasks
ARM GAS  /tmp/cckqXCjj.s 			page 62


 1420              		.cfi_endproc
 1421              	.LFE14:
 1422              		.size	vTaskSuspend, .-vTaskSuspend
 1423              		.align	1
 1424              		.syntax unified
 1425              		.thumb
 1426              		.thumb_func
 1427              		.fpu softvfp
 1428              		.type	prvTaskIsTaskSuspended, %function
 1429              	prvTaskIsTaskSuspended:
 1430              	.LFB15:
1799:FreeRTOS/Source/tasks.c **** 
1800:FreeRTOS/Source/tasks.c **** #endif /* INCLUDE_vTaskSuspend */
1801:FreeRTOS/Source/tasks.c **** /*-----------------------------------------------------------*/
1802:FreeRTOS/Source/tasks.c **** 
1803:FreeRTOS/Source/tasks.c **** #if ( INCLUDE_vTaskSuspend == 1 )
1804:FreeRTOS/Source/tasks.c **** 
1805:FreeRTOS/Source/tasks.c **** 	static BaseType_t prvTaskIsTaskSuspended( const TaskHandle_t xTask )
1806:FreeRTOS/Source/tasks.c **** 	{
 1431              		.loc 1 1806 0
 1432              		.cfi_startproc
 1433              		@ args = 0, pretend = 0, frame = 16
 1434              		@ frame_needed = 1, uses_anonymous_args = 0
 1435              		@ link register save eliminated.
 1436 06cc 80B4     		push	{r7}
 1437              		.cfi_def_cfa_offset 4
 1438              		.cfi_offset 7, -4
 1439 06ce 85B0     		sub	sp, sp, #20
 1440              		.cfi_def_cfa_offset 24
 1441 06d0 00AF     		add	r7, sp, #0
 1442              		.cfi_def_cfa_register 7
 1443 06d2 7860     		str	r0, [r7, #4]
1807:FreeRTOS/Source/tasks.c **** 	BaseType_t xReturn = pdFALSE;
 1444              		.loc 1 1807 0
 1445 06d4 0023     		movs	r3, #0
 1446 06d6 FB60     		str	r3, [r7, #12]
1808:FreeRTOS/Source/tasks.c **** 	const TCB_t * const pxTCB = xTask;
 1447              		.loc 1 1808 0
 1448 06d8 7B68     		ldr	r3, [r7, #4]
 1449 06da BB60     		str	r3, [r7, #8]
1809:FreeRTOS/Source/tasks.c **** 
1810:FreeRTOS/Source/tasks.c **** 		/* Accesses xPendingReadyList so must be called from a critical
1811:FreeRTOS/Source/tasks.c **** 		section. */
1812:FreeRTOS/Source/tasks.c **** 
1813:FreeRTOS/Source/tasks.c **** 		/* It does not make sense to check if the calling task is suspended. */
1814:FreeRTOS/Source/tasks.c **** 		configASSERT( xTask );
1815:FreeRTOS/Source/tasks.c **** 
1816:FreeRTOS/Source/tasks.c **** 		/* Is the task being resumed actually in the suspended list? */
1817:FreeRTOS/Source/tasks.c **** 		if( listIS_CONTAINED_WITHIN( &xSuspendedTaskList, &( pxTCB->xStateListItem ) ) != pdFALSE )
 1450              		.loc 1 1817 0
 1451 06dc BB68     		ldr	r3, [r7, #8]
 1452 06de 5B69     		ldr	r3, [r3, #20]
 1453 06e0 094A     		ldr	r2, .L97
 1454 06e2 9342     		cmp	r3, r2
 1455 06e4 0AD1     		bne	.L95
1818:FreeRTOS/Source/tasks.c **** 		{
1819:FreeRTOS/Source/tasks.c **** 			/* Has the task already been resumed from within an ISR? */
ARM GAS  /tmp/cckqXCjj.s 			page 63


1820:FreeRTOS/Source/tasks.c **** 			if( listIS_CONTAINED_WITHIN( &xPendingReadyList, &( pxTCB->xEventListItem ) ) == pdFALSE )
 1456              		.loc 1 1820 0
 1457 06e6 BB68     		ldr	r3, [r7, #8]
 1458 06e8 9B6A     		ldr	r3, [r3, #40]
 1459 06ea 084A     		ldr	r2, .L97+4
 1460 06ec 9342     		cmp	r3, r2
 1461 06ee 05D0     		beq	.L95
1821:FreeRTOS/Source/tasks.c **** 			{
1822:FreeRTOS/Source/tasks.c **** 				/* Is it in the suspended list because it is in the	Suspended
1823:FreeRTOS/Source/tasks.c **** 				state, or because is is blocked with no timeout? */
1824:FreeRTOS/Source/tasks.c **** 				if( listIS_CONTAINED_WITHIN( NULL, &( pxTCB->xEventListItem ) ) != pdFALSE ) /*lint !e961.  The
 1462              		.loc 1 1824 0
 1463 06f0 BB68     		ldr	r3, [r7, #8]
 1464 06f2 9B6A     		ldr	r3, [r3, #40]
 1465 06f4 002B     		cmp	r3, #0
 1466 06f6 01D1     		bne	.L95
1825:FreeRTOS/Source/tasks.c **** 				{
1826:FreeRTOS/Source/tasks.c **** 					xReturn = pdTRUE;
 1467              		.loc 1 1826 0
 1468 06f8 0123     		movs	r3, #1
 1469 06fa FB60     		str	r3, [r7, #12]
 1470              	.L95:
1827:FreeRTOS/Source/tasks.c **** 				}
1828:FreeRTOS/Source/tasks.c **** 				else
1829:FreeRTOS/Source/tasks.c **** 				{
1830:FreeRTOS/Source/tasks.c **** 					mtCOVERAGE_TEST_MARKER();
1831:FreeRTOS/Source/tasks.c **** 				}
1832:FreeRTOS/Source/tasks.c **** 			}
1833:FreeRTOS/Source/tasks.c **** 			else
1834:FreeRTOS/Source/tasks.c **** 			{
1835:FreeRTOS/Source/tasks.c **** 				mtCOVERAGE_TEST_MARKER();
1836:FreeRTOS/Source/tasks.c **** 			}
1837:FreeRTOS/Source/tasks.c **** 		}
1838:FreeRTOS/Source/tasks.c **** 		else
1839:FreeRTOS/Source/tasks.c **** 		{
1840:FreeRTOS/Source/tasks.c **** 			mtCOVERAGE_TEST_MARKER();
1841:FreeRTOS/Source/tasks.c **** 		}
1842:FreeRTOS/Source/tasks.c **** 
1843:FreeRTOS/Source/tasks.c **** 		return xReturn;
 1471              		.loc 1 1843 0
 1472 06fc FB68     		ldr	r3, [r7, #12]
1844:FreeRTOS/Source/tasks.c **** 	} /*lint !e818 xTask cannot be a pointer to const because it is a typedef. */
 1473              		.loc 1 1844 0
 1474 06fe 1846     		mov	r0, r3
 1475 0700 1437     		adds	r7, r7, #20
 1476              		.cfi_def_cfa_offset 4
 1477 0702 BD46     		mov	sp, r7
 1478              		.cfi_def_cfa_register 13
 1479              		@ sp needed
 1480 0704 80BC     		pop	{r7}
 1481              		.cfi_restore 7
 1482              		.cfi_def_cfa_offset 0
 1483 0706 7047     		bx	lr
 1484              	.L98:
 1485              		.align	2
 1486              	.L97:
 1487 0708 C4000000 		.word	xSuspendedTaskList
ARM GAS  /tmp/cckqXCjj.s 			page 64


 1488 070c 98000000 		.word	xPendingReadyList
 1489              		.cfi_endproc
 1490              	.LFE15:
 1491              		.size	prvTaskIsTaskSuspended, .-prvTaskIsTaskSuspended
 1492              		.align	1
 1493              		.global	vTaskResume
 1494              		.syntax unified
 1495              		.thumb
 1496              		.thumb_func
 1497              		.fpu softvfp
 1498              		.type	vTaskResume, %function
 1499              	vTaskResume:
 1500              	.LFB16:
1845:FreeRTOS/Source/tasks.c **** 
1846:FreeRTOS/Source/tasks.c **** #endif /* INCLUDE_vTaskSuspend */
1847:FreeRTOS/Source/tasks.c **** /*-----------------------------------------------------------*/
1848:FreeRTOS/Source/tasks.c **** 
1849:FreeRTOS/Source/tasks.c **** #if ( INCLUDE_vTaskSuspend == 1 )
1850:FreeRTOS/Source/tasks.c **** 
1851:FreeRTOS/Source/tasks.c **** 	void vTaskResume( TaskHandle_t xTaskToResume )
1852:FreeRTOS/Source/tasks.c **** 	{
 1501              		.loc 1 1852 0
 1502              		.cfi_startproc
 1503              		@ args = 0, pretend = 0, frame = 16
 1504              		@ frame_needed = 1, uses_anonymous_args = 0
 1505 0710 80B5     		push	{r7, lr}
 1506              		.cfi_def_cfa_offset 8
 1507              		.cfi_offset 7, -8
 1508              		.cfi_offset 14, -4
 1509 0712 84B0     		sub	sp, sp, #16
 1510              		.cfi_def_cfa_offset 24
 1511 0714 00AF     		add	r7, sp, #0
 1512              		.cfi_def_cfa_register 7
 1513 0716 7860     		str	r0, [r7, #4]
1853:FreeRTOS/Source/tasks.c **** 	TCB_t * const pxTCB = xTaskToResume;
 1514              		.loc 1 1853 0
 1515 0718 7B68     		ldr	r3, [r7, #4]
 1516 071a FB60     		str	r3, [r7, #12]
1854:FreeRTOS/Source/tasks.c **** 
1855:FreeRTOS/Source/tasks.c **** 		/* It does not make sense to resume the calling task. */
1856:FreeRTOS/Source/tasks.c **** 		configASSERT( xTaskToResume );
1857:FreeRTOS/Source/tasks.c **** 
1858:FreeRTOS/Source/tasks.c **** 		/* The parameter cannot be NULL as it is impossible to resume the
1859:FreeRTOS/Source/tasks.c **** 		currently executing task. */
1860:FreeRTOS/Source/tasks.c **** 		if( ( pxTCB != pxCurrentTCB ) && ( pxTCB != NULL ) )
 1517              		.loc 1 1860 0
 1518 071c 204B     		ldr	r3, .L103
 1519 071e 1B68     		ldr	r3, [r3]
 1520 0720 FA68     		ldr	r2, [r7, #12]
 1521 0722 9A42     		cmp	r2, r3
 1522 0724 37D0     		beq	.L102
 1523              		.loc 1 1860 0 is_stmt 0 discriminator 1
 1524 0726 FB68     		ldr	r3, [r7, #12]
 1525 0728 002B     		cmp	r3, #0
 1526 072a 34D0     		beq	.L102
1861:FreeRTOS/Source/tasks.c **** 		{
1862:FreeRTOS/Source/tasks.c **** 			taskENTER_CRITICAL();
ARM GAS  /tmp/cckqXCjj.s 			page 65


 1527              		.loc 1 1862 0 is_stmt 1
 1528 072c FFF7FEFF 		bl	vPortEnterCritical
1863:FreeRTOS/Source/tasks.c **** 			{
1864:FreeRTOS/Source/tasks.c **** 				if( prvTaskIsTaskSuspended( pxTCB ) != pdFALSE )
 1529              		.loc 1 1864 0
 1530 0730 F868     		ldr	r0, [r7, #12]
 1531 0732 FFF7CBFF 		bl	prvTaskIsTaskSuspended
 1532 0736 0346     		mov	r3, r0
 1533 0738 002B     		cmp	r3, #0
 1534 073a 2AD0     		beq	.L101
1865:FreeRTOS/Source/tasks.c **** 				{
1866:FreeRTOS/Source/tasks.c **** 					traceTASK_RESUME( pxTCB );
1867:FreeRTOS/Source/tasks.c **** 
1868:FreeRTOS/Source/tasks.c **** 					/* The ready list can be accessed even if the scheduler is
1869:FreeRTOS/Source/tasks.c **** 					suspended because this is inside a critical section. */
1870:FreeRTOS/Source/tasks.c **** 					( void ) uxListRemove(  &( pxTCB->xStateListItem ) );
 1535              		.loc 1 1870 0
 1536 073c FB68     		ldr	r3, [r7, #12]
 1537 073e 0433     		adds	r3, r3, #4
 1538 0740 1846     		mov	r0, r3
 1539 0742 FFF7FEFF 		bl	uxListRemove
1871:FreeRTOS/Source/tasks.c **** 					prvAddTaskToReadyList( pxTCB );
 1540              		.loc 1 1871 0
 1541 0746 FB68     		ldr	r3, [r7, #12]
 1542 0748 DB6A     		ldr	r3, [r3, #44]
 1543 074a 0122     		movs	r2, #1
 1544 074c 9A40     		lsls	r2, r2, r3
 1545 074e 154B     		ldr	r3, .L103+4
 1546 0750 1B68     		ldr	r3, [r3]
 1547 0752 1343     		orrs	r3, r3, r2
 1548 0754 134A     		ldr	r2, .L103+4
 1549 0756 1360     		str	r3, [r2]
 1550 0758 FB68     		ldr	r3, [r7, #12]
 1551 075a DA6A     		ldr	r2, [r3, #44]
 1552 075c 1346     		mov	r3, r2
 1553 075e 9B00     		lsls	r3, r3, #2
 1554 0760 1344     		add	r3, r3, r2
 1555 0762 9B00     		lsls	r3, r3, #2
 1556 0764 104A     		ldr	r2, .L103+8
 1557 0766 1A44     		add	r2, r2, r3
 1558 0768 FB68     		ldr	r3, [r7, #12]
 1559 076a 0433     		adds	r3, r3, #4
 1560 076c 1946     		mov	r1, r3
 1561 076e 1046     		mov	r0, r2
 1562 0770 FFF7FEFF 		bl	vListInsertEnd
1872:FreeRTOS/Source/tasks.c **** 
1873:FreeRTOS/Source/tasks.c **** 					/* A higher priority task may have just been resumed. */
1874:FreeRTOS/Source/tasks.c **** 					if( pxTCB->uxPriority >= pxCurrentTCB->uxPriority )
 1563              		.loc 1 1874 0
 1564 0774 FB68     		ldr	r3, [r7, #12]
 1565 0776 DA6A     		ldr	r2, [r3, #44]
 1566 0778 094B     		ldr	r3, .L103
 1567 077a 1B68     		ldr	r3, [r3]
 1568 077c DB6A     		ldr	r3, [r3, #44]
 1569 077e 9A42     		cmp	r2, r3
 1570 0780 07D3     		bcc	.L101
1875:FreeRTOS/Source/tasks.c **** 					{
ARM GAS  /tmp/cckqXCjj.s 			page 66


1876:FreeRTOS/Source/tasks.c **** 						/* This yield may not cause the task just resumed to run,
1877:FreeRTOS/Source/tasks.c **** 						but will leave the lists in the correct state for the
1878:FreeRTOS/Source/tasks.c **** 						next yield. */
1879:FreeRTOS/Source/tasks.c **** 						taskYIELD_IF_USING_PREEMPTION();
 1571              		.loc 1 1879 0
 1572 0782 0A4B     		ldr	r3, .L103+12
 1573 0784 4FF08052 		mov	r2, #268435456
 1574 0788 1A60     		str	r2, [r3]
 1575              		.syntax unified
 1576              	@ 1879 "FreeRTOS/Source/tasks.c" 1
 1577 078a BFF34F8F 		dsb
 1578              	@ 0 "" 2
 1579              	@ 1879 "FreeRTOS/Source/tasks.c" 1
 1580 078e BFF36F8F 		isb
 1581              	@ 0 "" 2
 1582              		.thumb
 1583              		.syntax unified
 1584              	.L101:
1880:FreeRTOS/Source/tasks.c **** 					}
1881:FreeRTOS/Source/tasks.c **** 					else
1882:FreeRTOS/Source/tasks.c **** 					{
1883:FreeRTOS/Source/tasks.c **** 						mtCOVERAGE_TEST_MARKER();
1884:FreeRTOS/Source/tasks.c **** 					}
1885:FreeRTOS/Source/tasks.c **** 				}
1886:FreeRTOS/Source/tasks.c **** 				else
1887:FreeRTOS/Source/tasks.c **** 				{
1888:FreeRTOS/Source/tasks.c **** 					mtCOVERAGE_TEST_MARKER();
1889:FreeRTOS/Source/tasks.c **** 				}
1890:FreeRTOS/Source/tasks.c **** 			}
1891:FreeRTOS/Source/tasks.c **** 			taskEXIT_CRITICAL();
 1585              		.loc 1 1891 0
 1586 0792 FFF7FEFF 		bl	vPortExitCritical
 1587              	.L102:
1892:FreeRTOS/Source/tasks.c **** 		}
1893:FreeRTOS/Source/tasks.c **** 		else
1894:FreeRTOS/Source/tasks.c **** 		{
1895:FreeRTOS/Source/tasks.c **** 			mtCOVERAGE_TEST_MARKER();
1896:FreeRTOS/Source/tasks.c **** 		}
1897:FreeRTOS/Source/tasks.c **** 	}
 1588              		.loc 1 1897 0
 1589 0796 00BF     		nop
 1590 0798 1037     		adds	r7, r7, #16
 1591              		.cfi_def_cfa_offset 8
 1592 079a BD46     		mov	sp, r7
 1593              		.cfi_def_cfa_register 13
 1594              		@ sp needed
 1595 079c 80BD     		pop	{r7, pc}
 1596              	.L104:
 1597 079e 00BF     		.align	2
 1598              	.L103:
 1599 07a0 00000000 		.word	pxCurrentTCB
 1600 07a4 E0000000 		.word	uxTopReadyPriority
 1601 07a8 04000000 		.word	pxReadyTasksLists
 1602 07ac 04ED00E0 		.word	-536810236
 1603              		.cfi_endproc
 1604              	.LFE16:
 1605              		.size	vTaskResume, .-vTaskResume
ARM GAS  /tmp/cckqXCjj.s 			page 67


 1606              		.align	1
 1607              		.global	xTaskResumeFromISR
 1608              		.syntax unified
 1609              		.thumb
 1610              		.thumb_func
 1611              		.fpu softvfp
 1612              		.type	xTaskResumeFromISR, %function
 1613              	xTaskResumeFromISR:
 1614              	.LFB17:
1898:FreeRTOS/Source/tasks.c **** 
1899:FreeRTOS/Source/tasks.c **** #endif /* INCLUDE_vTaskSuspend */
1900:FreeRTOS/Source/tasks.c **** 
1901:FreeRTOS/Source/tasks.c **** /*-----------------------------------------------------------*/
1902:FreeRTOS/Source/tasks.c **** 
1903:FreeRTOS/Source/tasks.c **** #if ( ( INCLUDE_xTaskResumeFromISR == 1 ) && ( INCLUDE_vTaskSuspend == 1 ) )
1904:FreeRTOS/Source/tasks.c **** 
1905:FreeRTOS/Source/tasks.c **** 	BaseType_t xTaskResumeFromISR( TaskHandle_t xTaskToResume )
1906:FreeRTOS/Source/tasks.c **** 	{
 1615              		.loc 1 1906 0
 1616              		.cfi_startproc
 1617              		@ args = 0, pretend = 0, frame = 32
 1618              		@ frame_needed = 1, uses_anonymous_args = 0
 1619 07b0 80B5     		push	{r7, lr}
 1620              		.cfi_def_cfa_offset 8
 1621              		.cfi_offset 7, -8
 1622              		.cfi_offset 14, -4
 1623 07b2 88B0     		sub	sp, sp, #32
 1624              		.cfi_def_cfa_offset 40
 1625 07b4 00AF     		add	r7, sp, #0
 1626              		.cfi_def_cfa_register 7
 1627 07b6 7860     		str	r0, [r7, #4]
1907:FreeRTOS/Source/tasks.c **** 	BaseType_t xYieldRequired = pdFALSE;
 1628              		.loc 1 1907 0
 1629 07b8 0023     		movs	r3, #0
 1630 07ba FB61     		str	r3, [r7, #28]
1908:FreeRTOS/Source/tasks.c **** 	TCB_t * const pxTCB = xTaskToResume;
 1631              		.loc 1 1908 0
 1632 07bc 7B68     		ldr	r3, [r7, #4]
 1633 07be BB61     		str	r3, [r7, #24]
 1634              	.LBB32:
 1635              	.LBB33:
 213:FreeRTOS/Source/portable/GCC/ARM_CM3/portmacro.h **** 	(
 1636              		.loc 2 213 0
 1637              		.syntax unified
 1638              	@ 213 "FreeRTOS/Source/portable/GCC/ARM_CM3/portmacro.h" 1
 1639 07c0 EFF31182 			mrs r2, basepri											
 1640 07c4 4FF0BF03 		mov r3, #191												
 1641 07c8 83F31188 		msr basepri, r3											
 1642 07cc BFF36F8F 		isb														
 1643 07d0 BFF34F8F 		dsb														
 1644              	
 1645              	@ 0 "" 2
 1646              		.thumb
 1647              		.syntax unified
 1648 07d4 3A61     		str	r2, [r7, #16]
 1649 07d6 FB60     		str	r3, [r7, #12]
 225:FreeRTOS/Source/portable/GCC/ARM_CM3/portmacro.h **** }
ARM GAS  /tmp/cckqXCjj.s 			page 68


 1650              		.loc 2 225 0
 1651 07d8 3B69     		ldr	r3, [r7, #16]
 1652              	.LBE33:
 1653              	.LBE32:
1909:FreeRTOS/Source/tasks.c **** 	UBaseType_t uxSavedInterruptStatus;
1910:FreeRTOS/Source/tasks.c **** 
1911:FreeRTOS/Source/tasks.c **** 		configASSERT( xTaskToResume );
1912:FreeRTOS/Source/tasks.c **** 
1913:FreeRTOS/Source/tasks.c **** 		/* RTOS ports that support interrupt nesting have the concept of a
1914:FreeRTOS/Source/tasks.c **** 		maximum	system call (or maximum API call) interrupt priority.
1915:FreeRTOS/Source/tasks.c **** 		Interrupts that are	above the maximum system call priority are keep
1916:FreeRTOS/Source/tasks.c **** 		permanently enabled, even when the RTOS kernel is in a critical section,
1917:FreeRTOS/Source/tasks.c **** 		but cannot make any calls to FreeRTOS API functions.  If configASSERT()
1918:FreeRTOS/Source/tasks.c **** 		is defined in FreeRTOSConfig.h then
1919:FreeRTOS/Source/tasks.c **** 		portASSERT_IF_INTERRUPT_PRIORITY_INVALID() will result in an assertion
1920:FreeRTOS/Source/tasks.c **** 		failure if a FreeRTOS API function is called from an interrupt that has
1921:FreeRTOS/Source/tasks.c **** 		been assigned a priority above the configured maximum system call
1922:FreeRTOS/Source/tasks.c **** 		priority.  Only FreeRTOS functions that end in FromISR can be called
1923:FreeRTOS/Source/tasks.c **** 		from interrupts	that have been assigned a priority at or (logically)
1924:FreeRTOS/Source/tasks.c **** 		below the maximum system call interrupt priority.  FreeRTOS maintains a
1925:FreeRTOS/Source/tasks.c **** 		separate interrupt safe API to ensure interrupt entry is as fast and as
1926:FreeRTOS/Source/tasks.c **** 		simple as possible.  More information (albeit Cortex-M specific) is
1927:FreeRTOS/Source/tasks.c **** 		provided on the following link:
1928:FreeRTOS/Source/tasks.c **** 		https://www.freertos.org/RTOS-Cortex-M3-M4.html */
1929:FreeRTOS/Source/tasks.c **** 		portASSERT_IF_INTERRUPT_PRIORITY_INVALID();
1930:FreeRTOS/Source/tasks.c **** 
1931:FreeRTOS/Source/tasks.c **** 		uxSavedInterruptStatus = portSET_INTERRUPT_MASK_FROM_ISR();
 1654              		.loc 1 1931 0
 1655 07da 7B61     		str	r3, [r7, #20]
1932:FreeRTOS/Source/tasks.c **** 		{
1933:FreeRTOS/Source/tasks.c **** 			if( prvTaskIsTaskSuspended( pxTCB ) != pdFALSE )
 1656              		.loc 1 1933 0
 1657 07dc B869     		ldr	r0, [r7, #24]
 1658 07de FFF775FF 		bl	prvTaskIsTaskSuspended
 1659 07e2 0346     		mov	r3, r0
 1660 07e4 002B     		cmp	r3, #0
 1661 07e6 2FD0     		beq	.L107
1934:FreeRTOS/Source/tasks.c **** 			{
1935:FreeRTOS/Source/tasks.c **** 				traceTASK_RESUME_FROM_ISR( pxTCB );
1936:FreeRTOS/Source/tasks.c **** 
1937:FreeRTOS/Source/tasks.c **** 				/* Check the ready lists can be accessed. */
1938:FreeRTOS/Source/tasks.c **** 				if( uxSchedulerSuspended == ( UBaseType_t ) pdFALSE )
 1662              		.loc 1 1938 0
 1663 07e8 1C4B     		ldr	r3, .L112
 1664 07ea 1B68     		ldr	r3, [r3]
 1665 07ec 002B     		cmp	r3, #0
 1666 07ee 25D1     		bne	.L108
1939:FreeRTOS/Source/tasks.c **** 				{
1940:FreeRTOS/Source/tasks.c **** 					/* Ready lists can be accessed so move the task from the
1941:FreeRTOS/Source/tasks.c **** 					suspended list to the ready list directly. */
1942:FreeRTOS/Source/tasks.c **** 					if( pxTCB->uxPriority >= pxCurrentTCB->uxPriority )
 1667              		.loc 1 1942 0
 1668 07f0 BB69     		ldr	r3, [r7, #24]
 1669 07f2 DA6A     		ldr	r2, [r3, #44]
 1670 07f4 1A4B     		ldr	r3, .L112+4
 1671 07f6 1B68     		ldr	r3, [r3]
 1672 07f8 DB6A     		ldr	r3, [r3, #44]
ARM GAS  /tmp/cckqXCjj.s 			page 69


 1673 07fa 9A42     		cmp	r2, r3
 1674 07fc 01D3     		bcc	.L109
1943:FreeRTOS/Source/tasks.c **** 					{
1944:FreeRTOS/Source/tasks.c **** 						xYieldRequired = pdTRUE;
 1675              		.loc 1 1944 0
 1676 07fe 0123     		movs	r3, #1
 1677 0800 FB61     		str	r3, [r7, #28]
 1678              	.L109:
1945:FreeRTOS/Source/tasks.c **** 					}
1946:FreeRTOS/Source/tasks.c **** 					else
1947:FreeRTOS/Source/tasks.c **** 					{
1948:FreeRTOS/Source/tasks.c **** 						mtCOVERAGE_TEST_MARKER();
1949:FreeRTOS/Source/tasks.c **** 					}
1950:FreeRTOS/Source/tasks.c **** 
1951:FreeRTOS/Source/tasks.c **** 					( void ) uxListRemove( &( pxTCB->xStateListItem ) );
 1679              		.loc 1 1951 0
 1680 0802 BB69     		ldr	r3, [r7, #24]
 1681 0804 0433     		adds	r3, r3, #4
 1682 0806 1846     		mov	r0, r3
 1683 0808 FFF7FEFF 		bl	uxListRemove
1952:FreeRTOS/Source/tasks.c **** 					prvAddTaskToReadyList( pxTCB );
 1684              		.loc 1 1952 0
 1685 080c BB69     		ldr	r3, [r7, #24]
 1686 080e DB6A     		ldr	r3, [r3, #44]
 1687 0810 0122     		movs	r2, #1
 1688 0812 9A40     		lsls	r2, r2, r3
 1689 0814 134B     		ldr	r3, .L112+8
 1690 0816 1B68     		ldr	r3, [r3]
 1691 0818 1343     		orrs	r3, r3, r2
 1692 081a 124A     		ldr	r2, .L112+8
 1693 081c 1360     		str	r3, [r2]
 1694 081e BB69     		ldr	r3, [r7, #24]
 1695 0820 DA6A     		ldr	r2, [r3, #44]
 1696 0822 1346     		mov	r3, r2
 1697 0824 9B00     		lsls	r3, r3, #2
 1698 0826 1344     		add	r3, r3, r2
 1699 0828 9B00     		lsls	r3, r3, #2
 1700 082a 0F4A     		ldr	r2, .L112+12
 1701 082c 1A44     		add	r2, r2, r3
 1702 082e BB69     		ldr	r3, [r7, #24]
 1703 0830 0433     		adds	r3, r3, #4
 1704 0832 1946     		mov	r1, r3
 1705 0834 1046     		mov	r0, r2
 1706 0836 FFF7FEFF 		bl	vListInsertEnd
 1707 083a 05E0     		b	.L107
 1708              	.L108:
1953:FreeRTOS/Source/tasks.c **** 				}
1954:FreeRTOS/Source/tasks.c **** 				else
1955:FreeRTOS/Source/tasks.c **** 				{
1956:FreeRTOS/Source/tasks.c **** 					/* The delayed or ready lists cannot be accessed so the task
1957:FreeRTOS/Source/tasks.c **** 					is held in the pending ready list until the scheduler is
1958:FreeRTOS/Source/tasks.c **** 					unsuspended. */
1959:FreeRTOS/Source/tasks.c **** 					vListInsertEnd( &( xPendingReadyList ), &( pxTCB->xEventListItem ) );
 1709              		.loc 1 1959 0
 1710 083c BB69     		ldr	r3, [r7, #24]
 1711 083e 1833     		adds	r3, r3, #24
 1712 0840 1946     		mov	r1, r3
ARM GAS  /tmp/cckqXCjj.s 			page 70


 1713 0842 0A48     		ldr	r0, .L112+16
 1714 0844 FFF7FEFF 		bl	vListInsertEnd
 1715              	.L107:
 1716 0848 7B69     		ldr	r3, [r7, #20]
 1717 084a BB60     		str	r3, [r7, #8]
 1718              	.LBB34:
 1719              	.LBB35:
 1720              		.loc 2 231 0
 1721 084c BB68     		ldr	r3, [r7, #8]
 1722              		.syntax unified
 1723              	@ 231 "FreeRTOS/Source/portable/GCC/ARM_CM3/portmacro.h" 1
 1724 084e 83F31188 			msr basepri, r3	
 1725              	@ 0 "" 2
 1726              		.thumb
 1727              		.syntax unified
 1728              	.LBE35:
 1729              	.LBE34:
1960:FreeRTOS/Source/tasks.c **** 				}
1961:FreeRTOS/Source/tasks.c **** 			}
1962:FreeRTOS/Source/tasks.c **** 			else
1963:FreeRTOS/Source/tasks.c **** 			{
1964:FreeRTOS/Source/tasks.c **** 				mtCOVERAGE_TEST_MARKER();
1965:FreeRTOS/Source/tasks.c **** 			}
1966:FreeRTOS/Source/tasks.c **** 		}
1967:FreeRTOS/Source/tasks.c **** 		portCLEAR_INTERRUPT_MASK_FROM_ISR( uxSavedInterruptStatus );
1968:FreeRTOS/Source/tasks.c **** 
1969:FreeRTOS/Source/tasks.c **** 		return xYieldRequired;
 1730              		.loc 1 1969 0
 1731 0852 FB69     		ldr	r3, [r7, #28]
1970:FreeRTOS/Source/tasks.c **** 	}
 1732              		.loc 1 1970 0
 1733 0854 1846     		mov	r0, r3
 1734 0856 2037     		adds	r7, r7, #32
 1735              		.cfi_def_cfa_offset 8
 1736 0858 BD46     		mov	sp, r7
 1737              		.cfi_def_cfa_register 13
 1738              		@ sp needed
 1739 085a 80BD     		pop	{r7, pc}
 1740              	.L113:
 1741              		.align	2
 1742              	.L112:
 1743 085c 00010000 		.word	uxSchedulerSuspended
 1744 0860 00000000 		.word	pxCurrentTCB
 1745 0864 E0000000 		.word	uxTopReadyPriority
 1746 0868 04000000 		.word	pxReadyTasksLists
 1747 086c 98000000 		.word	xPendingReadyList
 1748              		.cfi_endproc
 1749              	.LFE17:
 1750              		.size	xTaskResumeFromISR, .-xTaskResumeFromISR
 1751              		.section	.rodata
 1752              		.align	2
 1753              	.LC0:
 1754 0000 49444C45 		.ascii	"IDLE\000"
 1754      00
 1755              		.text
 1756              		.align	1
 1757              		.global	vTaskStartScheduler
ARM GAS  /tmp/cckqXCjj.s 			page 71


 1758              		.syntax unified
 1759              		.thumb
 1760              		.thumb_func
 1761              		.fpu softvfp
 1762              		.type	vTaskStartScheduler, %function
 1763              	vTaskStartScheduler:
 1764              	.LFB18:
1971:FreeRTOS/Source/tasks.c **** 
1972:FreeRTOS/Source/tasks.c **** #endif /* ( ( INCLUDE_xTaskResumeFromISR == 1 ) && ( INCLUDE_vTaskSuspend == 1 ) ) */
1973:FreeRTOS/Source/tasks.c **** /*-----------------------------------------------------------*/
1974:FreeRTOS/Source/tasks.c **** 
1975:FreeRTOS/Source/tasks.c **** void vTaskStartScheduler( void )
1976:FreeRTOS/Source/tasks.c **** {
 1765              		.loc 1 1976 0
 1766              		.cfi_startproc
 1767              		@ args = 0, pretend = 0, frame = 8
 1768              		@ frame_needed = 1, uses_anonymous_args = 0
 1769 0870 80B5     		push	{r7, lr}
 1770              		.cfi_def_cfa_offset 8
 1771              		.cfi_offset 7, -8
 1772              		.cfi_offset 14, -4
 1773 0872 84B0     		sub	sp, sp, #16
 1774              		.cfi_def_cfa_offset 24
 1775 0874 02AF     		add	r7, sp, #8
 1776              		.cfi_def_cfa 7, 16
1977:FreeRTOS/Source/tasks.c **** BaseType_t xReturn;
1978:FreeRTOS/Source/tasks.c **** 
1979:FreeRTOS/Source/tasks.c **** 	/* Add the idle task at the lowest priority. */
1980:FreeRTOS/Source/tasks.c **** 	#if( configSUPPORT_STATIC_ALLOCATION == 1 )
1981:FreeRTOS/Source/tasks.c **** 	{
1982:FreeRTOS/Source/tasks.c **** 		StaticTask_t *pxIdleTaskTCBBuffer = NULL;
1983:FreeRTOS/Source/tasks.c **** 		StackType_t *pxIdleTaskStackBuffer = NULL;
1984:FreeRTOS/Source/tasks.c **** 		uint32_t ulIdleTaskStackSize;
1985:FreeRTOS/Source/tasks.c **** 
1986:FreeRTOS/Source/tasks.c **** 		/* The Idle task is created using user provided RAM - obtain the
1987:FreeRTOS/Source/tasks.c **** 		address of the RAM then create the idle task. */
1988:FreeRTOS/Source/tasks.c **** 		vApplicationGetIdleTaskMemory( &pxIdleTaskTCBBuffer, &pxIdleTaskStackBuffer, &ulIdleTaskStackSize
1989:FreeRTOS/Source/tasks.c **** 		xIdleTaskHandle = xTaskCreateStatic(	prvIdleTask,
1990:FreeRTOS/Source/tasks.c **** 												configIDLE_TASK_NAME,
1991:FreeRTOS/Source/tasks.c **** 												ulIdleTaskStackSize,
1992:FreeRTOS/Source/tasks.c **** 												( void * ) NULL, /*lint !e961.  The cast is not redundant for all compilers. */
1993:FreeRTOS/Source/tasks.c **** 												portPRIVILEGE_BIT, /* In effect ( tskIDLE_PRIORITY | portPRIVILEGE_BIT ), but tskIDLE_P
1994:FreeRTOS/Source/tasks.c **** 												pxIdleTaskStackBuffer,
1995:FreeRTOS/Source/tasks.c **** 												pxIdleTaskTCBBuffer ); /*lint !e961 MISRA exception, justified as it is not a redundant
1996:FreeRTOS/Source/tasks.c **** 
1997:FreeRTOS/Source/tasks.c **** 		if( xIdleTaskHandle != NULL )
1998:FreeRTOS/Source/tasks.c **** 		{
1999:FreeRTOS/Source/tasks.c **** 			xReturn = pdPASS;
2000:FreeRTOS/Source/tasks.c **** 		}
2001:FreeRTOS/Source/tasks.c **** 		else
2002:FreeRTOS/Source/tasks.c **** 		{
2003:FreeRTOS/Source/tasks.c **** 			xReturn = pdFAIL;
2004:FreeRTOS/Source/tasks.c **** 		}
2005:FreeRTOS/Source/tasks.c **** 	}
2006:FreeRTOS/Source/tasks.c **** 	#else
2007:FreeRTOS/Source/tasks.c **** 	{
2008:FreeRTOS/Source/tasks.c **** 		/* The Idle task is being created using dynamically allocated RAM. */
ARM GAS  /tmp/cckqXCjj.s 			page 72


2009:FreeRTOS/Source/tasks.c **** 		xReturn = xTaskCreate(	prvIdleTask,
 1777              		.loc 1 2009 0
 1778 0876 134B     		ldr	r3, .L117
 1779 0878 0193     		str	r3, [sp, #4]
 1780 087a 0023     		movs	r3, #0
 1781 087c 0093     		str	r3, [sp]
 1782 087e 0023     		movs	r3, #0
 1783 0880 8022     		movs	r2, #128
 1784 0882 1149     		ldr	r1, .L117+4
 1785 0884 1148     		ldr	r0, .L117+8
 1786 0886 FFF7FEFF 		bl	xTaskCreate
 1787 088a 7860     		str	r0, [r7, #4]
2010:FreeRTOS/Source/tasks.c **** 								configIDLE_TASK_NAME,
2011:FreeRTOS/Source/tasks.c **** 								configMINIMAL_STACK_SIZE,
2012:FreeRTOS/Source/tasks.c **** 								( void * ) NULL,
2013:FreeRTOS/Source/tasks.c **** 								portPRIVILEGE_BIT, /* In effect ( tskIDLE_PRIORITY | portPRIVILEGE_BIT ), but tskIDLE_PRIOR
2014:FreeRTOS/Source/tasks.c **** 								&xIdleTaskHandle ); /*lint !e961 MISRA exception, justified as it is not a redundant explic
2015:FreeRTOS/Source/tasks.c **** 	}
2016:FreeRTOS/Source/tasks.c **** 	#endif /* configSUPPORT_STATIC_ALLOCATION */
2017:FreeRTOS/Source/tasks.c **** 
2018:FreeRTOS/Source/tasks.c **** 	#if ( configUSE_TIMERS == 1 )
2019:FreeRTOS/Source/tasks.c **** 	{
2020:FreeRTOS/Source/tasks.c **** 		if( xReturn == pdPASS )
2021:FreeRTOS/Source/tasks.c **** 		{
2022:FreeRTOS/Source/tasks.c **** 			xReturn = xTimerCreateTimerTask();
2023:FreeRTOS/Source/tasks.c **** 		}
2024:FreeRTOS/Source/tasks.c **** 		else
2025:FreeRTOS/Source/tasks.c **** 		{
2026:FreeRTOS/Source/tasks.c **** 			mtCOVERAGE_TEST_MARKER();
2027:FreeRTOS/Source/tasks.c **** 		}
2028:FreeRTOS/Source/tasks.c **** 	}
2029:FreeRTOS/Source/tasks.c **** 	#endif /* configUSE_TIMERS */
2030:FreeRTOS/Source/tasks.c **** 
2031:FreeRTOS/Source/tasks.c **** 	if( xReturn == pdPASS )
 1788              		.loc 1 2031 0
 1789 088c 7B68     		ldr	r3, [r7, #4]
 1790 088e 012B     		cmp	r3, #1
 1791 0890 14D1     		bne	.L116
 1792              	.LBB36:
 1793              	.LBB37:
 197:FreeRTOS/Source/portable/GCC/ARM_CM3/portmacro.h **** 	(
 1794              		.loc 2 197 0
 1795              		.syntax unified
 1796              	@ 197 "FreeRTOS/Source/portable/GCC/ARM_CM3/portmacro.h" 1
 1797 0892 4FF0BF03 			mov r3, #191												
 1798 0896 83F31188 		msr basepri, r3											
 1799 089a BFF36F8F 		isb														
 1800 089e BFF34F8F 		dsb														
 1801              	
 1802              	@ 0 "" 2
 1803              		.thumb
 1804              		.syntax unified
 1805 08a2 3B60     		str	r3, [r7]
 1806              	.LBE37:
 1807              	.LBE36:
2032:FreeRTOS/Source/tasks.c **** 	{
2033:FreeRTOS/Source/tasks.c **** 		/* freertos_tasks_c_additions_init() should only be called if the user
ARM GAS  /tmp/cckqXCjj.s 			page 73


2034:FreeRTOS/Source/tasks.c **** 		definable macro FREERTOS_TASKS_C_ADDITIONS_INIT() is defined, as that is
2035:FreeRTOS/Source/tasks.c **** 		the only macro called by the function. */
2036:FreeRTOS/Source/tasks.c **** 		#ifdef FREERTOS_TASKS_C_ADDITIONS_INIT
2037:FreeRTOS/Source/tasks.c **** 		{
2038:FreeRTOS/Source/tasks.c **** 			freertos_tasks_c_additions_init();
2039:FreeRTOS/Source/tasks.c **** 		}
2040:FreeRTOS/Source/tasks.c **** 		#endif
2041:FreeRTOS/Source/tasks.c **** 
2042:FreeRTOS/Source/tasks.c **** 		/* Interrupts are turned off here, to ensure a tick does not occur
2043:FreeRTOS/Source/tasks.c **** 		before or during the call to xPortStartScheduler().  The stacks of
2044:FreeRTOS/Source/tasks.c **** 		the created tasks contain a status word with interrupts switched on
2045:FreeRTOS/Source/tasks.c **** 		so interrupts will automatically get re-enabled when the first task
2046:FreeRTOS/Source/tasks.c **** 		starts to run. */
2047:FreeRTOS/Source/tasks.c **** 		portDISABLE_INTERRUPTS();
2048:FreeRTOS/Source/tasks.c **** 
2049:FreeRTOS/Source/tasks.c **** 		#if ( configUSE_NEWLIB_REENTRANT == 1 )
2050:FreeRTOS/Source/tasks.c **** 		{
2051:FreeRTOS/Source/tasks.c **** 			/* Switch Newlib's _impure_ptr variable to point to the _reent
2052:FreeRTOS/Source/tasks.c **** 			structure specific to the task that will run first.
2053:FreeRTOS/Source/tasks.c **** 			See the third party link http://www.nadler.com/embedded/newlibAndFreeRTOS.html
2054:FreeRTOS/Source/tasks.c **** 			for additional information. */
2055:FreeRTOS/Source/tasks.c **** 			_impure_ptr = &( pxCurrentTCB->xNewLib_reent );
2056:FreeRTOS/Source/tasks.c **** 		}
2057:FreeRTOS/Source/tasks.c **** 		#endif /* configUSE_NEWLIB_REENTRANT */
2058:FreeRTOS/Source/tasks.c **** 
2059:FreeRTOS/Source/tasks.c **** 		xNextTaskUnblockTime = portMAX_DELAY;
 1808              		.loc 1 2059 0
 1809 08a4 0A4B     		ldr	r3, .L117+12
 1810 08a6 4FF0FF32 		mov	r2, #-1
 1811 08aa 1A60     		str	r2, [r3]
2060:FreeRTOS/Source/tasks.c **** 		xSchedulerRunning = pdTRUE;
 1812              		.loc 1 2060 0
 1813 08ac 094B     		ldr	r3, .L117+16
 1814 08ae 0122     		movs	r2, #1
 1815 08b0 1A60     		str	r2, [r3]
2061:FreeRTOS/Source/tasks.c **** 		xTickCount = ( TickType_t ) configINITIAL_TICK_COUNT;
 1816              		.loc 1 2061 0
 1817 08b2 094B     		ldr	r3, .L117+20
 1818 08b4 0022     		movs	r2, #0
 1819 08b6 1A60     		str	r2, [r3]
2062:FreeRTOS/Source/tasks.c **** 
2063:FreeRTOS/Source/tasks.c **** 		/* If configGENERATE_RUN_TIME_STATS is defined then the following
2064:FreeRTOS/Source/tasks.c **** 		macro must be defined to configure the timer/counter used to generate
2065:FreeRTOS/Source/tasks.c **** 		the run time counter time base.   NOTE:  If configGENERATE_RUN_TIME_STATS
2066:FreeRTOS/Source/tasks.c **** 		is set to 0 and the following line fails to build then ensure you do not
2067:FreeRTOS/Source/tasks.c **** 		have portCONFIGURE_TIMER_FOR_RUN_TIME_STATS() defined in your
2068:FreeRTOS/Source/tasks.c **** 		FreeRTOSConfig.h file. */
2069:FreeRTOS/Source/tasks.c **** 		portCONFIGURE_TIMER_FOR_RUN_TIME_STATS();
2070:FreeRTOS/Source/tasks.c **** 
2071:FreeRTOS/Source/tasks.c **** 		traceTASK_SWITCHED_IN();
2072:FreeRTOS/Source/tasks.c **** 
2073:FreeRTOS/Source/tasks.c **** 		/* Setting up the timer tick is hardware specific and thus in the
2074:FreeRTOS/Source/tasks.c **** 		portable interface. */
2075:FreeRTOS/Source/tasks.c **** 		if( xPortStartScheduler() != pdFALSE )
 1820              		.loc 1 2075 0
 1821 08b8 FFF7FEFF 		bl	xPortStartScheduler
 1822              	.L116:
ARM GAS  /tmp/cckqXCjj.s 			page 74


2076:FreeRTOS/Source/tasks.c **** 		{
2077:FreeRTOS/Source/tasks.c **** 			/* Should not reach here as if the scheduler is running the
2078:FreeRTOS/Source/tasks.c **** 			function will not return. */
2079:FreeRTOS/Source/tasks.c **** 		}
2080:FreeRTOS/Source/tasks.c **** 		else
2081:FreeRTOS/Source/tasks.c **** 		{
2082:FreeRTOS/Source/tasks.c **** 			/* Should only reach here if a task calls xTaskEndScheduler(). */
2083:FreeRTOS/Source/tasks.c **** 		}
2084:FreeRTOS/Source/tasks.c **** 	}
2085:FreeRTOS/Source/tasks.c **** 	else
2086:FreeRTOS/Source/tasks.c **** 	{
2087:FreeRTOS/Source/tasks.c **** 		/* This line will only be reached if the kernel could not be started,
2088:FreeRTOS/Source/tasks.c **** 		because there was not enough FreeRTOS heap to create the idle task
2089:FreeRTOS/Source/tasks.c **** 		or the timer task. */
2090:FreeRTOS/Source/tasks.c **** 		configASSERT( xReturn != errCOULD_NOT_ALLOCATE_REQUIRED_MEMORY );
2091:FreeRTOS/Source/tasks.c **** 	}
2092:FreeRTOS/Source/tasks.c **** 
2093:FreeRTOS/Source/tasks.c **** 	/* Prevent compiler warnings if INCLUDE_xTaskGetIdleTaskHandle is set to 0,
2094:FreeRTOS/Source/tasks.c **** 	meaning xIdleTaskHandle is not used anywhere else. */
2095:FreeRTOS/Source/tasks.c **** 	( void ) xIdleTaskHandle;
2096:FreeRTOS/Source/tasks.c **** }
 1823              		.loc 1 2096 0
 1824 08bc 00BF     		nop
 1825 08be 0837     		adds	r7, r7, #8
 1826              		.cfi_def_cfa_offset 8
 1827 08c0 BD46     		mov	sp, r7
 1828              		.cfi_def_cfa_register 13
 1829              		@ sp needed
 1830 08c2 80BD     		pop	{r7, pc}
 1831              	.L118:
 1832              		.align	2
 1833              	.L117:
 1834 08c4 FC000000 		.word	xIdleTaskHandle
 1835 08c8 00000000 		.word	.LC0
 1836 08cc 00000000 		.word	prvIdleTask
 1837 08d0 F8000000 		.word	xNextTaskUnblockTime
 1838 08d4 E4000000 		.word	xSchedulerRunning
 1839 08d8 DC000000 		.word	xTickCount
 1840              		.cfi_endproc
 1841              	.LFE18:
 1842              		.size	vTaskStartScheduler, .-vTaskStartScheduler
 1843              		.align	1
 1844              		.global	vTaskEndScheduler
 1845              		.syntax unified
 1846              		.thumb
 1847              		.thumb_func
 1848              		.fpu softvfp
 1849              		.type	vTaskEndScheduler, %function
 1850              	vTaskEndScheduler:
 1851              	.LFB19:
2097:FreeRTOS/Source/tasks.c **** /*-----------------------------------------------------------*/
2098:FreeRTOS/Source/tasks.c **** 
2099:FreeRTOS/Source/tasks.c **** void vTaskEndScheduler( void )
2100:FreeRTOS/Source/tasks.c **** {
 1852              		.loc 1 2100 0
 1853              		.cfi_startproc
 1854              		@ args = 0, pretend = 0, frame = 8
ARM GAS  /tmp/cckqXCjj.s 			page 75


 1855              		@ frame_needed = 1, uses_anonymous_args = 0
 1856 08dc 80B5     		push	{r7, lr}
 1857              		.cfi_def_cfa_offset 8
 1858              		.cfi_offset 7, -8
 1859              		.cfi_offset 14, -4
 1860 08de 82B0     		sub	sp, sp, #8
 1861              		.cfi_def_cfa_offset 16
 1862 08e0 00AF     		add	r7, sp, #0
 1863              		.cfi_def_cfa_register 7
 1864              	.LBB38:
 1865              	.LBB39:
 197:FreeRTOS/Source/portable/GCC/ARM_CM3/portmacro.h **** 	(
 1866              		.loc 2 197 0
 1867              		.syntax unified
 1868              	@ 197 "FreeRTOS/Source/portable/GCC/ARM_CM3/portmacro.h" 1
 1869 08e2 4FF0BF03 			mov r3, #191												
 1870 08e6 83F31188 		msr basepri, r3											
 1871 08ea BFF36F8F 		isb														
 1872 08ee BFF34F8F 		dsb														
 1873              	
 1874              	@ 0 "" 2
 1875              		.thumb
 1876              		.syntax unified
 1877 08f2 7B60     		str	r3, [r7, #4]
 1878              	.LBE39:
 1879              	.LBE38:
2101:FreeRTOS/Source/tasks.c **** 	/* Stop the scheduler interrupts and call the portable scheduler end
2102:FreeRTOS/Source/tasks.c **** 	routine so the original ISRs can be restored if necessary.  The port
2103:FreeRTOS/Source/tasks.c **** 	layer must ensure interrupts enable	bit is left in the correct state. */
2104:FreeRTOS/Source/tasks.c **** 	portDISABLE_INTERRUPTS();
2105:FreeRTOS/Source/tasks.c **** 	xSchedulerRunning = pdFALSE;
 1880              		.loc 1 2105 0
 1881 08f4 044B     		ldr	r3, .L120
 1882 08f6 0022     		movs	r2, #0
 1883 08f8 1A60     		str	r2, [r3]
2106:FreeRTOS/Source/tasks.c **** 	vPortEndScheduler();
 1884              		.loc 1 2106 0
 1885 08fa FFF7FEFF 		bl	vPortEndScheduler
2107:FreeRTOS/Source/tasks.c **** }
 1886              		.loc 1 2107 0
 1887 08fe 00BF     		nop
 1888 0900 0837     		adds	r7, r7, #8
 1889              		.cfi_def_cfa_offset 8
 1890 0902 BD46     		mov	sp, r7
 1891              		.cfi_def_cfa_register 13
 1892              		@ sp needed
 1893 0904 80BD     		pop	{r7, pc}
 1894              	.L121:
 1895 0906 00BF     		.align	2
 1896              	.L120:
 1897 0908 E4000000 		.word	xSchedulerRunning
 1898              		.cfi_endproc
 1899              	.LFE19:
 1900              		.size	vTaskEndScheduler, .-vTaskEndScheduler
 1901              		.align	1
 1902              		.global	vTaskSuspendAll
 1903              		.syntax unified
ARM GAS  /tmp/cckqXCjj.s 			page 76


 1904              		.thumb
 1905              		.thumb_func
 1906              		.fpu softvfp
 1907              		.type	vTaskSuspendAll, %function
 1908              	vTaskSuspendAll:
 1909              	.LFB20:
2108:FreeRTOS/Source/tasks.c **** /*----------------------------------------------------------*/
2109:FreeRTOS/Source/tasks.c **** 
2110:FreeRTOS/Source/tasks.c **** void vTaskSuspendAll( void )
2111:FreeRTOS/Source/tasks.c **** {
 1910              		.loc 1 2111 0
 1911              		.cfi_startproc
 1912              		@ args = 0, pretend = 0, frame = 0
 1913              		@ frame_needed = 1, uses_anonymous_args = 0
 1914              		@ link register save eliminated.
 1915 090c 80B4     		push	{r7}
 1916              		.cfi_def_cfa_offset 4
 1917              		.cfi_offset 7, -4
 1918 090e 00AF     		add	r7, sp, #0
 1919              		.cfi_def_cfa_register 7
2112:FreeRTOS/Source/tasks.c **** 	/* A critical section is not required as the variable is of type
2113:FreeRTOS/Source/tasks.c **** 	BaseType_t.  Please read Richard Barry's reply in the following link to a
2114:FreeRTOS/Source/tasks.c **** 	post in the FreeRTOS support forum before reporting this as a bug! -
2115:FreeRTOS/Source/tasks.c **** 	http://goo.gl/wu4acr */
2116:FreeRTOS/Source/tasks.c **** 
2117:FreeRTOS/Source/tasks.c **** 	/* portSOFRWARE_BARRIER() is only implemented for emulated/simulated ports that
2118:FreeRTOS/Source/tasks.c **** 	do not otherwise exhibit real time behaviour. */
2119:FreeRTOS/Source/tasks.c **** 	portSOFTWARE_BARRIER();
2120:FreeRTOS/Source/tasks.c **** 
2121:FreeRTOS/Source/tasks.c **** 	/* The scheduler is suspended if uxSchedulerSuspended is non-zero.  An increment
2122:FreeRTOS/Source/tasks.c **** 	is used to allow calls to vTaskSuspendAll() to nest. */
2123:FreeRTOS/Source/tasks.c **** 	++uxSchedulerSuspended;
 1920              		.loc 1 2123 0
 1921 0910 044B     		ldr	r3, .L123
 1922 0912 1B68     		ldr	r3, [r3]
 1923 0914 0133     		adds	r3, r3, #1
 1924 0916 034A     		ldr	r2, .L123
 1925 0918 1360     		str	r3, [r2]
2124:FreeRTOS/Source/tasks.c **** 
2125:FreeRTOS/Source/tasks.c **** 	/* Enforces ordering for ports and optimised compilers that may otherwise place
2126:FreeRTOS/Source/tasks.c **** 	the above increment elsewhere. */
2127:FreeRTOS/Source/tasks.c **** 	portMEMORY_BARRIER();
 1926              		.loc 1 2127 0
2128:FreeRTOS/Source/tasks.c **** }
 1927              		.loc 1 2128 0
 1928 091a 00BF     		nop
 1929 091c BD46     		mov	sp, r7
 1930              		.cfi_def_cfa_register 13
 1931              		@ sp needed
 1932 091e 80BC     		pop	{r7}
 1933              		.cfi_restore 7
 1934              		.cfi_def_cfa_offset 0
 1935 0920 7047     		bx	lr
 1936              	.L124:
 1937 0922 00BF     		.align	2
 1938              	.L123:
 1939 0924 00010000 		.word	uxSchedulerSuspended
ARM GAS  /tmp/cckqXCjj.s 			page 77


 1940              		.cfi_endproc
 1941              	.LFE20:
 1942              		.size	vTaskSuspendAll, .-vTaskSuspendAll
 1943              		.align	1
 1944              		.global	xTaskResumeAll
 1945              		.syntax unified
 1946              		.thumb
 1947              		.thumb_func
 1948              		.fpu softvfp
 1949              		.type	xTaskResumeAll, %function
 1950              	xTaskResumeAll:
 1951              	.LFB21:
2129:FreeRTOS/Source/tasks.c **** /*----------------------------------------------------------*/
2130:FreeRTOS/Source/tasks.c **** 
2131:FreeRTOS/Source/tasks.c **** #if ( configUSE_TICKLESS_IDLE != 0 )
2132:FreeRTOS/Source/tasks.c **** 
2133:FreeRTOS/Source/tasks.c **** 	static TickType_t prvGetExpectedIdleTime( void )
2134:FreeRTOS/Source/tasks.c **** 	{
2135:FreeRTOS/Source/tasks.c **** 	TickType_t xReturn;
2136:FreeRTOS/Source/tasks.c **** 	UBaseType_t uxHigherPriorityReadyTasks = pdFALSE;
2137:FreeRTOS/Source/tasks.c **** 
2138:FreeRTOS/Source/tasks.c **** 		/* uxHigherPriorityReadyTasks takes care of the case where
2139:FreeRTOS/Source/tasks.c **** 		configUSE_PREEMPTION is 0, so there may be tasks above the idle priority
2140:FreeRTOS/Source/tasks.c **** 		task that are in the Ready state, even though the idle task is
2141:FreeRTOS/Source/tasks.c **** 		running. */
2142:FreeRTOS/Source/tasks.c **** 		#if( configUSE_PORT_OPTIMISED_TASK_SELECTION == 0 )
2143:FreeRTOS/Source/tasks.c **** 		{
2144:FreeRTOS/Source/tasks.c **** 			if( uxTopReadyPriority > tskIDLE_PRIORITY )
2145:FreeRTOS/Source/tasks.c **** 			{
2146:FreeRTOS/Source/tasks.c **** 				uxHigherPriorityReadyTasks = pdTRUE;
2147:FreeRTOS/Source/tasks.c **** 			}
2148:FreeRTOS/Source/tasks.c **** 		}
2149:FreeRTOS/Source/tasks.c **** 		#else
2150:FreeRTOS/Source/tasks.c **** 		{
2151:FreeRTOS/Source/tasks.c **** 			const UBaseType_t uxLeastSignificantBit = ( UBaseType_t ) 0x01;
2152:FreeRTOS/Source/tasks.c **** 
2153:FreeRTOS/Source/tasks.c **** 			/* When port optimised task selection is used the uxTopReadyPriority
2154:FreeRTOS/Source/tasks.c **** 			variable is used as a bit map.  If bits other than the least
2155:FreeRTOS/Source/tasks.c **** 			significant bit are set then there are tasks that have a priority
2156:FreeRTOS/Source/tasks.c **** 			above the idle priority that are in the Ready state.  This takes
2157:FreeRTOS/Source/tasks.c **** 			care of the case where the co-operative scheduler is in use. */
2158:FreeRTOS/Source/tasks.c **** 			if( uxTopReadyPriority > uxLeastSignificantBit )
2159:FreeRTOS/Source/tasks.c **** 			{
2160:FreeRTOS/Source/tasks.c **** 				uxHigherPriorityReadyTasks = pdTRUE;
2161:FreeRTOS/Source/tasks.c **** 			}
2162:FreeRTOS/Source/tasks.c **** 		}
2163:FreeRTOS/Source/tasks.c **** 		#endif
2164:FreeRTOS/Source/tasks.c **** 
2165:FreeRTOS/Source/tasks.c **** 		if( pxCurrentTCB->uxPriority > tskIDLE_PRIORITY )
2166:FreeRTOS/Source/tasks.c **** 		{
2167:FreeRTOS/Source/tasks.c **** 			xReturn = 0;
2168:FreeRTOS/Source/tasks.c **** 		}
2169:FreeRTOS/Source/tasks.c **** 		else if( listCURRENT_LIST_LENGTH( &( pxReadyTasksLists[ tskIDLE_PRIORITY ] ) ) > 1 )
2170:FreeRTOS/Source/tasks.c **** 		{
2171:FreeRTOS/Source/tasks.c **** 			/* There are other idle priority tasks in the ready state.  If
2172:FreeRTOS/Source/tasks.c **** 			time slicing is used then the very next tick interrupt must be
2173:FreeRTOS/Source/tasks.c **** 			processed. */
ARM GAS  /tmp/cckqXCjj.s 			page 78


2174:FreeRTOS/Source/tasks.c **** 			xReturn = 0;
2175:FreeRTOS/Source/tasks.c **** 		}
2176:FreeRTOS/Source/tasks.c **** 		else if( uxHigherPriorityReadyTasks != pdFALSE )
2177:FreeRTOS/Source/tasks.c **** 		{
2178:FreeRTOS/Source/tasks.c **** 			/* There are tasks in the Ready state that have a priority above the
2179:FreeRTOS/Source/tasks.c **** 			idle priority.  This path can only be reached if
2180:FreeRTOS/Source/tasks.c **** 			configUSE_PREEMPTION is 0. */
2181:FreeRTOS/Source/tasks.c **** 			xReturn = 0;
2182:FreeRTOS/Source/tasks.c **** 		}
2183:FreeRTOS/Source/tasks.c **** 		else
2184:FreeRTOS/Source/tasks.c **** 		{
2185:FreeRTOS/Source/tasks.c **** 			xReturn = xNextTaskUnblockTime - xTickCount;
2186:FreeRTOS/Source/tasks.c **** 		}
2187:FreeRTOS/Source/tasks.c **** 
2188:FreeRTOS/Source/tasks.c **** 		return xReturn;
2189:FreeRTOS/Source/tasks.c **** 	}
2190:FreeRTOS/Source/tasks.c **** 
2191:FreeRTOS/Source/tasks.c **** #endif /* configUSE_TICKLESS_IDLE */
2192:FreeRTOS/Source/tasks.c **** /*----------------------------------------------------------*/
2193:FreeRTOS/Source/tasks.c **** 
2194:FreeRTOS/Source/tasks.c **** BaseType_t xTaskResumeAll( void )
2195:FreeRTOS/Source/tasks.c **** {
 1952              		.loc 1 2195 0
 1953              		.cfi_startproc
 1954              		@ args = 0, pretend = 0, frame = 16
 1955              		@ frame_needed = 1, uses_anonymous_args = 0
 1956 0928 80B5     		push	{r7, lr}
 1957              		.cfi_def_cfa_offset 8
 1958              		.cfi_offset 7, -8
 1959              		.cfi_offset 14, -4
 1960 092a 84B0     		sub	sp, sp, #16
 1961              		.cfi_def_cfa_offset 24
 1962 092c 00AF     		add	r7, sp, #0
 1963              		.cfi_def_cfa_register 7
2196:FreeRTOS/Source/tasks.c **** TCB_t *pxTCB = NULL;
 1964              		.loc 1 2196 0
 1965 092e 0023     		movs	r3, #0
 1966 0930 FB60     		str	r3, [r7, #12]
2197:FreeRTOS/Source/tasks.c **** BaseType_t xAlreadyYielded = pdFALSE;
 1967              		.loc 1 2197 0
 1968 0932 0023     		movs	r3, #0
 1969 0934 BB60     		str	r3, [r7, #8]
2198:FreeRTOS/Source/tasks.c **** 
2199:FreeRTOS/Source/tasks.c **** 	/* If uxSchedulerSuspended is zero then this function does not match a
2200:FreeRTOS/Source/tasks.c **** 	previous call to vTaskSuspendAll(). */
2201:FreeRTOS/Source/tasks.c **** 	configASSERT( uxSchedulerSuspended );
2202:FreeRTOS/Source/tasks.c **** 
2203:FreeRTOS/Source/tasks.c **** 	/* It is possible that an ISR caused a task to be removed from an event
2204:FreeRTOS/Source/tasks.c **** 	list while the scheduler was suspended.  If this was the case then the
2205:FreeRTOS/Source/tasks.c **** 	removed task will have been added to the xPendingReadyList.  Once the
2206:FreeRTOS/Source/tasks.c **** 	scheduler has been resumed it is safe to move all the pending ready
2207:FreeRTOS/Source/tasks.c **** 	tasks from this list into their appropriate ready list. */
2208:FreeRTOS/Source/tasks.c **** 	taskENTER_CRITICAL();
 1970              		.loc 1 2208 0
 1971 0936 FFF7FEFF 		bl	vPortEnterCritical
2209:FreeRTOS/Source/tasks.c **** 	{
2210:FreeRTOS/Source/tasks.c **** 		--uxSchedulerSuspended;
ARM GAS  /tmp/cckqXCjj.s 			page 79


 1972              		.loc 1 2210 0
 1973 093a 394B     		ldr	r3, .L134
 1974 093c 1B68     		ldr	r3, [r3]
 1975 093e 013B     		subs	r3, r3, #1
 1976 0940 374A     		ldr	r2, .L134
 1977 0942 1360     		str	r3, [r2]
2211:FreeRTOS/Source/tasks.c **** 
2212:FreeRTOS/Source/tasks.c **** 		if( uxSchedulerSuspended == ( UBaseType_t ) pdFALSE )
 1978              		.loc 1 2212 0
 1979 0944 364B     		ldr	r3, .L134
 1980 0946 1B68     		ldr	r3, [r3]
 1981 0948 002B     		cmp	r3, #0
 1982 094a 61D1     		bne	.L126
2213:FreeRTOS/Source/tasks.c **** 		{
2214:FreeRTOS/Source/tasks.c **** 			if( uxCurrentNumberOfTasks > ( UBaseType_t ) 0U )
 1983              		.loc 1 2214 0
 1984 094c 354B     		ldr	r3, .L134+4
 1985 094e 1B68     		ldr	r3, [r3]
 1986 0950 002B     		cmp	r3, #0
 1987 0952 5DD0     		beq	.L126
2215:FreeRTOS/Source/tasks.c **** 			{
2216:FreeRTOS/Source/tasks.c **** 				/* Move any readied tasks from the pending list into the
2217:FreeRTOS/Source/tasks.c **** 				appropriate ready list. */
2218:FreeRTOS/Source/tasks.c **** 				while( listLIST_IS_EMPTY( &xPendingReadyList ) == pdFALSE )
 1988              		.loc 1 2218 0
 1989 0954 2EE0     		b	.L127
 1990              	.L128:
2219:FreeRTOS/Source/tasks.c **** 				{
2220:FreeRTOS/Source/tasks.c **** 					pxTCB = listGET_OWNER_OF_HEAD_ENTRY( ( &xPendingReadyList ) ); /*lint !e9079 void * is used as
 1991              		.loc 1 2220 0
 1992 0956 344B     		ldr	r3, .L134+8
 1993 0958 DB68     		ldr	r3, [r3, #12]
 1994 095a DB68     		ldr	r3, [r3, #12]
 1995 095c FB60     		str	r3, [r7, #12]
2221:FreeRTOS/Source/tasks.c **** 					( void ) uxListRemove( &( pxTCB->xEventListItem ) );
 1996              		.loc 1 2221 0
 1997 095e FB68     		ldr	r3, [r7, #12]
 1998 0960 1833     		adds	r3, r3, #24
 1999 0962 1846     		mov	r0, r3
 2000 0964 FFF7FEFF 		bl	uxListRemove
2222:FreeRTOS/Source/tasks.c **** 					( void ) uxListRemove( &( pxTCB->xStateListItem ) );
 2001              		.loc 1 2222 0
 2002 0968 FB68     		ldr	r3, [r7, #12]
 2003 096a 0433     		adds	r3, r3, #4
 2004 096c 1846     		mov	r0, r3
 2005 096e FFF7FEFF 		bl	uxListRemove
2223:FreeRTOS/Source/tasks.c **** 					prvAddTaskToReadyList( pxTCB );
 2006              		.loc 1 2223 0
 2007 0972 FB68     		ldr	r3, [r7, #12]
 2008 0974 DB6A     		ldr	r3, [r3, #44]
 2009 0976 0122     		movs	r2, #1
 2010 0978 9A40     		lsls	r2, r2, r3
 2011 097a 2C4B     		ldr	r3, .L134+12
 2012 097c 1B68     		ldr	r3, [r3]
 2013 097e 1343     		orrs	r3, r3, r2
 2014 0980 2A4A     		ldr	r2, .L134+12
 2015 0982 1360     		str	r3, [r2]
ARM GAS  /tmp/cckqXCjj.s 			page 80


 2016 0984 FB68     		ldr	r3, [r7, #12]
 2017 0986 DA6A     		ldr	r2, [r3, #44]
 2018 0988 1346     		mov	r3, r2
 2019 098a 9B00     		lsls	r3, r3, #2
 2020 098c 1344     		add	r3, r3, r2
 2021 098e 9B00     		lsls	r3, r3, #2
 2022 0990 274A     		ldr	r2, .L134+16
 2023 0992 1A44     		add	r2, r2, r3
 2024 0994 FB68     		ldr	r3, [r7, #12]
 2025 0996 0433     		adds	r3, r3, #4
 2026 0998 1946     		mov	r1, r3
 2027 099a 1046     		mov	r0, r2
 2028 099c FFF7FEFF 		bl	vListInsertEnd
2224:FreeRTOS/Source/tasks.c **** 
2225:FreeRTOS/Source/tasks.c **** 					/* If the moved task has a priority higher than the current
2226:FreeRTOS/Source/tasks.c **** 					task then a yield must be performed. */
2227:FreeRTOS/Source/tasks.c **** 					if( pxTCB->uxPriority >= pxCurrentTCB->uxPriority )
 2029              		.loc 1 2227 0
 2030 09a0 FB68     		ldr	r3, [r7, #12]
 2031 09a2 DA6A     		ldr	r2, [r3, #44]
 2032 09a4 234B     		ldr	r3, .L134+20
 2033 09a6 1B68     		ldr	r3, [r3]
 2034 09a8 DB6A     		ldr	r3, [r3, #44]
 2035 09aa 9A42     		cmp	r2, r3
 2036 09ac 02D3     		bcc	.L127
2228:FreeRTOS/Source/tasks.c **** 					{
2229:FreeRTOS/Source/tasks.c **** 						xYieldPending = pdTRUE;
 2037              		.loc 1 2229 0
 2038 09ae 224B     		ldr	r3, .L134+24
 2039 09b0 0122     		movs	r2, #1
 2040 09b2 1A60     		str	r2, [r3]
 2041              	.L127:
